
Audio.elf:     file format elf32-littlenios2
Audio.elf
architecture: nios2, flags 0x00000112:
EXEC_P, HAS_SYMS, D_PAGED
start address 0x008001a8

Program Header:
    LOAD off    0x000000b4 vaddr 0x01080020 paddr 0x00800000 align 2**0
         filesz 0x000001a8 memsz 0x000001a8 flags r-x
    LOAD off    0x0000025c vaddr 0x008001a8 paddr 0x008001a8 align 2**0
         filesz 0x0001054c memsz 0x0001054c flags r-x
    LOAD off    0x000107a8 vaddr 0x008106f4 paddr 0x008106f4 align 2**0
         filesz 0x00001b00 memsz 0x00002308 flags rw-
    LOAD off    0x000122a8 vaddr 0x01080000 paddr 0x01080000 align 2**0
         filesz 0x00000020 memsz 0x00000020 flags r-x

Sections:
Idx Name          Size      VMA       LMA       File off  Algn
  0 .entry        00000020  01080000  01080000  000122a8  2**5
                  CONTENTS, ALLOC, LOAD, READONLY, CODE
  1 .exceptions   000001a8  01080020  00800000  000000b4  2**2
                  CONTENTS, ALLOC, LOAD, READONLY, CODE
  2 .text         0000ff64  008001a8  008001a8  0000025c  2**2
                  CONTENTS, ALLOC, LOAD, READONLY, CODE
  3 .rodata       000005e8  0081010c  0081010c  000101c0  2**2
                  CONTENTS, ALLOC, LOAD, READONLY, DATA
  4 .rwdata       00001b00  008106f4  008106f4  000107a8  2**2
                  CONTENTS, ALLOC, LOAD, DATA, SMALL_DATA
  5 .bss          00000808  008121f4  008121f4  000122a8  2**2
                  ALLOC, SMALL_DATA
  6 .sdram_0      00000000  008129fc  008129fc  000122c8  2**0
                  CONTENTS
  7 .sram_0       00000000  010801c8  010801c8  000122c8  2**0
                  CONTENTS
  8 .comment      0000115c  00000000  00000000  000122c8  2**0
                  CONTENTS, READONLY
  9 .debug_aranges 00000c78  00000000  00000000  00013428  2**3
                  CONTENTS, READONLY, DEBUGGING
 10 .debug_pubnames 000019ea  00000000  00000000  000140a0  2**0
                  CONTENTS, READONLY, DEBUGGING
 11 .debug_info   00025649  00000000  00000000  00015a8a  2**0
                  CONTENTS, READONLY, DEBUGGING
 12 .debug_abbrev 00007729  00000000  00000000  0003b0d3  2**0
                  CONTENTS, READONLY, DEBUGGING
 13 .debug_line   00015427  00000000  00000000  000427fc  2**0
                  CONTENTS, READONLY, DEBUGGING
 14 .debug_frame  00001bf8  00000000  00000000  00057c24  2**2
                  CONTENTS, READONLY, DEBUGGING
 15 .debug_str    0000242c  00000000  00000000  0005981c  2**0
                  CONTENTS, READONLY, DEBUGGING
 16 .debug_alt_sim_info 00000010  00000000  00000000  0005bc48  2**2
                  CONTENTS, READONLY, DEBUGGING
 17 .debug_ranges 000005a0  00000010  00000010  0005bc58  2**0
                  CONTENTS, READONLY, DEBUGGING
 18 .cpu          00000005  00000000  00000000  0005fde5  2**0
                  CONTENTS, READONLY
 19 .simulation_enabled 00000001  00000000  00000000  0005fdea  2**0
                  CONTENTS, READONLY
 20 .sysid_hash   00000004  00000000  00000000  0005fdeb  2**0
                  CONTENTS, READONLY
 21 .sysid_base   00000004  00000000  00000000  0005fdef  2**0
                  CONTENTS, READONLY
 22 .sysid_time   00000004  00000000  00000000  0005fdf3  2**0
                  CONTENTS, READONLY
 23 .stderr_dev   0000000b  00000000  00000000  0005fdf7  2**0
                  CONTENTS, READONLY
 24 .stdin_dev    0000000b  00000000  00000000  0005fe02  2**0
                  CONTENTS, READONLY
 25 .stdout_dev   0000000b  00000000  00000000  0005fe0d  2**0
                  CONTENTS, READONLY
 26 .sopc_system_name 0000000a  00000000  00000000  0005fe18  2**0
                  CONTENTS, READONLY
 27 .quartus_project_dir 00000035  00000000  00000000  0005fe22  2**0
                  CONTENTS, READONLY
 28 .jdi          000042c3  00000000  00000000  0005fe57  2**0
                  CONTENTS, READONLY
SYMBOL TABLE:
01080000 l    d  .entry	00000000 
01080020 l    d  .exceptions	00000000 
008001a8 l    d  .text	00000000 
0081010c l    d  .rodata	00000000 
008106f4 l    d  .rwdata	00000000 
008121f4 l    d  .bss	00000000 
008129fc l    d  .sdram_0	00000000 
010801c8 l    d  .sram_0	00000000 
00000000 l    d  .comment	00000000 
00000000 l    d  .debug_aranges	00000000 
00000000 l    d  .debug_pubnames	00000000 
00000000 l    d  .debug_info	00000000 
00000000 l    d  .debug_abbrev	00000000 
00000000 l    d  .debug_line	00000000 
00000000 l    d  .debug_frame	00000000 
00000000 l    d  .debug_str	00000000 
00000000 l    d  .debug_alt_sim_info	00000000 
00000010 l    d  .debug_ranges	00000000 
00000000 l    d  *ABS*	00000000 
00000000 l    d  *ABS*	00000000 
00000000 l    d  *ABS*	00000000 
00000000 l    df *ABS*	00000000 d:/Docs/documents/docs/GitHub/systems-project-verilog/software/Audio_bsp/HAL/src/crt0.S
00000000 l    df *ABS*	00000000 ./HAL/inc/sys/alt_log_printf.h
00000000 l    df *ABS*	00000000 ./system.h
00000000 l    df *ABS*	00000000 ./HAL/inc/sys/alt_log_printf.h
00000000 l    df *ABS*	00000000 d:/Docs/documents/docs/GitHub/systems-project-verilog/software/Audio_bsp/HAL/src/crt0.S
00000000 l    df *ABS*	00000000 ./HAL/inc/nios2.h
00000000 l    df *ABS*	00000000 d:/Docs/documents/docs/GitHub/systems-project-verilog/software/Audio_bsp/HAL/src/crt0.S
00000000 l    df *ABS*	00000000 ./system.h
00000000 l    df *ABS*	00000000 ./linker.h
00000000 l    df *ABS*	00000000 ./system.h
00000000 l    df *ABS*	00000000 d:/Docs/documents/docs/GitHub/systems-project-verilog/software/Audio_bsp/HAL/src/crt0.S
00000000 l    df *ABS*	00000000 <command line>
00000000 l    df *ABS*	00000000 <built-in>
00000000 l    df *ABS*	00000000 /cygdrive/d/Docs/documents/docs/GitHub/systems-project-verilog/software/Audio_bsp//
00000000 l    df *ABS*	00000000 d:/Docs/documents/docs/GitHub/systems-project-verilog/software/Audio_bsp/HAL/src/crt0.S
008001e0 l       .text	00000000 alt_after_alt_main
00000000 l    df *ABS*	00000000 d:/Docs/documents/docs/GitHub/systems-project-verilog/software/Audio_bsp/HAL/src/alt_irq_entry.S
00000000 l    df *ABS*	00000000 ./system.h
00000000 l    df *ABS*	00000000 ./linker.h
00000000 l    df *ABS*	00000000 ./system.h
00000000 l    df *ABS*	00000000 d:/Docs/documents/docs/GitHub/systems-project-verilog/software/Audio_bsp/HAL/src/alt_irq_entry.S
00000000 l    df *ABS*	00000000 <command line>
00000000 l    df *ABS*	00000000 <built-in>
00000000 l    df *ABS*	00000000 /cygdrive/d/Docs/documents/docs/GitHub/systems-project-verilog/software/Audio_bsp//
00000000 l    df *ABS*	00000000 d:/Docs/documents/docs/GitHub/systems-project-verilog/software/Audio_bsp/HAL/src/alt_irq_entry.S
00000000 l    df *ABS*	00000000 d:/Docs/documents/docs/GitHub/systems-project-verilog/software/Audio_bsp/HAL/src/alt_exception_entry.S
00000000 l    df *ABS*	00000000 ./system.h
00000000 l    df *ABS*	00000000 ./linker.h
00000000 l    df *ABS*	00000000 ./system.h
00000000 l    df *ABS*	00000000 d:/Docs/documents/docs/GitHub/systems-project-verilog/software/Audio_bsp/HAL/src/alt_exception_entry.S
00000000 l    df *ABS*	00000000 <command line>
00000000 l    df *ABS*	00000000 <built-in>
00000000 l    df *ABS*	00000000 /cygdrive/d/Docs/documents/docs/GitHub/systems-project-verilog/software/Audio_bsp//
00000000 l    df *ABS*	00000000 d:/Docs/documents/docs/GitHub/systems-project-verilog/software/Audio_bsp/HAL/src/alt_exception_entry.S
00000000 l    df *ABS*	00000000 alt_irq_handler.c
00000000 l    df *ABS*	00000000 hello_world.c
00000000 l    df *ABS*	00000000 lib2-divmod.c
00800688 l     F .text	00000060 udivmodsi4
00000000 l    df *ABS*	00000000 lib2-mul.c
00000000 l    df *ABS*	00000000 malloc.c
00000000 l    df *ABS*	00000000 mallocr.c
00000000 l    df *ABS*	00000000 printf.c
00000000 l    df *ABS*	00000000 sbrkr.c
00000000 l    df *ABS*	00000000 vfprintf1.c
00800f2c l     F .text	00000058 __sprint
008101e0 l     O .rodata	00000010 blanks.0
008101f0 l     O .rodata	00000010 zeroes.1
00000000 l    df *ABS*	00000000 wcrtomb.c
00000000 l    df *ABS*	00000000 wcsrtombs.c
00000000 l    df *ABS*	00000000 wctomb_r.c
00000000 l    df *ABS*	00000000 wsetup.c
00000000 l    df *ABS*	00000000 dtoa.c
008033cc l     F .text	0000022c quorem
00000000 l    df *ABS*	00000000 fflush.c
00000000 l    df *ABS*	00000000 findfp.c
00804acc l     F .text	00000058 std
00000000 l    df *ABS*	00000000 mallocr.c
00000000 l    df *ABS*	00000000 fvwrite.c
00000000 l    df *ABS*	00000000 fwalk.c
00000000 l    df *ABS*	00000000 impure.c
00810b24 l     O .rwdata	0000037c impure_data
00000000 l    df *ABS*	00000000 int_errno.c
00000000 l    df *ABS*	00000000 locale.c
00810414 l     O .rodata	00000030 lconv
0081217c l     O .rwdata	00000004 charset
00000000 l    df *ABS*	00000000 makebuf.c
00000000 l    df *ABS*	00000000 memchr.c
00000000 l    df *ABS*	00000000 memcpy.c
00000000 l    df *ABS*	00000000 memmove.c
00000000 l    df *ABS*	00000000 memset.c
00000000 l    df *ABS*	00000000 mprec.c
0081055c l     O .rodata	0000000c p05.0
00000000 l    df *ABS*	00000000 mallocr.c
00000000 l    df *ABS*	00000000 s_isinf.c
00000000 l    df *ABS*	00000000 s_isnan.c
00000000 l    df *ABS*	00000000 stdio.c
00000000 l    df *ABS*	00000000 strcmp.c
00000000 l    df *ABS*	00000000 strlen.c
00000000 l    df *ABS*	00000000 writer.c
00000000 l    df *ABS*	00000000 mallocr.c
00000000 l    df *ABS*	00000000 closer.c
00000000 l    df *ABS*	00000000 fstatr.c
00000000 l    df *ABS*	00000000 lseekr.c
00000000 l    df *ABS*	00000000 readr.c
00000000 l    df *ABS*	00000000 libgcc2.c
00000000 l    df *ABS*	00000000 libgcc2.c
00000000 l    df *ABS*	00000000 libgcc2.c
00000000 l    df *ABS*	00000000 nios2-dp-bit.c
00808024 l     F .text	0000031c _fpadd_parts
00000000 l    df *ABS*	00000000 nios2-dp-bit.c
00000000 l    df *ABS*	00000000 nios2-dp-bit.c
00000000 l    df *ABS*	00000000 nios2-dp-bit.c
00000000 l    df *ABS*	00000000 nios2-dp-bit.c
00000000 l    df *ABS*	00000000 nios2-dp-bit.c
00000000 l    df *ABS*	00000000 nios2-dp-bit.c
00000000 l    df *ABS*	00000000 nios2-dp-bit.c
00000000 l    df *ABS*	00000000 nios2-dp-bit.c
00000000 l    df *ABS*	00000000 nios2-dp-bit.c
00000000 l    df *ABS*	00000000 nios2-dp-bit.c
00000000 l    df *ABS*	00000000 libgcc2.c
00000000 l    df *ABS*	00000000 libgcc2.c
00000000 l    df *ABS*	00000000 libgcc2.c
00000000 l    df *ABS*	00000000 nios2-dp-bit.c
00000000 l    df *ABS*	00000000 nios2-dp-bit.c
00000000 l    df *ABS*	00000000 nios2-dp-bit.c
00000000 l    df *ABS*	00000000 libgcc2.c
00000000 l    df *ABS*	00000000 alt_close.c
00809624 l     F .text	00000048 alt_get_errno
00000000 l    df *ABS*	00000000 alt_dev.c
0080966c l     F .text	00000028 alt_dev_null_write
00000000 l    df *ABS*	00000000 alt_errno.c
00000000 l    df *ABS*	00000000 alt_fstat.c
00809768 l     F .text	00000048 alt_get_errno
00000000 l    df *ABS*	00000000 alt_isatty.c
00809870 l     F .text	00000048 alt_get_errno
00000000 l    df *ABS*	00000000 alt_load.c
00809934 l     F .text	00000068 alt_load_section
00000000 l    df *ABS*	00000000 alt_lseek.c
00809a8c l     F .text	00000048 alt_get_errno
00000000 l    df *ABS*	00000000 alt_main.c
00000000 l    df *ABS*	00000000 alt_malloc_lock.c
00000000 l    df *ABS*	00000000 alt_read.c
00809c9c l     F .text	00000048 alt_get_errno
00000000 l    df *ABS*	00000000 alt_release_fd.c
00000000 l    df *ABS*	00000000 alt_sbrk.c
008121a4 l     O .rwdata	00000004 heap_end
00000000 l    df *ABS*	00000000 alt_write.c
00809f38 l     F .text	00000048 alt_get_errno
00000000 l    df *ABS*	00000000 alt_sys_init.c
00811054 l     O .rwdata	00001060 jtag_uart_0
008120b4 l     O .rwdata	00000030 audio_and_video_config_0
008120e4 l     O .rwdata	00000030 audio
00812114 l     O .rwdata	0000002c SDCARD
0080a014 l     F .text	00000030 alt_dev_reg
00000000 l    df *ABS*	00000000 altera_avalon_jtag_uart_fd.c
00000000 l    df *ABS*	00000000 altera_avalon_jtag_uart_init.c
0080a234 l     F .text	00000220 altera_avalon_jtag_uart_irq
0080a454 l     F .text	000000c0 altera_avalon_jtag_uart_timeout
00000000 l    df *ABS*	00000000 altera_avalon_jtag_uart_ioctl.c
00000000 l    df *ABS*	00000000 altera_avalon_jtag_uart_read.c
00000000 l    df *ABS*	00000000 altera_avalon_jtag_uart_write.c
00000000 l    df *ABS*	00000000 altera_up_avalon_audio.c
00000000 l    df *ABS*	00000000 altera_up_sd_card_avalon_interface.c
00000000 l    df *ABS*	00000000 alt_alarm_start.c
00000000 l    df *ABS*	00000000 alt_dcache_flush_all.c
00000000 l    df *ABS*	00000000 alt_dev_llist_insert.c
0080f420 l     F .text	00000048 alt_get_errno
00000000 l    df *ABS*	00000000 alt_do_ctors.c
00000000 l    df *ABS*	00000000 alt_do_dtors.c
00000000 l    df *ABS*	00000000 alt_find_dev.c
00000000 l    df *ABS*	00000000 alt_icache_flush_all.c
00000000 l    df *ABS*	00000000 alt_io_redirect.c
0080f5c0 l     F .text	000000dc alt_open_fd
00000000 l    df *ABS*	00000000 alt_irq_register.c
00000000 l    df *ABS*	00000000 alt_irq_vars.c
00000000 l    df *ABS*	00000000 alt_open.c
0080f8b4 l     F .text	000000e8 alt_file_locked
0080fb24 l     F .text	00000048 alt_get_errno
00000000 l    df *ABS*	00000000 alt_tick.c
00000000 l    df *ABS*	00000000 altera_nios2_irq.c
00000000 l    df *ABS*	00000000 alt_find_file.c
00000000 l    df *ABS*	00000000 alt_get_fd.c
00000000 l    df *ABS*	00000000 atexit.c
00812204 l     O .bss	00000004 lock.0
00000000 l    df *ABS*	00000000 exit.c
00000000 l    df *ABS*	00000000 memcmp.c
00000000 l    df *ABS*	00000000 alt_exit.c
008100bc l     F .text	00000030 alt_sim_halt
008121b0 g     O .rwdata	00000004 aux_status_register
00806810 g     F .text	000000b0 _mprec_log10
00810444 g     O .rodata	00000028 __mprec_tinytens
00809ad4 g     F .text	00000070 alt_main
008094d8 g     F .text	00000050 __ashldi3
00805c48 g     F .text	00000064 _hi0bits
008127f0 g     O .bss	00000100 alt_irq
008072fc g     F .text	00000064 _lseek_r
008106f4 g       *ABS*	00000000 __flash_rwdata_start
00808a74 g     F .text	0000008c __eqdf2
0080b654 g     F .text	0000019c Check_for_Master_Boot_Record
0080ad54 g     F .text	00000074 alt_up_audio_read_fifo_avail
008129fc g       *ABS*	00000000 __alt_heap_start
0080f048 g     F .text	000001bc alt_up_sd_card_fclose
00800eac g     F .text	00000034 printf
0080adc8 g     F .text	0000006c alt_up_audio_record_r
00802c68 g     F .text	00000064 _wcrtomb_r
00806f78 g     F .text	00000078 __sseek
00804b48 g     F .text	0000009c __sinit
00805418 g     F .text	00000088 _setlocale_r
00809b60 g     F .text	0000001c __malloc_unlock
008121d4 g     O .rwdata	00000004 current_sector_modified
0080acd0 g     F .text	00000084 alt_up_audio_reset_audio_core
008057b0 g     F .text	00000108 memmove
00804b38 g     F .text	00000010 _cleanup
00805954 g     F .text	000000b0 _Balloc
0080dc70 g     F .text	000000c4 alt_up_sd_card_is_Present
0080b394 g     F .text	00000048 Save_Modified_Sector
00808b8c g     F .text	0000008c __gtdf2
00000000  w      *UND*	00000000 __errno
01080000 g     F .entry	0000000c __reset
008121cc g     O .rwdata	00000004 fat_partition_size_in_512_byte_sectors
008065e8 g     F .text	0000017c _d2b
00805d9c g     F .text	00000254 _multiply
00800000 g       *ABS*	00000000 __flash_exceptions_start
0080729c g     F .text	00000060 _fstat_r
00812200 g     O .bss	00000004 errno
00806764 g     F .text	000000ac _ratio
0080ac98 g     F .text	00000038 alt_up_audio_write_interrupt_pending
0081219c g     O .rwdata	00000004 alt_argv
0081a140 g       *ABS*	00000000 _gp
0080e1b8 g     F .text	00000378 alt_up_sd_card_fopen
0080dda4 g     F .text	000000c8 alt_up_sd_card_find_first
00805b4c g     F .text	000000fc _s2b
00805d60 g     F .text	0000003c _i2b
008121c0 g     O .rwdata	00000004 command_argument_register
008121f8 g     O .bss	00000004 buffers
00810ed4 g     O .rwdata	00000180 alt_fd_list
0080d514 g     F .text	00000118 find_first_empty_record_in_root_directory
0080f518 g     F .text	00000090 alt_find_dev
008056f4 g     F .text	000000bc memcpy
008121f4 g     O .bss	00000004 left_buffer
00804b24 g     F .text	00000014 _cleanup_r
00808d30 g     F .text	000000d0 __floatsidf
0080f69c g     F .text	00000074 alt_io_redirect
00808ca4 g     F .text	0000008c __ltdf2
0081010c g       *ABS*	00000000 __DTOR_END__
0080d144 g     F .text	000001a0 find_first_empty_cluster
0080fd08 g     F .text	0000001c altera_nios2_irq_init
0080dbb4 g     F .text	000000bc alt_up_sd_card_open_dev
0080b220 g     F .text	0000005c alt_up_audio_read_fifo_head
0080a678 g     F .text	00000234 altera_avalon_jtag_uart_read
008007cc g     F .text	00000014 malloc
00800784 g     F .text	00000010 __udivsi3
008097b0 g     F .text	000000c0 isatty
00810494 g     O .rodata	000000c8 __mprec_tens
008054a0 g     F .text	00000008 __locale_charset
00812160 g     O .rwdata	00000004 __malloc_top_pad
00812178 g     O .rwdata	00000004 __mb_cur_max
008054a8 g     F .text	0000000c _localeconv_r
0080c5b8 g     F .text	0000009c get_dir_divider_location
00800ee0 g     F .text	0000004c _sbrk_r
0080c324 g     F .text	000000a4 filename_to_upper_case
0080e530 g     F .text	00000084 alt_up_sd_card_set_attributes
008054e0 g     F .text	00000148 __smakebuf
00812150 g     O .rwdata	00000004 audio_ptr
0080b7f0 g     F .text	0000022c Read_File_Record_At_Offset
00807360 g     F .text	00000064 _read_r
00810ea0 g     O .rwdata	0000000c __lc_ctype
00812190 g     O .rwdata	00000004 alt_max_fd
0080b27c g     F .text	00000064 alt_up_audio_write_fifo_head
0080929c g     F .text	00000128 __unpack_d
0080cd50 g     F .text	000003f4 find_file_in_directory
008049e4 g     F .text	000000e8 fflush
00812158 g     O .rwdata	00000004 __malloc_max_sbrked_mem
0080f710 g     F .text	000001a4 alt_irq_register
0080dd34 g     F .text	00000070 alt_up_sd_card_is_FAT16
00808340 g     F .text	0000006c __adddf3
008079d4 g     F .text	00000650 __umoddi3
0080999c g     F .text	000000f0 lseek
00800574 g     F .text	00000114 playSound
0080c8ac g     F .text	000004a4 get_home_directory_cluster_for_file
00812144 g     O .rwdata	00000004 audio_dev_reference
008068c0 g     F .text	00000550 _realloc_r
008129fc g       *ABS*	00000000 __bss_end
0080fc08 g     F .text	00000100 alt_tick
00805cac g     F .text	000000b4 _lo0bits
008073e4 g     F .text	000005f0 __udivdi3
0081046c g     O .rodata	00000028 __mprec_bigtens
00806254 g     F .text	00000064 __mcmp
008121d8 g     O .rwdata	00000004 current_sector_index
0080ab00 g     F .text	00000038 alt_up_audio_open_dev
0080af20 g     F .text	0000006c alt_up_audio_play_r
0080fb6c g     F .text	0000009c alt_alarm_stop
0080b570 g     F .text	000000e4 mark_cluster
008121dc g     O .rwdata	00000004 alt_irq_active
010800ec g     F .exceptions	000000dc alt_irq_handler
00810eac g     O .rwdata	00000028 alt_dev_null
0080d62c g     F .text	0000015c convert_filename_to_name_extension
0080f358 g     F .text	00000018 alt_dcache_flush_all
008121ac g     O .rwdata	00000004 is_sd_card_formated_as_FAT16
00808e00 g     F .text	000000b0 __fixdfsi
0081214c g     O .rwdata	00000004 sound
0080d2e4 g     F .text	00000230 find_first_empty_record_in_a_subdirectory
008121f4 g       *ABS*	00000000 __ram_rwdata_end
00806e10 g     F .text	00000044 isinf
00812188 g     O .rwdata	00000008 alt_dev_list
00809e18 g     F .text	00000120 write
008121d0 g     O .rwdata	00000004 device_pointer
008106f4 g       *ABS*	00000000 __ram_rodata_end
00809694 g     F .text	000000d4 fstat
00808fbc g     F .text	00000050 __lshrdi3
00812174 g     O .rwdata	00000004 __nlocale_changed
00800794 g     F .text	00000010 __umodsi3
008129fc g       *ABS*	00000000 end
00805ff0 g     F .text	0000012c _pow5mult
0080a17c g     F .text	000000b8 altera_avalon_jtag_uart_init
0081010c g       *ABS*	00000000 __CTOR_LIST__
01000000 g       *ABS*	00000000 __alt_stack_pointer
0080a8ac g     F .text	00000254 altera_avalon_jtag_uart_write
00812208 g     O .bss	00000040 size_array
00805628 g     F .text	000000cc memchr
00800f84 g     F .text	00001c78 ___vfprintf_internal_r
00804d08 g     F .text	000002b8 _free_r
00802cf0 g     F .text	00000140 _wcsrtombs_r
00812170 g     O .rwdata	00000004 __mlocale_changed
0081215c g     O .rwdata	00000004 __malloc_sbrk_base
008001a8 g     F .text	0000003c _start
008121e4 g     O .rwdata	00000004 _alt_tick_rate
0080b0f8 g     F .text	00000128 alt_up_audio_write_fifo
008121e8 g     O .rwdata	00000004 _alt_nticks
00809b7c g     F .text	00000120 read
00809fb0 g     F .text	00000064 alt_sys_init
0080aff8 g     F .text	00000100 alt_up_audio_read_fifo
0080ac14 g     F .text	0000004c alt_up_audio_disable_write_interrupt
00802e30 g     F .text	0000003c wcsrtombs
0080a514 g     F .text	0000006c altera_avalon_jtag_uart_close
008007a4 g     F .text	00000028 __mulsi3
008106f4 g       *ABS*	00000000 __ram_rwdata_start
0081010c g       *ABS*	00000000 __ram_rodata_start
008106f4 g     O .rwdata	00000028 __malloc_current_mallinfo
00804fc0 g     F .text	00000384 __sfvwrite
008073c4 g     F .text	00000020 __negdi2
008121a8 g     O .rwdata	00000004 initialized
0080a044 g     F .text	00000054 altera_avalon_jtag_uart_read_fd
0080fe08 g     F .text	000000c4 alt_get_fd
00812288 g     O .bss	00000014 search_data
008093c4 g     F .text	00000114 __fpcmp_parts_d
00807240 g     F .text	0000005c _close_r
0080abcc g     F .text	00000048 alt_up_audio_enable_write_interrupt
0081004c g     F .text	00000070 memcmp
0080a0ec g     F .text	00000044 altera_avalon_jtag_uart_close_fd
008129fc g       *ABS*	00000000 __alt_stack_base
00812140 g     O .rwdata	00000004 device_reference
0080a130 g     F .text	0000004c altera_avalon_jtag_uart_ioctl_fd
00808824 g     F .text	00000250 __divdf3
0080ab80 g     F .text	0000004c alt_up_audio_disable_read_interrupt
0081229c g     O .bss	00000054 boot_sector_data
0081071c g     O .rwdata	00000408 __malloc_av_
00808424 g     F .text	00000400 __muldf3
00806e88 g     F .text	00000070 __sread
0080fd24 g     F .text	000000e4 alt_find_file
0080f370 g     F .text	000000b0 alt_dev_llist_insert
00809b44 g     F .text	0000001c __malloc_lock
00809d58 g     F .text	000000c0 sbrk
0080717c g     F .text	000000c4 _calloc_r
0080e638 g     F .text	00000084 alt_up_sd_card_get_size
008121fc g     O .bss	00000004 fifospace
008121f4 g       *ABS*	00000000 __bss_start
008058b8 g     F .text	0000009c memset
008001e4 g     F .text	00000390 main
0080aea0 g     F .text	00000080 alt_up_audio_write_fifo_space
008121a0 g     O .rwdata	00000004 alt_envp
00812154 g     O .rwdata	00000004 __malloc_max_total_mem
0080a098 g     F .text	00000054 altera_avalon_jtag_uart_write_fd
0080e5b4 g     F .text	00000084 alt_up_sd_card_get_attributes
0080643c g     F .text	00000088 _ulp
0080b2e0 g     F .text	000000b4 Write_Sector_Data
0080ea48 g     F .text	00000600 alt_up_sd_card_write
00806ff0 g     F .text	00000014 __sclose
01000000 g       *ABS*	00000000 __alt_heap_limit
008128f0 g     O .bss	0000010c _atexit0
008035f8 g     F .text	000013ec _dtoa_r
008007f4 g     F .text	000006b8 _malloc_r
00812194 g     O .rwdata	00000004 alt_errno
00805344 g     F .text	000000d4 _fwalk
008006e8 g     F .text	00000050 __divsi3
00810568 g     O .rodata	00000014 __thenan_df
00804be4 g     F .text	00000124 _malloc_trim_r
0081010c g       *ABS*	00000000 __CTOR_END__
008121b4 g     O .rwdata	00000004 status_register
00807004 g     F .text	000000b8 strcmp
008121bc g     O .rwdata	00000004 command_register
0081010c g       *ABS*	00000000 __flash_rodata_start
0081010c g       *ABS*	00000000 __DTOR_LIST__
00808b00 g     F .text	0000008c __nedf2
01080000 g       *ABS*	00000000 __alt_mem_sram_0
00809f80 g     F .text	00000030 alt_irq_init
00809ce4 g     F .text	00000074 alt_release_fd
0080b4c0 g     F .text	000000b0 get_cluster_flag
008032c0 g     F .text	0000010c __swsetup
0081057c g     O .rodata	00000100 .hidden __clz_tab
0080ba1c g     F .text	00000264 Write_File_Record_At_Offset
0081216c g     O .rwdata	00000004 _PathLocale
0080fecc g     F .text	0000009c atexit
00807118 g     F .text	00000064 _write_r
008064c4 g     F .text	00000124 _b2d
008054b4 g     F .text	0000001c setlocale
0080bc80 g     F .text	000005c4 Check_for_DOS_FAT
0080d788 g     F .text	000002f8 create_file
00812168 g     O .rwdata	00000004 _impure_ptr
008121b8 g     O .rwdata	00000004 CSD_register_w0
00812198 g     O .rwdata	00000004 alt_argc
0080f4c0 g     F .text	00000058 _do_dtors
00806e54 g     F .text	00000034 isnan
00800000 g       *ABS*	00000000 __alt_mem_sdram_0
01080020 g       .exceptions	00000000 alt_irq_entry
00812180 g     O .rwdata	00000008 alt_fs_list
0080c3c8 g     F .text	000001f0 check_file_name_for_FAT16_compliance
008121c4 g     O .rwdata	00000004 buffer_memory
0080ae34 g     F .text	0000006c alt_up_audio_record_l
01080020 g       *ABS*	00000000 __ram_exceptions_start
008054d0 g     F .text	00000010 localeconv
00805a28 g     F .text	00000124 _multadd
008121c8 g     O .rwdata	00000004 fat_partition_offset_in_512_byte_sectors
008121f4 g       *ABS*	00000000 _edata
008129fc g       *ABS*	00000000 _end
008122f0 g     O .bss	00000500 active_files
010801c8 g       *ABS*	00000000 __ram_exceptions_end
0080da80 g     F .text	00000134 copy_file_record_name_to_string
0080a580 g     F .text	000000f8 altera_avalon_jtag_uart_ioctl
0080c244 g     F .text	000000e0 Look_for_FAT16
0080af8c g     F .text	0000006c alt_up_audio_play_l
00806ef8 g     F .text	00000080 __swrite
00812164 g     O .rwdata	00000004 __malloc_trim_threshold
0080ff68 g     F .text	000000e4 exit
0080de6c g     F .text	0000034c alt_up_sd_card_find_next
008062b8 g     F .text	00000184 __mdiff
00800738 g     F .text	0000004c __modsi3
0080b3dc g     F .text	000000e4 Read_Sector_Data
01000000 g       *ABS*	00000000 __alt_data_end
01080020 g     F .exceptions	00000000 alt_exception
008100ec g     F .text	00000020 _exit
0080f204 g     F .text	00000154 alt_alarm_start
00808eb0 g     F .text	0000010c __muldi3
0080e6bc g     F .text	0000038c alt_up_sd_card_read
008070bc g     F .text	0000005c strlen
0080f99c g     F .text	00000188 open
00808c18 g     F .text	0000008c __gedf2
0080f5a8 g     F .text	00000018 alt_icache_flush_all
008121e0 g     O .rwdata	00000004 alt_priority_mask
00802bfc g     F .text	0000006c __vfprintf_internal
00802e6c g     F .text	00000454 _wctomb_r
008083ac g     F .text	00000078 __subdf3
008121ec g     O .rwdata	00000008 alt_alarm_list
0080f468 g     F .text	00000058 _do_ctors
00802ccc g     F .text	00000024 wcrtomb
00809528 g     F .text	000000fc close
008098b8 g     F .text	0000007c alt_load
0080ab38 g     F .text	00000048 alt_up_audio_enable_read_interrupt
00812248 g     O .bss	00000040 fileNames
0080900c g     F .text	00000290 __pack_d
00812148 g     O .rwdata	00000004 buffer_index
0080c654 g     F .text	00000258 match_file_record_to_name_ext
0080611c g     F .text	00000138 _lshift
008007e0 g     F .text	00000014 free
00805a04 g     F .text	00000024 _Bfree
0080ac60 g     F .text	00000038 alt_up_audio_read_interrupt_pending


Disassembly of section .entry:

01080000 <__reset>:
 * is allowed or if optimizing for RTL simulation.
 */
#if defined(ALT_ALLOW_CODE_AT_RESET) || defined(ALT_SIM_OPTIMIZE)
    /* Jump to the _start entry point in the .text section. */
    movhi r1, %hi(_start)
 1080000:	00402034 	movhi	at,128
    ori r1, r1, %lo(_start)
 1080004:	08406a14 	ori	at,at,424
    jmp r1
 1080008:	0800683a 	jmp	at
	...
Disassembly of section .exceptions:

01080020 <alt_exception>:
         * caller saved registers on the stack (See the Nios2 ABI
         * documentation for details).
         */

        addi  sp, sp, -76
 1080020:	deffed04 	addi	sp,sp,-76

#ifdef ALT_STACK_CHECK

        bltu  sp, et, .Lstack_overflow

#endif

#endif

        stw   ra,  0(sp)
 1080024:	dfc00015 	stw	ra,0(sp)

        /*
         * Leave a gap in the stack frame at 4(sp) for the muldiv handler to
         * store zero into.
         */

        stw   r1,   8(sp)
 1080028:	d8400215 	stw	at,8(sp)
        stw   r2,  12(sp)
 108002c:	d8800315 	stw	r2,12(sp)
        stw   r3,  16(sp)
 1080030:	d8c00415 	stw	r3,16(sp)
        stw   r4,  20(sp)
 1080034:	d9000515 	stw	r4,20(sp)
        stw   r5,  24(sp)
 1080038:	d9400615 	stw	r5,24(sp)
        stw   r6,  28(sp)
 108003c:	d9800715 	stw	r6,28(sp)
        stw   r7,  32(sp)
 1080040:	d9c00815 	stw	r7,32(sp)

        rdctl r5, estatus
 1080044:	000b307a 	rdctl	r5,estatus

        stw   r8,  36(sp)
 1080048:	da000915 	stw	r8,36(sp)
        stw   r9,  40(sp)
 108004c:	da400a15 	stw	r9,40(sp)
        stw   r10, 44(sp)
 1080050:	da800b15 	stw	r10,44(sp)
        stw   r11, 48(sp)
 1080054:	dac00c15 	stw	r11,48(sp)
        stw   r12, 52(sp)
 1080058:	db000d15 	stw	r12,52(sp)
        stw   r13, 56(sp)
 108005c:	db400e15 	stw	r13,56(sp)
        stw   r14, 60(sp)
 1080060:	db800f15 	stw	r14,60(sp)
        stw   r15, 64(sp)
 1080064:	dbc01015 	stw	r15,64(sp)

        /*
         * ea-4 contains the address of the instruction being executed
         * when the exception occured. For interrupt exceptions, we will
         * will be re-issue the isntruction. Store it in 72(sp)
         */
        stw   r5,  68(sp)  /* estatus */
 1080068:	d9401115 	stw	r5,68(sp)
        addi  r15, ea, -4  /* instruction that caused exception */
 108006c:	ebffff04 	addi	r15,ea,-4
        stw   r15,  72(sp)
 1080070:	dbc01215 	stw	r15,72(sp)
        /*
         * Test to see if the exception was a software exception or caused 
         * by an external interrupt, and vector accordingly.
         */
        rdctl r4, ipending
 1080074:	0009313a 	rdctl	r4,ipending
        andi  r2, r5, 1
 1080078:	2880004c 	andi	r2,r5,1
        beq   r2, zero, .Lnot_irq
 108007c:	10000326 	beq	r2,zero,108008c <__ram_exceptions_start+0x6c>
        beq   r4, zero, .Lnot_irq
 1080080:	20000226 	beq	r4,zero,108008c <__ram_exceptions_start+0x6c>
#endif /* ALT_CI_INTERRUPT_VECTOR_N */

        .section .exceptions.irqhandler, "xa"
        /*
         * Now that all necessary registers have been preserved, call 
         * alt_irq_handler() to process the interrupts.
         */

        call alt_irq_handler
 1080084:	10800ec0 	call	10800ec <alt_irq_handler>

        .section .exceptions.irqreturn, "xa"

        br    .Lexception_exit
 1080088:	00000306 	br	1080098 <__ram_exceptions_start+0x78>

        /*
         * The interrupt testing code (.exceptions.irqtest) will be
         * linked here here. If an interrupt is active, it calls the HAL
         * IRQ handler (alt_irq_handler()) which successively calls
         * registered interrupt handler(s) until no interrupts remain
         * pending. It then jumps to .exceptions.exit. If there is no
         * interrupt then it continues to .exception.notirq, below.
         */

        .section .exceptions.notirq, "xa"

        /*
         * Prepare to service unimplemtned instructions or traps,
         * each of which is optionally inked into section .exceptions.soft,
         * which will preceed .exceptions.unknown below.
         *
         * Unlike interrupts, we want to skip the exception-causing instructon
         * upon completion, so we write ea (address of instruction *after*
         * the one where the exception occured) into 72(sp). The actual
         * instruction that caused the exception is written in r2, which these
         * handlers will utilize.
         */
        stw   ea,  72(sp)  /* Don't re-issue */
 108008c:	df401215 	stw	ea,72(sp)
        ldw   r2, -4(ea)   /* Instruction that caused exception */
 1080090:	e8bfff17 	ldw	r2,-4(ea)

        /*
         * Other exception handling code, if enabled, will be linked here.
         * This includes unimplemted (multiply/divide) instruction support
         * (a BSP generaton option), and a trap handler (that would typically
         * be augmented with user-specific code). These are not linked in by
         * default.
         */

        /*
         * In the context of linker sections, "unknown" are all exceptions
         * not handled by the built-in handlers above (interupt, and trap or
         * unimplemented instruction decoding, if enabled).
         *
         * Advanced exception types can be serviced by registering a handler.
         * To do so, enable the "Enable Instruction-related Exception API" HAL
         * BSP setting. If this setting is disabled, this handler code will
         * either break (if the debug core is present) or enter an infinite
         * loop because we don't how how to handle the exception.
         */
        .section .exceptions.unknown
#ifdef ALT_INCLUDE_INSTRUCTION_RELATED_EXCEPTION_API
        /*
         * The C-based HAL routine alt_instruction_exception_entry() will
         * attempt to service the exception by calling a user-registered
         * exception handler using alt_instruction_exception_register().
         * If no handler was registered it will either break (if the
         * debugger is present) or go into an infinite loop since the
         * handling behavior is undefined; in that case we will not return here.
         */

        /* Load exception-causing address as first argument (r4) */
        addi   r4, ea, -4

        /* Call the instruction-exception entry */
        call   alt_instruction_exception_entry

        /*
         * If alt_instruction_exception_entry() returned, the exception was
         * serviced by a user-registered routine. Its return code (now in r2)
         * indicates whether to re-issue or skip the exception-causing
         * instruction
         *
         * Return code was 0: Skip. The instruction after the exception is
         * already stored in 72(sp).
         */
        bne   r2, r0, .Lexception_exit

        /*
         * Otherwise, modify 72(sp) to re-issue the instruction that caused the
         * exception.
         */
        addi  r15, ea, -4  /* instruction that caused exception */
        stw   r15,  72(sp)

#else /* ALT_INCLUDE_INSTRUCTION_RELATED_EXCEPTION_API disabled */

        /*
         * We got here because an instruction-related exception occured, but the
         * handler API was not compiled in. We do not presume to know how to
         * handle it. If the debugger is present, break, otherwise hang.
         *
         *  If you get here then one of the following could have happened:
         *
         *  - An instruction-generated exception occured, and the processor
         *    does not have the extra exceptions feature enabled, or you
         *    have not registered a handler using
         *    alt_instruction_exception_register()
         *
         *  Some examples of instruction-generated exceptions and why they
         *  might occur:
         *
         *  - Your program could have been compiled for a full-featured
         *    Nios II core, but it is running on a smaller core, and
         *    instruction emulation has been disabled by defining
         *    ALT_NO_INSTRUCTION_EMULATION.
         *
         *    You can work around the problem by re-enabling instruction
         *    emulation, or you can figure out why your program is being
         *    compiled for a system other than the one that it is running on.
         *
         *  - Your program has executed a trap instruction, but has not
         *    implemented a handler for this instruction.
         *
         *  - Your program has executed an illegal instruction (one which is
         *    not defined in the instruction set).
         *
         *  - Your processor includes an MMU or MPU, and you have enabled it
         *    before registering an exception handler to service exceptions it
         *    generates.
         *
         * The problem could also be hardware related:
         *  - If your hardware is broken and is generating spurious interrupts
         *    (a peripheral which negates its interrupt output before its
         *    interrupt handler has been executed will cause spurious
         *    interrupts)
         */
#ifdef NIOS2_HAS_DEBUG_STUB
       /*
        *  Either tell the user now (if there is a debugger attached) or go into
        *  the debug monitor which will loop until a debugger is attached.
        */
        break
 1080094:	003da03a 	break	0
#else
       /*
        *  If there is no debug stub then a BREAK will probably cause a reboot.
        *  An infinate loop will probably be more useful.
        */
0:
        br   0b
#endif /* NIOS2_HAS_DEBUG_STUB */

#endif /* ALT_INCLUDE_INSTRUCTION_RELATED_EXCEPTION_API */

        .section .exceptions.exit.label
.Lexception_exit:

        .section .exceptions.exit, "xa"

        /* 
         * Restore the saved registers, so that all general purpose registers 
         * have been restored to their state at the time the interrupt occured.
         */

        ldw   r5,  68(sp)
 1080098:	d9401117 	ldw	r5,68(sp)
        ldw   ea,  72(sp)  /* This becomes the PC once eret is executed */
 108009c:	df401217 	ldw	ea,72(sp)
        ldw   ra,   0(sp)
 10800a0:	dfc00017 	ldw	ra,0(sp)

        wrctl estatus, r5
 10800a4:	2801707a 	wrctl	estatus,r5

        ldw   r1,   8(sp)
 10800a8:	d8400217 	ldw	at,8(sp)
        ldw   r2,  12(sp)
 10800ac:	d8800317 	ldw	r2,12(sp)
        ldw   r3,  16(sp)
 10800b0:	d8c00417 	ldw	r3,16(sp)
        ldw   r4,  20(sp)
 10800b4:	d9000517 	ldw	r4,20(sp)
        ldw   r5,  24(sp)
 10800b8:	d9400617 	ldw	r5,24(sp)
        ldw   r6,  28(sp)
 10800bc:	d9800717 	ldw	r6,28(sp)
        ldw   r7,  32(sp)
 10800c0:	d9c00817 	ldw	r7,32(sp)

#ifdef ALT_EXCEPTION_STACK
#ifdef ALT_STACK_CHECK
        ldw   et, %gprel(alt_exception_old_stack_limit)(gp)
#endif
#endif

        ldw   r8,  36(sp)
 10800c4:	da000917 	ldw	r8,36(sp)
        ldw   r9,  40(sp)
 10800c8:	da400a17 	ldw	r9,40(sp)
        ldw   r10, 44(sp)
 10800cc:	da800b17 	ldw	r10,44(sp)
        ldw   r11, 48(sp)
 10800d0:	dac00c17 	ldw	r11,48(sp)
        ldw   r12, 52(sp)
 10800d4:	db000d17 	ldw	r12,52(sp)
        ldw   r13, 56(sp)
 10800d8:	db400e17 	ldw	r13,56(sp)
        ldw   r14, 60(sp)
 10800dc:	db800f17 	ldw	r14,60(sp)
        ldw   r15, 64(sp)
 10800e0:	dbc01017 	ldw	r15,64(sp)

#ifdef ALT_EXCEPTION_STACK

#ifdef ALT_STACK_CHECK
        stw   et, %gprel(alt_stack_limit_value)(gp)
        stw   zero, %gprel(alt_exception_old_stack_limit)(gp)
#endif

        ldw   sp,  76(sp)

#else
        addi  sp, sp, 76
 10800e4:	dec01304 	addi	sp,sp,76

#endif

        /*
         * Return to the interrupted instruction.
         */

        eret
 10800e8:	ef80083a 	eret

010800ec <alt_irq_handler>:
 */

void alt_irq_handler (void) __attribute__ ((section (".exceptions")));
void alt_irq_handler (void)
{
 10800ec:	defff904 	addi	sp,sp,-28
 10800f0:	dfc00615 	stw	ra,24(sp)
 10800f4:	df000515 	stw	fp,20(sp)
 10800f8:	df000504 	addi	fp,sp,20
 10800fc:	0005313a 	rdctl	r2,ipending
 1080100:	e0bfff15 	stw	r2,-4(fp)
 1080104:	e0bfff17 	ldw	r2,-4(fp)
 1080108:	e0bffe15 	stw	r2,-8(fp)
 108010c:	e0bffe17 	ldw	r2,-8(fp)
 1080110:	e0bffb15 	stw	r2,-20(fp)
#ifdef ALT_CI_INTERRUPT_VECTOR
  alt_32 offset;
  char*  alt_irq_base = (char*)alt_irq;
#else
  alt_u32 active;
  alt_u32 mask;
  alt_u32 i;
#endif /* ALT_CI_INTERRUPT_VECTOR */
  
  /*
   * Notify the operating system that we are at interrupt level.
   */ 
  
  ALT_OS_INT_ENTER();

#ifdef ALT_CI_INTERRUPT_VECTOR
  /*
   * Call the interrupt vector custom instruction using the 
   * ALT_CI_INTERRUPT_VECTOR macro.
   * It returns the offset into the vector table of the lowest-valued pending
   * interrupt (corresponds to highest priority) or a negative value if none.
   * The custom instruction assumes that each table entry is eight bytes.
   */
  while ((offset = ALT_CI_INTERRUPT_VECTOR) >= 0) {
    struct ALT_IRQ_HANDLER* handler_entry = 
      (struct ALT_IRQ_HANDLER*)(alt_irq_base + offset);
#ifdef ALT_ENHANCED_INTERRUPT_API_PRESENT
    handler_entry->handler(handler_entry->context);
#else
    handler_entry->handler(handler_entry->context, offset >> 3);
#endif
  }
#else /* ALT_CI_INTERRUPT_VECTOR */
  /* 
   * Obtain from the interrupt controller a bit list of pending interrupts,
   * and then process the highest priority interrupt. This process loops, 
   * loading the active interrupt list on each pass until alt_irq_pending() 
   * return zero.
   * 
   * The maximum interrupt latency for the highest priority interrupt is
   * reduced by finding out which interrupts are pending as late as possible.
   * Consider the case where the high priority interupt is asserted during
   * the interrupt entry sequence for a lower priority interrupt to see why
   * this is the case.
   */

  active = alt_irq_pending ();

  do
  {
    i = 0;
 1080114:	e03ffd15 	stw	zero,-12(fp)
    mask = 1;
 1080118:	00800044 	movi	r2,1
 108011c:	e0bffc15 	stw	r2,-16(fp)

    /*
     * Test each bit in turn looking for an active interrupt. Once one is 
     * found, the interrupt handler asigned by a call to alt_irq_register() is
     * called to clear the interrupt condition.
     */

    do
    {
      if (active & mask)
 1080120:	e0fffb17 	ldw	r3,-20(fp)
 1080124:	e0bffc17 	ldw	r2,-16(fp)
 1080128:	1884703a 	and	r2,r3,r2
 108012c:	1005003a 	cmpeq	r2,r2,zero
 1080130:	1000101e 	bne	r2,zero,1080174 <alt_irq_handler+0x88>
      { 
#ifdef ALT_ENHANCED_INTERRUPT_API_PRESENT
        alt_irq[i].handler(alt_irq[i].context); 
#else
        alt_irq[i].handler(alt_irq[i].context, i); 
 1080134:	00c02074 	movhi	r3,129
 1080138:	18c9fc04 	addi	r3,r3,10224
 108013c:	e0bffd17 	ldw	r2,-12(fp)
 1080140:	100490fa 	slli	r2,r2,3
 1080144:	10c9883a 	add	r4,r2,r3
 1080148:	00c02074 	movhi	r3,129
 108014c:	18c9fc04 	addi	r3,r3,10224
 1080150:	e0bffd17 	ldw	r2,-12(fp)
 1080154:	100490fa 	slli	r2,r2,3
 1080158:	10c5883a 	add	r2,r2,r3
 108015c:	10800104 	addi	r2,r2,4
 1080160:	20c00017 	ldw	r3,0(r4)
 1080164:	11000017 	ldw	r4,0(r2)
 1080168:	e17ffd17 	ldw	r5,-12(fp)
 108016c:	183ee83a 	callr	r3
#endif
        break;
 1080170:	00000706 	br	1080190 <alt_irq_handler+0xa4>
      }
      mask <<= 1;
 1080174:	e0bffc17 	ldw	r2,-16(fp)
 1080178:	1085883a 	add	r2,r2,r2
 108017c:	e0bffc15 	stw	r2,-16(fp)
      i++;
 1080180:	e0bffd17 	ldw	r2,-12(fp)
 1080184:	10800044 	addi	r2,r2,1
 1080188:	e0bffd15 	stw	r2,-12(fp)

    } while (1);
 108018c:	003fe406 	br	1080120 <alt_irq_handler+0x34>
 1080190:	0005313a 	rdctl	r2,ipending
 1080194:	e0bffe15 	stw	r2,-8(fp)
 1080198:	e0bffe17 	ldw	r2,-8(fp)
 108019c:	e0bfff15 	stw	r2,-4(fp)
 10801a0:	e0bfff17 	ldw	r2,-4(fp)
 10801a4:	e0bffb15 	stw	r2,-20(fp)

    active = alt_irq_pending ();
    
  } while (active);
 10801a8:	e0bffb17 	ldw	r2,-20(fp)
 10801ac:	1005003a 	cmpeq	r2,r2,zero
 10801b0:	1000011e 	bne	r2,zero,10801b8 <alt_irq_handler+0xcc>
 10801b4:	003fd706 	br	1080114 <alt_irq_handler+0x28>
#endif /* ALT_CI_INTERRUPT_VECTOR */

  /*
   * Notify the operating system that interrupt processing is complete.
   */ 

  ALT_OS_INT_EXIT();
}
 10801b8:	dfc00617 	ldw	ra,24(sp)
 10801bc:	df000517 	ldw	fp,20(sp)
 10801c0:	dec00704 	addi	sp,sp,28
 10801c4:	f800283a 	ret
Disassembly of section .text:

008001a8 <_start>:

    .size __reset, . - __reset
#endif /* Jump to _start */

/*
 * When not using exit, provide an _exit symbol to prevent unresolved
 * references to _exit from the linker script.
 */
#ifdef ALT_NO_EXIT
    .globl _exit
_exit:
#endif

/*************************************************************************\
|                          TEXT SECTION (.text)                           |
\*************************************************************************/

/*
 * Start of the .text section, and also the code entry point when
 * the code is executed by a bootloader rather than directly from reset.
 */
    .section .text
    .align 2

    .globl _start
    .type _start, @function
_start:

/*
 * Initialize the data cache if present (i.e. size > 0) and not
 * optimizing for RTL simulation.
 * RTL simulations can ensure the data cache is already initialized
 * so skipping this loop speeds up RTL simulation.
 */

#if NIOS2_DCACHE_SIZE > 0 && !defined(ALT_SIM_OPTIMIZE)

    /* Assume the data cache size is always a power of two. */
#if NIOS2_DCACHE_SIZE > 0x8000
    movhi r2, %hi(NIOS2_DCACHE_SIZE)
#else
    movui r2, NIOS2_DCACHE_SIZE
#endif

0:
    initd 0(r2)
    addi r2, r2, -NIOS2_DCACHE_LINE_SIZE
    bgt r2, zero, 0b
1:

    /*
     * The following debug information tells the ISS not to run the loop above
     * but to perform its actions using faster internal code.
     */
    .pushsection .debug_alt_sim_info
    .int 2, 1, 0b, 1b
    .popsection

#endif /* Initialize Data Cache */

    /* Log that caches have been initialized. */
    ALT_LOG_PUTS(alt_log_msg_cache)

    /* Log that the stack pointer is about to be setup. */
    ALT_LOG_PUTS(alt_log_msg_stackpointer)

#if (NIOS2_NUM_OF_SHADOW_REG_SETS == 0)    
    /*
     * Now that the caches are initialized, set up the stack pointer.
     * The value provided by the linker is assumed to be correctly aligned.
     */
    movhi sp, %hi(__alt_stack_pointer)
  8001a8:	06c04034 	movhi	sp,256
    ori sp, sp, %lo(__alt_stack_pointer)
  8001ac:	dec00014 	ori	sp,sp,0

    /* Set up the global pointer. */
    movhi gp, %hi(_gp)
  8001b0:	06802074 	movhi	gp,129
    ori gp, gp, %lo(_gp)
  8001b4:	d6a85014 	ori	gp,gp,41280

#else /* NIOS2_NUM_OF_SHADOW_REG_SETS > 0 */

    /*
     * Set up the GP and SP in all shadow register sets.
     */

    /* 
     * Check current register set number, if CPU resets into a shadow register 
     * set, switch register set to 0 by writing zero to SSTATUS register and 
     * execute an ERET instruction that just jumps to the next PC address 
     * (use the NEXTPC instruction to get this).
     */
    
    rdctl r2, status
    
    /* Get the current register set number (STATUS.CRS). */
    andi r3, r2, NIOS2_STATUS_CRS_MSK
    
    /* Skip switch register set if STATUS.CRS is 0.  */
    beq r3, zero, .Lskip_switch_reg_set
    
    .set nobreak
    
    /* Current register set is non-zero, set SSTATUS to 0. */
    mov sstatus, zero
    
    /* Get next pc and store in ea. */
    nextpc ea
    
    /* Point to instruction after eret. */
    addi ea, ea, 8
    
    /* 
     * Execute ERET instruction that just jumps to the next PC address 
     */
    eret
    
.Lskip_switch_reg_set:    
    mov r2, zero
    
    /* Reset STATUS register */
    wrctl status, r2

    movui r3, NIOS2_NUM_OF_SHADOW_REG_SETS
    
    /* Set up the stack pointer in register set 0. */
    movhi sp, %hi(__alt_stack_pointer)
    ori sp, sp, %lo(__alt_stack_pointer)
    
    /* Set up the global pointer in register set 0. */
    movhi gp, %hi(_gp)
    ori gp, gp, %lo(_gp)     

.Lsetup_sp_and_gp_loop:
    /* 
     * Setup GP and SP for shadow register set 
     * from NIOS2_NUM_OF_SHADOW_REG_SETS to 0
     */

    /* Skip if number of register sets is 0. */
    beq r3, zero, .Lno_shadow_register_set


    /* Add previous register set STATUS.PRS by 1 */
    movhi r4, 1
    add r2, r2, r4

    /* Write STATUS */
    wrctl status, r2

    /* Clear r0 in the shadow register set (not done by hardware) */
    wrprs r0, r0

    /* Write the GP in previous register set */
    wrprs gp, gp

    /* Only write the SP in previous register set
     * if using the seperate exception stack. For normal case (single stack),
     * funnel code would read the SP from previous register set.
     */
#ifdef ALT_INTERRUPT_STACK

    movhi et, %hiadj(__alt_interrupt_stack_pointer)
    addi  et, et, %lo(__alt_interrupt_stack_pointer)
    wrprs sp, et

#endif /* ALT_INTERRUPT_STACK */

    /* Decrease number of register set counter by 1 */
    addi r3, r3, -1

    br .Lsetup_sp_and_gp_loop
.Lno_shadow_register_set:

#endif /* NIOS2_NUM_OF_SHADOW_REG_SETS */
/*
 * Clear the BSS if not optimizing for RTL simulation.
 *
 * This uses the symbols: __bss_start and __bss_end, which are defined
 * by the linker script. They mark the begining and the end of the bss
 * region. The linker script guarantees that these values are word aligned.
 */
#ifndef ALT_SIM_OPTIMIZE
    /* Log that the BSS is about to be cleared. */
    ALT_LOG_PUTS(alt_log_msg_bss)

    movhi r2, %hi(__bss_start)
  8001b8:	00802074 	movhi	r2,129
    ori r2, r2, %lo(__bss_start)
  8001bc:	10887d14 	ori	r2,r2,8692

    movhi r3, %hi(__bss_end)
  8001c0:	00c02074 	movhi	r3,129
    ori r3, r3, %lo(__bss_end)
  8001c4:	18ca7f14 	ori	r3,r3,10748

    beq r2, r3, 1f
  8001c8:	10c00326 	beq	r2,r3,8001d8 <_start+0x30>

0:
    stw zero, (r2)
  8001cc:	10000015 	stw	zero,0(r2)
    addi r2, r2, 4
  8001d0:	10800104 	addi	r2,r2,4
    bltu r2, r3, 0b
  8001d4:	10fffd36 	bltu	r2,r3,8001cc <_start+0x24>

1:

    /*
     * The following debug information tells the ISS not to run the loop above
     * but to perform its actions using faster internal code.
     */
    .pushsection .debug_alt_sim_info
    .int 3, 1, 0b, 1b
    .popsection
#endif /* ALT_SIM_OPTIMIZE */

/*
 * The alt_load() facility is normally used when there is no bootloader.
 * It copies some sections into RAM so it acts like a mini-bootloader.
 */
#ifdef CALL_ALT_LOAD

#ifdef ALT_STACK_CHECK
    /*
     * If the user has selected stack checking then we need to set up a safe
     * value in the stack limit register so that the relocation functions
     * don't think the stack has overflowed (the contents of the rwdata
     * section aren't defined until alt_load() has been called).
     */
    mov   et, zero
#endif

    call alt_load
  8001d8:	08098b80 	call	8098b8 <alt_load>

#endif /* CALL_ALT_LOAD */

#ifdef ALT_STACK_CHECK
    /*
     * Set up the stack limit (if required).  The linker has set up the
     * copy of the variable which is in memory.
     */

    ldw   et, %gprel(alt_stack_limit_value)(gp)
#endif

    /* Log that alt_main is about to be called. */
    ALT_LOG_PUTS(alt_log_msg_alt_main)

    /* Call the C entry point. It should never return. */
    call alt_main
  8001dc:	0809ad40 	call	809ad4 <alt_main>

008001e0 <alt_after_alt_main>:

    /* Wait in infinite loop in case alt_main does return. */
alt_after_alt_main:
    br alt_after_alt_main
  8001e0:	003fff06 	br	8001e0 <alt_after_alt_main>

008001e4 <main>:
volatile int * audio_ptr = (int *) AUDIO_BASE;
unsigned int fifospace;


int main() {
  8001e4:	defff604 	addi	sp,sp,-40
  8001e8:	dfc00915 	stw	ra,36(sp)
  8001ec:	df000815 	stw	fp,32(sp)
  8001f0:	dc000715 	stw	r16,28(sp)
  8001f4:	df000804 	addi	fp,sp,32

	// these are the varibles that are used in the main loop
	short int file_handle = 1;
  8001f8:	00800044 	movi	r2,1
  8001fc:	e0bff80d 	sth	r2,-32(fp)
	BYTE file_data1;
	BYTE file_data2;
	BYTE file_data3;
	unsigned int  file_data =0;
  800200:	e03ffa15 	stw	zero,-24(fp)
	volatile int * sound_id_ptr = (int *) SOUNDS_IDS_BASE;
  800204:	e03ffb15 	stw	zero,-20(fp)
	volatile int * sound_start_ptr = (int *) START_SOUND_BASE;
  800208:	00804004 	movi	r2,256
  80020c:	e0bffc15 	stw	r2,-16(fp)
	buffers = malloc(NUM_OF_FILES * sizeof(UINT16 *));
  800210:	01001004 	movi	r4,64
  800214:	08007cc0 	call	8007cc <malloc>
  800218:	d0a02e15 	stw	r2,-32584(gp)
	int i;

	//set the file names up so that they can be referenced
	fileNames[0]="notokens.raw";
  80021c:	00c02074 	movhi	r3,129
  800220:	18c89204 	addi	r3,r3,8776
  800224:	00802074 	movhi	r2,129
  800228:	10804304 	addi	r2,r2,268
  80022c:	18800015 	stw	r2,0(r3)
	fileNames[1]="COLLECT.raw";
  800230:	00c02074 	movhi	r3,129
  800234:	18c89204 	addi	r3,r3,8776
  800238:	00802074 	movhi	r2,129
  80023c:	10804704 	addi	r2,r2,284
  800240:	18800115 	stw	r2,4(r3)
	fileNames[2]="error.raw";
  800244:	00c02074 	movhi	r3,129
  800248:	18c89204 	addi	r3,r3,8776
  80024c:	00802074 	movhi	r2,129
  800250:	10804a04 	addi	r2,r2,296
  800254:	18800215 	stw	r2,8(r3)
	fileNames[3]="insert.raw";
  800258:	00c02074 	movhi	r3,129
  80025c:	18c89204 	addi	r3,r3,8776
  800260:	00802074 	movhi	r2,129
  800264:	10804d04 	addi	r2,r2,308
  800268:	18800315 	stw	r2,12(r3)
	fileNames[4]="niceday.raw";
  80026c:	00c02074 	movhi	r3,129
  800270:	18c89204 	addi	r3,r3,8776
  800274:	00802074 	movhi	r2,129
  800278:	10805004 	addi	r2,r2,320
  80027c:	18800415 	stw	r2,16(r3)
	fileNames[5]="outofsrv.raw";
  800280:	00c02074 	movhi	r3,129
  800284:	18c89204 	addi	r3,r3,8776
  800288:	00802074 	movhi	r2,129
  80028c:	10805304 	addi	r2,r2,332
  800290:	18800515 	stw	r2,20(r3)
	fileNames[6]="thnkyou.raw";
  800294:	00c02074 	movhi	r3,129
  800298:	18c89204 	addi	r3,r3,8776
  80029c:	00802074 	movhi	r2,129
  8002a0:	10805704 	addi	r2,r2,348
  8002a4:	18800615 	stw	r2,24(r3)
	fileNames[7]="wait.raw";
  8002a8:	00c02074 	movhi	r3,129
  8002ac:	18c89204 	addi	r3,r3,8776
  8002b0:	00802074 	movhi	r2,129
  8002b4:	10805a04 	addi	r2,r2,360
  8002b8:	18800715 	stw	r2,28(r3)
	fileNames[8]="wait.raw";
  8002bc:	00c02074 	movhi	r3,129
  8002c0:	18c89204 	addi	r3,r3,8776
  8002c4:	00802074 	movhi	r2,129
  8002c8:	10805a04 	addi	r2,r2,360
  8002cc:	18800815 	stw	r2,32(r3)
	fileNames[9]="COLLECT.raw";
  8002d0:	00c02074 	movhi	r3,129
  8002d4:	18c89204 	addi	r3,r3,8776
  8002d8:	00802074 	movhi	r2,129
  8002dc:	10804704 	addi	r2,r2,284
  8002e0:	18800915 	stw	r2,36(r3)
	fileNames[10]="error.raw";
  8002e4:	00c02074 	movhi	r3,129
  8002e8:	18c89204 	addi	r3,r3,8776
  8002ec:	00802074 	movhi	r2,129
  8002f0:	10804a04 	addi	r2,r2,296
  8002f4:	18800a15 	stw	r2,40(r3)
	fileNames[11]="collect.raw";
  8002f8:	00c02074 	movhi	r3,129
  8002fc:	18c89204 	addi	r3,r3,8776
  800300:	00802074 	movhi	r2,129
  800304:	10805d04 	addi	r2,r2,372
  800308:	18800b15 	stw	r2,44(r3)
	fileNames[12]="wait.raw";
  80030c:	00c02074 	movhi	r3,129
  800310:	18c89204 	addi	r3,r3,8776
  800314:	00802074 	movhi	r2,129
  800318:	10805a04 	addi	r2,r2,360
  80031c:	18800c15 	stw	r2,48(r3)
	fileNames[13]="wait.raw";
  800320:	00c02074 	movhi	r3,129
  800324:	18c89204 	addi	r3,r3,8776
  800328:	00802074 	movhi	r2,129
  80032c:	10805a04 	addi	r2,r2,360
  800330:	18800d15 	stw	r2,52(r3)
	fileNames[14]="wait.raw";
  800334:	00c02074 	movhi	r3,129
  800338:	18c89204 	addi	r3,r3,8776
  80033c:	00802074 	movhi	r2,129
  800340:	10805a04 	addi	r2,r2,360
  800344:	18800e15 	stw	r2,56(r3)
	fileNames[15]="wait.raw";
  800348:	00c02074 	movhi	r3,129
  80034c:	18c89204 	addi	r3,r3,8776
  800350:	00802074 	movhi	r2,129
  800354:	10805a04 	addi	r2,r2,360
  800358:	18800f15 	stw	r2,60(r3)
	//printf("hi there sexy.\n");

	//set up the device references to the audio and the sdcard names as defined in the SOPC
	device_reference = alt_up_sd_card_open_dev("/dev/SDCARD");
  80035c:	01002074 	movhi	r4,129
  800360:	21006004 	addi	r4,r4,384
  800364:	080dbb40 	call	80dbb4 <alt_up_sd_card_open_dev>
  800368:	d0a00015 	stw	r2,-32768(gp)
	audio_dev_reference = alt_up_audio_open_dev("/dev/audio");
  80036c:	01002074 	movhi	r4,129
  800370:	21006304 	addi	r4,r4,396
  800374:	080ab000 	call	80ab00 <alt_up_audio_open_dev>
  800378:	d0a00115 	stw	r2,-32764(gp)

	if (device_reference != NULL) {			//if the sdcard reference has not failed go into the loop
  80037c:	d0a00017 	ldw	r2,-32768(gp)
  800380:	1005003a 	cmpeq	r2,r2,zero
  800384:	1000621e 	bne	r2,zero,800510 <main+0x32c>
		if (alt_up_sd_card_is_Present()) {	//check a card is present before trying to load it
  800388:	080dc700 	call	80dc70 <alt_up_sd_card_is_Present>
  80038c:	1005003a 	cmpeq	r2,r2,zero
  800390:	10005e1e 	bne	r2,zero,80050c <main+0x328>
			//printf("Card connected.\n");
			if (alt_up_sd_card_is_FAT16()) { //check the file format is fat16 as this is what we can read
  800394:	080dd340 	call	80dd34 <alt_up_sd_card_is_FAT16>
  800398:	1005003a 	cmpeq	r2,r2,zero
  80039c:	10005c1e 	bne	r2,zero,800510 <main+0x32c>
				//printf("FAT16 file system detected.\n");
				for (i =0; i < NUM_OF_FILES;i++)	//load the number of files as defined earlier
  8003a0:	e03ffd15 	stw	zero,-12(fp)
  8003a4:	e0bffd17 	ldw	r2,-12(fp)
  8003a8:	10800408 	cmpgei	r2,r2,16
  8003ac:	1000581e 	bne	r2,zero,800510 <main+0x32c>
				{
					file_handle = alt_up_sd_card_fopen(fileNames[i], false); //load the file as specifed depending on the iteration if not there do not create
  8003b0:	00c02074 	movhi	r3,129
  8003b4:	18c89204 	addi	r3,r3,8776
  8003b8:	e0bffd17 	ldw	r2,-12(fp)
  8003bc:	100490ba 	slli	r2,r2,2
  8003c0:	10c5883a 	add	r2,r2,r3
  8003c4:	11000017 	ldw	r4,0(r2)
  8003c8:	000b883a 	mov	r5,zero
  8003cc:	080e1b80 	call	80e1b8 <alt_up_sd_card_fopen>
  8003d0:	e0bff80d 	sth	r2,-32(fp)
					int size = alt_up_sd_card_get_size(file_handle);		//get the size in bytes of the file
  8003d4:	e13ff80f 	ldh	r4,-32(fp)
  8003d8:	080e6380 	call	80e638 <alt_up_sd_card_get_size>
  8003dc:	e0bffe15 	stw	r2,-8(fp)
					size_array[i]= (size/3);								//put the number samples needed into an array. to get sample mutiple the bytes to bits so times 8 then divide by 24 to get number of samples this simplfies to divide by 3
  8003e0:	00c02074 	movhi	r3,129
  8003e4:	18c88204 	addi	r3,r3,8712
  8003e8:	e0bffd17 	ldw	r2,-12(fp)
  8003ec:	100490ba 	slli	r2,r2,2
  8003f0:	10e1883a 	add	r16,r2,r3
  8003f4:	e13ffe17 	ldw	r4,-8(fp)
  8003f8:	014000c4 	movi	r5,3
  8003fc:	08006e80 	call	8006e8 <__divsi3>
  800400:	80800015 	stw	r2,0(r16)
					//printf("size, %d.\n", size);
					printf("file handle= %d.\n",file_handle);
  800404:	e17ff80f 	ldh	r5,-32(fp)
  800408:	01002074 	movhi	r4,129
  80040c:	21006604 	addi	r4,r4,408
  800410:	0800eac0 	call	800eac <printf>
					fifospace = *(audio_ptr + 1);	 		// read the audio port fifospace register
  800414:	d0a00417 	ldw	r2,-32752(gp)
  800418:	10800104 	addi	r2,r2,4
  80041c:	10800017 	ldw	r2,0(r2)
  800420:	d0a02f15 	stw	r2,-32580(gp)
					buffers[i] = malloc((size*2));			//set the buffer to point to memory location, doubled due to issue with malloc
  800424:	e0bffd17 	ldw	r2,-12(fp)
  800428:	100690ba 	slli	r3,r2,2
  80042c:	d0a02e17 	ldw	r2,-32584(gp)
  800430:	18a1883a 	add	r16,r3,r2
  800434:	e0fffe17 	ldw	r3,-8(fp)
  800438:	1805883a 	mov	r2,r3
  80043c:	10c9883a 	add	r4,r2,r3
  800440:	08007cc0 	call	8007cc <malloc>
  800444:	80800015 	stw	r2,0(r16)
					left_buffer = buffers[i];				//point left buffer to this location
  800448:	e0bffd17 	ldw	r2,-12(fp)
  80044c:	100690ba 	slli	r3,r2,2
  800450:	d0a02e17 	ldw	r2,-32584(gp)
  800454:	1885883a 	add	r2,r3,r2
  800458:	10800017 	ldw	r2,0(r2)
  80045c:	d0a02d15 	stw	r2,-32588(gp)
					buffer_index = 0;						//reset buffer index
  800460:	d0200215 	stw	zero,-32760(gp)
					while ((buffer_index < size_array[i]) ) //while the number of samples in buffer is less than total number of sample load a sample
  800464:	00c02074 	movhi	r3,129
  800468:	18c88204 	addi	r3,r3,8712
  80046c:	e0bffd17 	ldw	r2,-12(fp)
  800470:	100490ba 	slli	r2,r2,2
  800474:	10c5883a 	add	r2,r2,r3
  800478:	d0e00217 	ldw	r3,-32760(gp)
  80047c:	10800017 	ldw	r2,0(r2)
  800480:	18801c2e 	bgeu	r3,r2,8004f4 <main+0x310>
					{
						file_data1 = alt_up_sd_card_read(file_handle); //load the 3 bytes indivually
  800484:	e13ff80f 	ldh	r4,-32(fp)
  800488:	080e6bc0 	call	80e6bc <alt_up_sd_card_read>
  80048c:	e0bff885 	stb	r2,-30(fp)
						file_data2 = alt_up_sd_card_read(file_handle);
  800490:	e13ff80f 	ldh	r4,-32(fp)
  800494:	080e6bc0 	call	80e6bc <alt_up_sd_card_read>
  800498:	e0bff8c5 	stb	r2,-29(fp)
						file_data3 = alt_up_sd_card_read(file_handle);
  80049c:	e13ff80f 	ldh	r4,-32(fp)
  8004a0:	080e6bc0 	call	80e6bc <alt_up_sd_card_read>
  8004a4:	e0bff905 	stb	r2,-28(fp)
						file_data = ((file_data3<<24 | file_data2<<16) | file_data1<<8);//contatiate the sample bytes back into a sigle sample
  8004a8:	e0bff903 	ldbu	r2,-28(fp)
  8004ac:	1006963a 	slli	r3,r2,24
  8004b0:	e0bff8c3 	ldbu	r2,-29(fp)
  8004b4:	1004943a 	slli	r2,r2,16
  8004b8:	1886b03a 	or	r3,r3,r2
  8004bc:	e0bff883 	ldbu	r2,-30(fp)
  8004c0:	1004923a 	slli	r2,r2,8
  8004c4:	1884b03a 	or	r2,r3,r2
  8004c8:	e0bffa15 	stw	r2,-24(fp)
						left_buffer[buffer_index] = file_data; 			//puts this data in the buffer location
  8004cc:	d0a00217 	ldw	r2,-32760(gp)
  8004d0:	100690ba 	slli	r3,r2,2
  8004d4:	d0a02d17 	ldw	r2,-32588(gp)
  8004d8:	1887883a 	add	r3,r3,r2
  8004dc:	e0bffa17 	ldw	r2,-24(fp)
  8004e0:	18800015 	stw	r2,0(r3)
						buffer_index++;
  8004e4:	d0a00217 	ldw	r2,-32760(gp)
  8004e8:	10800044 	addi	r2,r2,1
  8004ec:	d0a00215 	stw	r2,-32760(gp)
  8004f0:	003fdc06 	br	800464 <main+0x280>
					}
					alt_up_sd_card_fclose(file_handle);
  8004f4:	e13ff80f 	ldh	r4,-32(fp)
  8004f8:	080f0480 	call	80f048 <alt_up_sd_card_fclose>
  8004fc:	e0bffd17 	ldw	r2,-12(fp)
  800500:	10800044 	addi	r2,r2,1
  800504:	e0bffd15 	stw	r2,-12(fp)
  800508:	003fa606 	br	8003a4 <main+0x1c0>
				}
			}
			else {
				//printf("Unknown file system.\n");
			}
		} else if ((alt_up_sd_card_is_Present() == false)) {
  80050c:	080dc700 	call	80dc70 <alt_up_sd_card_is_Present>
			//printf("Card disconnected.\n");
		}
	}
	printf("sounds buffered and ready to play");
  800510:	01002074 	movhi	r4,129
  800514:	21006b04 	addi	r4,r4,428
  800518:	0800eac0 	call	800eac <printf>
	while (1)
	{
		//sound = (*sound_id_ptr&0x07);	//get the input from the input port and bitmask to get number
		if ((*(sound_start_ptr)&0x01) ==1)			//if the start is high play the file
  80051c:	e0bffc17 	ldw	r2,-16(fp)
  800520:	10800017 	ldw	r2,0(r2)
  800524:	1080004c 	andi	r2,r2,1
  800528:	1005003a 	cmpeq	r2,r2,zero
  80052c:	103ffb1e 	bne	r2,zero,80051c <main+0x338>
		{	sound = (*sound_id_ptr&0x0f);
  800530:	e0bffb17 	ldw	r2,-20(fp)
  800534:	10800017 	ldw	r2,0(r2)
  800538:	108003cc 	andi	r2,r2,15
  80053c:	d0a00315 	stw	r2,-32756(gp)
			printf("sound is %d\n", sound);
  800540:	01002074 	movhi	r4,129
  800544:	21007404 	addi	r4,r4,464
  800548:	d1600317 	ldw	r5,-32756(gp)
  80054c:	0800eac0 	call	800eac <printf>
			if (sound >=0 && sound < NUM_OF_FILES) //if the id is a valid number then you can play
  800550:	d0a00317 	ldw	r2,-32756(gp)
  800554:	1004803a 	cmplt	r2,r2,zero
  800558:	103ff01e 	bne	r2,zero,80051c <main+0x338>
  80055c:	d0a00317 	ldw	r2,-32756(gp)
  800560:	10800408 	cmpgei	r2,r2,16
  800564:	103fed1e 	bne	r2,zero,80051c <main+0x338>
			{
				playSound(sound);					//call the play functions
  800568:	d1200317 	ldw	r4,-32756(gp)
  80056c:	08005740 	call	800574 <playSound>
  800570:	003fea06 	br	80051c <main+0x338>

00800574 <playSound>:
			}
		}
	}
	return 0;
}

void playSound (int n)
{
  800574:	defffe04 	addi	sp,sp,-8
  800578:	df000115 	stw	fp,4(sp)
  80057c:	df000104 	addi	fp,sp,4
  800580:	e13fff15 	stw	r4,-4(fp)
	left_buffer = buffers[n];				//set the buffer to the location of the requested sound file
  800584:	e0bfff17 	ldw	r2,-4(fp)
  800588:	100690ba 	slli	r3,r2,2
  80058c:	d0a02e17 	ldw	r2,-32584(gp)
  800590:	1885883a 	add	r2,r3,r2
  800594:	10800017 	ldw	r2,0(r2)
  800598:	d0a02d15 	stw	r2,-32588(gp)
	buffer_index=0;							//reset the buffer_index
  80059c:	d0200215 	stw	zero,-32760(gp)
	*(audio_ptr) = 0x8;						//clear the old fifo
  8005a0:	d0e00417 	ldw	r3,-32752(gp)
  8005a4:	00800204 	movi	r2,8
  8005a8:	18800015 	stw	r2,0(r3)
	*(audio_ptr) = 0x0;						//stop clearing the fifo
  8005ac:	d0a00417 	ldw	r2,-32752(gp)
  8005b0:	10000015 	stw	zero,0(r2)
	fifospace = *(audio_ptr + 1);	 		// read the audio port fifospace register
  8005b4:	d0a00417 	ldw	r2,-32752(gp)
  8005b8:	10800104 	addi	r2,r2,4
  8005bc:	10800017 	ldw	r2,0(r2)
  8005c0:	d0a02f15 	stw	r2,-32580(gp)
	if ( (fifospace & 0x00FF0000) > BUF_THRESHOLD ) 	// check WSRC
  8005c4:	d0a02f17 	ldw	r2,-32580(gp)
  8005c8:	10803fec 	andhi	r2,r2,255
  8005cc:	10801870 	cmpltui	r2,r2,97
  8005d0:	1000281e 	bne	r2,zero,800674 <playSound+0x100>
	{
		// output data until the buffer is empty or the audio-out FIFO is full
		while ( (buffer_index < size_array[n]) ){	//while the buffer index is less than size of samples
  8005d4:	00c02074 	movhi	r3,129
  8005d8:	18c88204 	addi	r3,r3,8712
  8005dc:	e0bfff17 	ldw	r2,-4(fp)
  8005e0:	100490ba 	slli	r2,r2,2
  8005e4:	10c5883a 	add	r2,r2,r3
  8005e8:	d0e00217 	ldw	r3,-32760(gp)
  8005ec:	10800017 	ldw	r2,0(r2)
  8005f0:	18801c2e 	bgeu	r3,r2,800664 <playSound+0xf0>
			fifospace = *(audio_ptr + 1);	// read the audio port fifospace register
  8005f4:	d0a00417 	ldw	r2,-32752(gp)
  8005f8:	10800104 	addi	r2,r2,4
  8005fc:	10800017 	ldw	r2,0(r2)
  800600:	d0a02f15 	stw	r2,-32580(gp)
			if((fifospace & 0x00FF0000) >BUF_THRESHOLD){	//if the fifo is not over 75% full
  800604:	d0a02f17 	ldw	r2,-32580(gp)
  800608:	10803fec 	andhi	r2,r2,255
  80060c:	10801870 	cmpltui	r2,r2,97
  800610:	103ff01e 	bne	r2,zero,8005d4 <playSound+0x60>
				*(audio_ptr + 2) = left_buffer[buffer_index];	//put data in the output fifos
  800614:	d0a00417 	ldw	r2,-32752(gp)
  800618:	11000204 	addi	r4,r2,8
  80061c:	d0a00217 	ldw	r2,-32760(gp)
  800620:	100690ba 	slli	r3,r2,2
  800624:	d0a02d17 	ldw	r2,-32588(gp)
  800628:	1885883a 	add	r2,r3,r2
  80062c:	10800017 	ldw	r2,0(r2)
  800630:	20800015 	stw	r2,0(r4)
				*(audio_ptr + 3) = left_buffer[buffer_index];
  800634:	d0a00417 	ldw	r2,-32752(gp)
  800638:	11000304 	addi	r4,r2,12
  80063c:	d0a00217 	ldw	r2,-32760(gp)
  800640:	100690ba 	slli	r3,r2,2
  800644:	d0a02d17 	ldw	r2,-32588(gp)
  800648:	1885883a 	add	r2,r3,r2
  80064c:	10800017 	ldw	r2,0(r2)
  800650:	20800015 	stw	r2,0(r4)
				++buffer_index;								//increment the buffer index
  800654:	d0a00217 	ldw	r2,-32760(gp)
  800658:	10800044 	addi	r2,r2,1
  80065c:	d0a00215 	stw	r2,-32760(gp)
  800660:	003fdc06 	br	8005d4 <playSound+0x60>
			}
		}
		fifospace = *(audio_ptr + 1);	// read the audio port fifospace register
  800664:	d0a00417 	ldw	r2,-32752(gp)
  800668:	10800104 	addi	r2,r2,4
  80066c:	10800017 	ldw	r2,0(r2)
  800670:	d0a02f15 	stw	r2,-32580(gp)
	}
	//printf("file over.\n");
	sound = -1;							//set the sound invalid to prevent a repeated play
  800674:	00bfffc4 	movi	r2,-1
  800678:	d0a00315 	stw	r2,-32756(gp)

}
  80067c:	df000117 	ldw	fp,4(sp)
  800680:	dec00204 	addi	sp,sp,8
  800684:	f800283a 	ret

00800688 <udivmodsi4>:
  800688:	00800044 	movi	r2,1
  80068c:	000f883a 	mov	r7,zero
  800690:	2900082e 	bgeu	r5,r4,8006b4 <udivmodsi4+0x2c>
  800694:	28000716 	blt	r5,zero,8006b4 <udivmodsi4+0x2c>
  800698:	294b883a 	add	r5,r5,r5
  80069c:	1085883a 	add	r2,r2,r2
  8006a0:	29000e2e 	bgeu	r5,r4,8006dc <udivmodsi4+0x54>
  8006a4:	1007003a 	cmpeq	r3,r2,zero
  8006a8:	1800081e 	bne	r3,zero,8006cc <udivmodsi4+0x44>
  8006ac:	283ffa0e 	bge	r5,zero,800698 <udivmodsi4+0x10>
  8006b0:	1800061e 	bne	r3,zero,8006cc <udivmodsi4+0x44>
  8006b4:	21400236 	bltu	r4,r5,8006c0 <udivmodsi4+0x38>
  8006b8:	2149c83a 	sub	r4,r4,r5
  8006bc:	388eb03a 	or	r7,r7,r2
  8006c0:	1004d07a 	srli	r2,r2,1
  8006c4:	280ad07a 	srli	r5,r5,1
  8006c8:	103ffa1e 	bne	r2,zero,8006b4 <udivmodsi4+0x2c>
  8006cc:	3000011e 	bne	r6,zero,8006d4 <udivmodsi4+0x4c>
  8006d0:	3809883a 	mov	r4,r7
  8006d4:	2005883a 	mov	r2,r4
  8006d8:	f800283a 	ret
  8006dc:	1007003a 	cmpeq	r3,r2,zero
  8006e0:	183ff426 	beq	r3,zero,8006b4 <udivmodsi4+0x2c>
  8006e4:	003ff906 	br	8006cc <udivmodsi4+0x44>

008006e8 <__divsi3>:
  8006e8:	defffe04 	addi	sp,sp,-8
  8006ec:	dc000015 	stw	r16,0(sp)
  8006f0:	dfc00115 	stw	ra,4(sp)
  8006f4:	000d883a 	mov	r6,zero
  8006f8:	0021883a 	mov	r16,zero
  8006fc:	20000816 	blt	r4,zero,800720 <__divsi3+0x38>
  800700:	28000a16 	blt	r5,zero,80072c <__divsi3+0x44>
  800704:	08006880 	call	800688 <udivmodsi4>
  800708:	80000126 	beq	r16,zero,800710 <__divsi3+0x28>
  80070c:	0085c83a 	sub	r2,zero,r2
  800710:	dfc00117 	ldw	ra,4(sp)
  800714:	dc000017 	ldw	r16,0(sp)
  800718:	dec00204 	addi	sp,sp,8
  80071c:	f800283a 	ret
  800720:	0109c83a 	sub	r4,zero,r4
  800724:	0021003a 	cmpeq	r16,zero,zero
  800728:	283ff60e 	bge	r5,zero,800704 <__divsi3+0x1c>
  80072c:	014bc83a 	sub	r5,zero,r5
  800730:	8021003a 	cmpeq	r16,r16,zero
  800734:	003ff306 	br	800704 <__divsi3+0x1c>

00800738 <__modsi3>:
  800738:	defffe04 	addi	sp,sp,-8
  80073c:	dc000015 	stw	r16,0(sp)
  800740:	dfc00115 	stw	ra,4(sp)
  800744:	01800044 	movi	r6,1
  800748:	0021883a 	mov	r16,zero
  80074c:	20000816 	blt	r4,zero,800770 <__modsi3+0x38>
  800750:	28000a16 	blt	r5,zero,80077c <__modsi3+0x44>
  800754:	08006880 	call	800688 <udivmodsi4>
  800758:	80000126 	beq	r16,zero,800760 <__modsi3+0x28>
  80075c:	0085c83a 	sub	r2,zero,r2
  800760:	dfc00117 	ldw	ra,4(sp)
  800764:	dc000017 	ldw	r16,0(sp)
  800768:	dec00204 	addi	sp,sp,8
  80076c:	f800283a 	ret
  800770:	0109c83a 	sub	r4,zero,r4
  800774:	3021883a 	mov	r16,r6
  800778:	283ff60e 	bge	r5,zero,800754 <__modsi3+0x1c>
  80077c:	014bc83a 	sub	r5,zero,r5
  800780:	003ff406 	br	800754 <__modsi3+0x1c>

00800784 <__udivsi3>:
  800784:	000d883a 	mov	r6,zero
  800788:	02002034 	movhi	r8,128
  80078c:	4201a204 	addi	r8,r8,1672
  800790:	4000683a 	jmp	r8

00800794 <__umodsi3>:
  800794:	01800044 	movi	r6,1
  800798:	02002034 	movhi	r8,128
  80079c:	4201a204 	addi	r8,r8,1672
  8007a0:	4000683a 	jmp	r8

008007a4 <__mulsi3>:
  8007a4:	0007883a 	mov	r3,zero
  8007a8:	20000626 	beq	r4,zero,8007c4 <__mulsi3+0x20>
  8007ac:	2080004c 	andi	r2,r4,1
  8007b0:	2008d07a 	srli	r4,r4,1
  8007b4:	10000126 	beq	r2,zero,8007bc <__mulsi3+0x18>
  8007b8:	1947883a 	add	r3,r3,r5
  8007bc:	294b883a 	add	r5,r5,r5
  8007c0:	203ffa1e 	bne	r4,zero,8007ac <__mulsi3+0x8>
  8007c4:	1805883a 	mov	r2,r3
  8007c8:	f800283a 	ret

008007cc <malloc>:
  8007cc:	200b883a 	mov	r5,r4
  8007d0:	d1200a17 	ldw	r4,-32728(gp)
  8007d4:	02002034 	movhi	r8,128
  8007d8:	4201fd04 	addi	r8,r8,2036
  8007dc:	4000683a 	jmp	r8

008007e0 <free>:
  8007e0:	200b883a 	mov	r5,r4
  8007e4:	d1200a17 	ldw	r4,-32728(gp)
  8007e8:	02002034 	movhi	r8,128
  8007ec:	42134204 	addi	r8,r8,19720
  8007f0:	4000683a 	jmp	r8

008007f4 <_malloc_r>:
  8007f4:	defff504 	addi	sp,sp,-44
  8007f8:	28c002c4 	addi	r3,r5,11
  8007fc:	00800584 	movi	r2,22
  800800:	dc400715 	stw	r17,28(sp)
  800804:	dc800615 	stw	r18,24(sp)
  800808:	dfc00a15 	stw	ra,40(sp)
  80080c:	df000915 	stw	fp,36(sp)
  800810:	dc000815 	stw	r16,32(sp)
  800814:	dcc00515 	stw	r19,20(sp)
  800818:	dd000415 	stw	r20,16(sp)
  80081c:	dd400315 	stw	r21,12(sp)
  800820:	dd800215 	stw	r22,8(sp)
  800824:	ddc00115 	stw	r23,4(sp)
  800828:	2025883a 	mov	r18,r4
  80082c:	04400404 	movi	r17,16
  800830:	10c0032e 	bgeu	r2,r3,800840 <_malloc_r+0x4c>
  800834:	00bffe04 	movi	r2,-8
  800838:	18a2703a 	and	r17,r3,r2
  80083c:	88000116 	blt	r17,zero,800844 <_malloc_r+0x50>
  800840:	89400d2e 	bgeu	r17,r5,800878 <_malloc_r+0x84>
  800844:	0005883a 	mov	r2,zero
  800848:	dfc00a17 	ldw	ra,40(sp)
  80084c:	df000917 	ldw	fp,36(sp)
  800850:	dc000817 	ldw	r16,32(sp)
  800854:	dc400717 	ldw	r17,28(sp)
  800858:	dc800617 	ldw	r18,24(sp)
  80085c:	dcc00517 	ldw	r19,20(sp)
  800860:	dd000417 	ldw	r20,16(sp)
  800864:	dd400317 	ldw	r21,12(sp)
  800868:	dd800217 	ldw	r22,8(sp)
  80086c:	ddc00117 	ldw	r23,4(sp)
  800870:	dec00b04 	addi	sp,sp,44
  800874:	f800283a 	ret
  800878:	9009883a 	mov	r4,r18
  80087c:	0809b440 	call	809b44 <__malloc_lock>
  800880:	00807dc4 	movi	r2,503
  800884:	14401536 	bltu	r2,r17,8008dc <_malloc_r+0xe8>
  800888:	03402074 	movhi	r13,129
  80088c:	6b41c704 	addi	r13,r13,1820
  800890:	8b4d883a 	add	r6,r17,r13
  800894:	34000317 	ldw	r16,12(r6)
  800898:	8812d0fa 	srli	r9,r17,3
  80089c:	81803e26 	beq	r16,r6,800998 <_malloc_r+0x1a4>
  8008a0:	80c00117 	ldw	r3,4(r16)
  8008a4:	00bfff04 	movi	r2,-4
  8008a8:	82000317 	ldw	r8,12(r16)
  8008ac:	1886703a 	and	r3,r3,r2
  8008b0:	80cb883a 	add	r5,r16,r3
  8008b4:	28800117 	ldw	r2,4(r5)
  8008b8:	81c00217 	ldw	r7,8(r16)
  8008bc:	9009883a 	mov	r4,r18
  8008c0:	10800054 	ori	r2,r2,1
  8008c4:	41c00215 	stw	r7,8(r8)
  8008c8:	28800115 	stw	r2,4(r5)
  8008cc:	3a000315 	stw	r8,12(r7)
  8008d0:	0809b600 	call	809b60 <__malloc_unlock>
  8008d4:	80800204 	addi	r2,r16,8
  8008d8:	003fdb06 	br	800848 <_malloc_r+0x54>
  8008dc:	8806d27a 	srli	r3,r17,9
  8008e0:	8812d0fa 	srli	r9,r17,3
  8008e4:	18000926 	beq	r3,zero,80090c <_malloc_r+0x118>
  8008e8:	00800104 	movi	r2,4
  8008ec:	10c02f2e 	bgeu	r2,r3,8009ac <_malloc_r+0x1b8>
  8008f0:	00800504 	movi	r2,20
  8008f4:	1a4016c4 	addi	r9,r3,91
  8008f8:	10c0042e 	bgeu	r2,r3,80090c <_malloc_r+0x118>
  8008fc:	00801504 	movi	r2,84
  800900:	10c11536 	bltu	r2,r3,800d58 <_malloc_r+0x564>
  800904:	8804d33a 	srli	r2,r17,12
  800908:	12401b84 	addi	r9,r2,110
  80090c:	480490fa 	slli	r2,r9,3
  800910:	03402074 	movhi	r13,129
  800914:	6b41c704 	addi	r13,r13,1820
  800918:	134b883a 	add	r5,r2,r13
  80091c:	2c000317 	ldw	r16,12(r5)
  800920:	81400926 	beq	r16,r5,800948 <_malloc_r+0x154>
  800924:	01ffff04 	movi	r7,-4
  800928:	018003c4 	movi	r6,15
  80092c:	80800117 	ldw	r2,4(r16)
  800930:	11c6703a 	and	r3,r2,r7
  800934:	1c49c83a 	sub	r4,r3,r17
  800938:	3100aa16 	blt	r6,r4,800be4 <_malloc_r+0x3f0>
  80093c:	2000690e 	bge	r4,zero,800ae4 <_malloc_r+0x2f0>
  800940:	84000317 	ldw	r16,12(r16)
  800944:	817ff91e 	bne	r16,r5,80092c <_malloc_r+0x138>
  800948:	4a400044 	addi	r9,r9,1
  80094c:	03002074 	movhi	r12,129
  800950:	6301c904 	addi	r12,r12,1828
  800954:	64000217 	ldw	r16,8(r12)
  800958:	83002826 	beq	r16,r12,8009fc <_malloc_r+0x208>
  80095c:	80800117 	ldw	r2,4(r16)
  800960:	00ffff04 	movi	r3,-4
  800964:	10c6703a 	and	r3,r2,r3
  800968:	1c49c83a 	sub	r4,r3,r17
  80096c:	008003c4 	movi	r2,15
  800970:	11006616 	blt	r2,r4,800b0c <_malloc_r+0x318>
  800974:	63000315 	stw	r12,12(r12)
  800978:	63000215 	stw	r12,8(r12)
  80097c:	20000e16 	blt	r4,zero,8009b8 <_malloc_r+0x1c4>
  800980:	80c7883a 	add	r3,r16,r3
  800984:	18800117 	ldw	r2,4(r3)
  800988:	9009883a 	mov	r4,r18
  80098c:	10800054 	ori	r2,r2,1
  800990:	18800115 	stw	r2,4(r3)
  800994:	003fce06 	br	8008d0 <_malloc_r+0xdc>
  800998:	81800204 	addi	r6,r16,8
  80099c:	34000317 	ldw	r16,12(r6)
  8009a0:	81bfbf1e 	bne	r16,r6,8008a0 <_malloc_r+0xac>
  8009a4:	4a400084 	addi	r9,r9,2
  8009a8:	003fe806 	br	80094c <_malloc_r+0x158>
  8009ac:	8804d1ba 	srli	r2,r17,6
  8009b0:	12400e04 	addi	r9,r2,56
  8009b4:	003fd506 	br	80090c <_malloc_r+0x118>
  8009b8:	00807fc4 	movi	r2,511
  8009bc:	10c09436 	bltu	r2,r3,800c10 <_malloc_r+0x41c>
  8009c0:	1808d0fa 	srli	r4,r3,3
  8009c4:	61bffe04 	addi	r6,r12,-8
  8009c8:	00800044 	movi	r2,1
  8009cc:	200a90fa 	slli	r5,r4,3
  8009d0:	2007d0ba 	srai	r3,r4,2
  8009d4:	31000117 	ldw	r4,4(r6)
  8009d8:	2991883a 	add	r8,r5,r6
  8009dc:	41c00217 	ldw	r7,8(r8)
  8009e0:	10c4983a 	sll	r2,r2,r3
  8009e4:	82000315 	stw	r8,12(r16)
  8009e8:	81c00215 	stw	r7,8(r16)
  8009ec:	2088b03a 	or	r4,r4,r2
  8009f0:	3c000315 	stw	r16,12(r7)
  8009f4:	31000115 	stw	r4,4(r6)
  8009f8:	44000215 	stw	r16,8(r8)
  8009fc:	4807883a 	mov	r3,r9
  800a00:	4800a616 	blt	r9,zero,800c9c <_malloc_r+0x4a8>
  800a04:	1807d0ba 	srai	r3,r3,2
  800a08:	03402074 	movhi	r13,129
  800a0c:	6b41c704 	addi	r13,r13,1820
  800a10:	00800044 	movi	r2,1
  800a14:	10ce983a 	sll	r7,r2,r3
  800a18:	69000117 	ldw	r4,4(r13)
  800a1c:	21c04836 	bltu	r4,r7,800b40 <_malloc_r+0x34c>
  800a20:	21c4703a 	and	r2,r4,r7
  800a24:	10000a1e 	bne	r2,zero,800a50 <_malloc_r+0x25c>
  800a28:	39cf883a 	add	r7,r7,r7
  800a2c:	00bfff04 	movi	r2,-4
  800a30:	4884703a 	and	r2,r9,r2
  800a34:	21c6703a 	and	r3,r4,r7
  800a38:	12400104 	addi	r9,r2,4
  800a3c:	1800041e 	bne	r3,zero,800a50 <_malloc_r+0x25c>
  800a40:	39cf883a 	add	r7,r7,r7
  800a44:	4a400104 	addi	r9,r9,4
  800a48:	21c4703a 	and	r2,r4,r7
  800a4c:	103ffc26 	beq	r2,zero,800a40 <_malloc_r+0x24c>
  800a50:	480490fa 	slli	r2,r9,3
  800a54:	4817883a 	mov	r11,r9
  800a58:	134d883a 	add	r6,r2,r13
  800a5c:	300b883a 	mov	r5,r6
  800a60:	2c000317 	ldw	r16,12(r5)
  800a64:	81400926 	beq	r16,r5,800a8c <_malloc_r+0x298>
  800a68:	02bfff04 	movi	r10,-4
  800a6c:	020003c4 	movi	r8,15
  800a70:	80800117 	ldw	r2,4(r16)
  800a74:	1286703a 	and	r3,r2,r10
  800a78:	1c49c83a 	sub	r4,r3,r17
  800a7c:	41008016 	blt	r8,r4,800c80 <_malloc_r+0x48c>
  800a80:	2000180e 	bge	r4,zero,800ae4 <_malloc_r+0x2f0>
  800a84:	84000317 	ldw	r16,12(r16)
  800a88:	817ff91e 	bne	r16,r5,800a70 <_malloc_r+0x27c>
  800a8c:	4a400044 	addi	r9,r9,1
  800a90:	488000cc 	andi	r2,r9,3
  800a94:	29400204 	addi	r5,r5,8
  800a98:	103ff11e 	bne	r2,zero,800a60 <_malloc_r+0x26c>
  800a9c:	588000cc 	andi	r2,r11,3
  800aa0:	31bffe04 	addi	r6,r6,-8
  800aa4:	5affffc4 	addi	r11,r11,-1
  800aa8:	1000e526 	beq	r2,zero,800e40 <_malloc_r+0x64c>
  800aac:	30800217 	ldw	r2,8(r6)
  800ab0:	11bffa26 	beq	r2,r6,800a9c <_malloc_r+0x2a8>
  800ab4:	03402074 	movhi	r13,129
  800ab8:	6b41c704 	addi	r13,r13,1820
  800abc:	39cf883a 	add	r7,r7,r7
  800ac0:	68c00117 	ldw	r3,4(r13)
  800ac4:	19c01e36 	bltu	r3,r7,800b40 <_malloc_r+0x34c>
  800ac8:	3800031e 	bne	r7,zero,800ad8 <_malloc_r+0x2e4>
  800acc:	00001c06 	br	800b40 <_malloc_r+0x34c>
  800ad0:	39cf883a 	add	r7,r7,r7
  800ad4:	4a400104 	addi	r9,r9,4
  800ad8:	19c4703a 	and	r2,r3,r7
  800adc:	103ffc26 	beq	r2,zero,800ad0 <_malloc_r+0x2dc>
  800ae0:	003fdb06 	br	800a50 <_malloc_r+0x25c>
  800ae4:	80c7883a 	add	r3,r16,r3
  800ae8:	18800117 	ldw	r2,4(r3)
  800aec:	82000317 	ldw	r8,12(r16)
  800af0:	81c00217 	ldw	r7,8(r16)
  800af4:	10800054 	ori	r2,r2,1
  800af8:	9009883a 	mov	r4,r18
  800afc:	18800115 	stw	r2,4(r3)
  800b00:	41c00215 	stw	r7,8(r8)
  800b04:	3a000315 	stw	r8,12(r7)
  800b08:	003f7106 	br	8008d0 <_malloc_r+0xdc>
  800b0c:	88800054 	ori	r2,r17,1
  800b10:	844b883a 	add	r5,r16,r17
  800b14:	80800115 	stw	r2,4(r16)
  800b18:	2905883a 	add	r2,r5,r4
  800b1c:	20c00054 	ori	r3,r4,1
  800b20:	61400315 	stw	r5,12(r12)
  800b24:	61400215 	stw	r5,8(r12)
  800b28:	11000015 	stw	r4,0(r2)
  800b2c:	9009883a 	mov	r4,r18
  800b30:	2b000215 	stw	r12,8(r5)
  800b34:	28c00115 	stw	r3,4(r5)
  800b38:	2b000315 	stw	r12,12(r5)
  800b3c:	003f6406 	br	8008d0 <_malloc_r+0xdc>
  800b40:	6d400217 	ldw	r21,8(r13)
  800b44:	00bfff04 	movi	r2,-4
  800b48:	a8c00117 	ldw	r3,4(r21)
  800b4c:	18ac703a 	and	r22,r3,r2
  800b50:	b449c83a 	sub	r4,r22,r17
  800b54:	b4400236 	bltu	r22,r17,800b60 <_malloc_r+0x36c>
  800b58:	008003c4 	movi	r2,15
  800b5c:	11002316 	blt	r2,r4,800bec <_malloc_r+0x3f8>
  800b60:	d0a00817 	ldw	r2,-32736(gp)
  800b64:	073fffc4 	movi	fp,-1
  800b68:	b02f883a 	mov	r23,r22
  800b6c:	8887883a 	add	r3,r17,r2
  800b70:	d0a00717 	ldw	r2,-32740(gp)
  800b74:	ada7883a 	add	r19,r21,r22
  800b78:	1d000404 	addi	r20,r3,16
  800b7c:	17000326 	beq	r2,fp,800b8c <_malloc_r+0x398>
  800b80:	18c403c4 	addi	r3,r3,4111
  800b84:	00bc0004 	movi	r2,-4096
  800b88:	18a8703a 	and	r20,r3,r2
  800b8c:	9009883a 	mov	r4,r18
  800b90:	a00b883a 	mov	r5,r20
  800b94:	db400015 	stw	r13,0(sp)
  800b98:	0800ee00 	call	800ee0 <_sbrk_r>
  800b9c:	1021883a 	mov	r16,r2
  800ba0:	db400017 	ldw	r13,0(sp)
  800ba4:	17000426 	beq	r2,fp,800bb8 <_malloc_r+0x3c4>
  800ba8:	14c03e2e 	bgeu	r2,r19,800ca4 <_malloc_r+0x4b0>
  800bac:	00802074 	movhi	r2,129
  800bb0:	1081c704 	addi	r2,r2,1820
  800bb4:	a8803b26 	beq	r21,r2,800ca4 <_malloc_r+0x4b0>
  800bb8:	68800217 	ldw	r2,8(r13)
  800bbc:	013fff04 	movi	r4,-4
  800bc0:	10c00117 	ldw	r3,4(r2)
  800bc4:	1906703a 	and	r3,r3,r4
  800bc8:	1c49c83a 	sub	r4,r3,r17
  800bcc:	1c400236 	bltu	r3,r17,800bd8 <_malloc_r+0x3e4>
  800bd0:	008003c4 	movi	r2,15
  800bd4:	11000516 	blt	r2,r4,800bec <_malloc_r+0x3f8>
  800bd8:	9009883a 	mov	r4,r18
  800bdc:	0809b600 	call	809b60 <__malloc_unlock>
  800be0:	003f1806 	br	800844 <_malloc_r+0x50>
  800be4:	4a7fffc4 	addi	r9,r9,-1
  800be8:	003f5706 	br	800948 <_malloc_r+0x154>
  800bec:	6c000217 	ldw	r16,8(r13)
  800bf0:	88800054 	ori	r2,r17,1
  800bf4:	21000054 	ori	r4,r4,1
  800bf8:	8447883a 	add	r3,r16,r17
  800bfc:	80800115 	stw	r2,4(r16)
  800c00:	19000115 	stw	r4,4(r3)
  800c04:	9009883a 	mov	r4,r18
  800c08:	68c00215 	stw	r3,8(r13)
  800c0c:	003f3006 	br	8008d0 <_malloc_r+0xdc>
  800c10:	180ad27a 	srli	r5,r3,9
  800c14:	1808d0fa 	srli	r4,r3,3
  800c18:	28000426 	beq	r5,zero,800c2c <_malloc_r+0x438>
  800c1c:	00800104 	movi	r2,4
  800c20:	11405836 	bltu	r2,r5,800d84 <_malloc_r+0x590>
  800c24:	1804d1ba 	srli	r2,r3,6
  800c28:	11000e04 	addi	r4,r2,56
  800c2c:	200490fa 	slli	r2,r4,3
  800c30:	01402074 	movhi	r5,129
  800c34:	2941c704 	addi	r5,r5,1820
  800c38:	1351883a 	add	r8,r2,r13
  800c3c:	41c00217 	ldw	r7,8(r8)
  800c40:	3a006d26 	beq	r7,r8,800df8 <_malloc_r+0x604>
  800c44:	38800117 	ldw	r2,4(r7)
  800c48:	013fff04 	movi	r4,-4
  800c4c:	1104703a 	and	r2,r2,r4
  800c50:	1880052e 	bgeu	r3,r2,800c68 <_malloc_r+0x474>
  800c54:	39c00217 	ldw	r7,8(r7)
  800c58:	3a000326 	beq	r7,r8,800c68 <_malloc_r+0x474>
  800c5c:	38800117 	ldw	r2,4(r7)
  800c60:	1104703a 	and	r2,r2,r4
  800c64:	18bffb36 	bltu	r3,r2,800c54 <_malloc_r+0x460>
  800c68:	3a000317 	ldw	r8,12(r7)
  800c6c:	82000315 	stw	r8,12(r16)
  800c70:	81c00215 	stw	r7,8(r16)
  800c74:	3c000315 	stw	r16,12(r7)
  800c78:	44000215 	stw	r16,8(r8)
  800c7c:	003f5f06 	br	8009fc <_malloc_r+0x208>
  800c80:	82000317 	ldw	r8,12(r16)
  800c84:	81c00217 	ldw	r7,8(r16)
  800c88:	88800054 	ori	r2,r17,1
  800c8c:	844b883a 	add	r5,r16,r17
  800c90:	41c00215 	stw	r7,8(r8)
  800c94:	3a000315 	stw	r8,12(r7)
  800c98:	003f9e06 	br	800b14 <_malloc_r+0x320>
  800c9c:	48c000c4 	addi	r3,r9,3
  800ca0:	003f5806 	br	800a04 <_malloc_r+0x210>
  800ca4:	07002074 	movhi	fp,129
  800ca8:	e701bd04 	addi	fp,fp,1780
  800cac:	e0800017 	ldw	r2,0(fp)
  800cb0:	1505883a 	add	r2,r2,r20
  800cb4:	e0800015 	stw	r2,0(fp)
  800cb8:	84c05826 	beq	r16,r19,800e1c <_malloc_r+0x628>
  800cbc:	d0e00717 	ldw	r3,-32740(gp)
  800cc0:	00bfffc4 	movi	r2,-1
  800cc4:	18805326 	beq	r3,r2,800e14 <_malloc_r+0x620>
  800cc8:	e0800017 	ldw	r2,0(fp)
  800ccc:	84c7c83a 	sub	r3,r16,r19
  800cd0:	10c5883a 	add	r2,r2,r3
  800cd4:	e0800015 	stw	r2,0(fp)
  800cd8:	80c001cc 	andi	r3,r16,7
  800cdc:	0027883a 	mov	r19,zero
  800ce0:	18000326 	beq	r3,zero,800cf0 <_malloc_r+0x4fc>
  800ce4:	00800204 	movi	r2,8
  800ce8:	10e7c83a 	sub	r19,r2,r3
  800cec:	84e1883a 	add	r16,r16,r19
  800cf0:	8505883a 	add	r2,r16,r20
  800cf4:	1083ffcc 	andi	r2,r2,4095
  800cf8:	00c40004 	movi	r3,4096
  800cfc:	1887c83a 	sub	r3,r3,r2
  800d00:	98e7883a 	add	r19,r19,r3
  800d04:	9009883a 	mov	r4,r18
  800d08:	980b883a 	mov	r5,r19
  800d0c:	db400015 	stw	r13,0(sp)
  800d10:	0800ee00 	call	800ee0 <_sbrk_r>
  800d14:	1007883a 	mov	r3,r2
  800d18:	00bfffc4 	movi	r2,-1
  800d1c:	db400017 	ldw	r13,0(sp)
  800d20:	18804e26 	beq	r3,r2,800e5c <_malloc_r+0x668>
  800d24:	e0800017 	ldw	r2,0(fp)
  800d28:	1c07c83a 	sub	r3,r3,r16
  800d2c:	1cc9883a 	add	r4,r3,r19
  800d30:	14c5883a 	add	r2,r2,r19
  800d34:	e0800015 	stw	r2,0(fp)
  800d38:	6c000215 	stw	r16,8(r13)
  800d3c:	20800054 	ori	r2,r4,1
  800d40:	ab404426 	beq	r21,r13,800e54 <_malloc_r+0x660>
  800d44:	014003c4 	movi	r5,15
  800d48:	2d801636 	bltu	r5,r22,800da4 <_malloc_r+0x5b0>
  800d4c:	00800044 	movi	r2,1
  800d50:	80800115 	stw	r2,4(r16)
  800d54:	003f9806 	br	800bb8 <_malloc_r+0x3c4>
  800d58:	00805504 	movi	r2,340
  800d5c:	10c00336 	bltu	r2,r3,800d6c <_malloc_r+0x578>
  800d60:	8804d3fa 	srli	r2,r17,15
  800d64:	12401dc4 	addi	r9,r2,119
  800d68:	003ee806 	br	80090c <_malloc_r+0x118>
  800d6c:	00815504 	movi	r2,1364
  800d70:	02401f84 	movi	r9,126
  800d74:	10fee536 	bltu	r2,r3,80090c <_malloc_r+0x118>
  800d78:	8804d4ba 	srli	r2,r17,18
  800d7c:	12401f04 	addi	r9,r2,124
  800d80:	003ee206 	br	80090c <_malloc_r+0x118>
  800d84:	00800504 	movi	r2,20
  800d88:	290016c4 	addi	r4,r5,91
  800d8c:	117fa72e 	bgeu	r2,r5,800c2c <_malloc_r+0x438>
  800d90:	00801504 	movi	r2,84
  800d94:	11403a36 	bltu	r2,r5,800e80 <_malloc_r+0x68c>
  800d98:	1804d33a 	srli	r2,r3,12
  800d9c:	11001b84 	addi	r4,r2,110
  800da0:	003fa206 	br	800c2c <_malloc_r+0x438>
  800da4:	80800115 	stw	r2,4(r16)
  800da8:	a8800117 	ldw	r2,4(r21)
  800dac:	00fffe04 	movi	r3,-8
  800db0:	b13ffd04 	addi	r4,r22,-12
  800db4:	20ee703a 	and	r23,r4,r3
  800db8:	1080004c 	andi	r2,r2,1
  800dbc:	15c4b03a 	or	r2,r2,r23
  800dc0:	a8800115 	stw	r2,4(r21)
  800dc4:	adc7883a 	add	r3,r21,r23
  800dc8:	00800144 	movi	r2,5
  800dcc:	18800215 	stw	r2,8(r3)
  800dd0:	18800115 	stw	r2,4(r3)
  800dd4:	2dc02436 	bltu	r5,r23,800e68 <_malloc_r+0x674>
  800dd8:	e0c00017 	ldw	r3,0(fp)
  800ddc:	d0a00617 	ldw	r2,-32744(gp)
  800de0:	10c0012e 	bgeu	r2,r3,800de8 <_malloc_r+0x5f4>
  800de4:	d0e00615 	stw	r3,-32744(gp)
  800de8:	d0a00517 	ldw	r2,-32748(gp)
  800dec:	10ff722e 	bgeu	r2,r3,800bb8 <_malloc_r+0x3c4>
  800df0:	d0e00515 	stw	r3,-32748(gp)
  800df4:	003f7006 	br	800bb8 <_malloc_r+0x3c4>
  800df8:	2005d0ba 	srai	r2,r4,2
  800dfc:	00c00044 	movi	r3,1
  800e00:	29000117 	ldw	r4,4(r5)
  800e04:	1886983a 	sll	r3,r3,r2
  800e08:	20c8b03a 	or	r4,r4,r3
  800e0c:	29000115 	stw	r4,4(r5)
  800e10:	003f9606 	br	800c6c <_malloc_r+0x478>
  800e14:	d4200715 	stw	r16,-32740(gp)
  800e18:	003faf06 	br	800cd8 <_malloc_r+0x4e4>
  800e1c:	8083ffcc 	andi	r2,r16,4095
  800e20:	103fa61e 	bne	r2,zero,800cbc <_malloc_r+0x4c8>
  800e24:	00802074 	movhi	r2,129
  800e28:	1081c704 	addi	r2,r2,1820
  800e2c:	10c00217 	ldw	r3,8(r2)
  800e30:	a5c9883a 	add	r4,r20,r23
  800e34:	20800054 	ori	r2,r4,1
  800e38:	18800115 	stw	r2,4(r3)
  800e3c:	003fe606 	br	800dd8 <_malloc_r+0x5e4>
  800e40:	68800117 	ldw	r2,4(r13)
  800e44:	01c6303a 	nor	r3,zero,r7
  800e48:	10c4703a 	and	r2,r2,r3
  800e4c:	68800115 	stw	r2,4(r13)
  800e50:	003f1806 	br	800ab4 <_malloc_r+0x2c0>
  800e54:	80800115 	stw	r2,4(r16)
  800e58:	003fdf06 	br	800dd8 <_malloc_r+0x5e4>
  800e5c:	0027883a 	mov	r19,zero
  800e60:	8007883a 	mov	r3,r16
  800e64:	003faf06 	br	800d24 <_malloc_r+0x530>
  800e68:	a9400204 	addi	r5,r21,8
  800e6c:	9009883a 	mov	r4,r18
  800e70:	db400015 	stw	r13,0(sp)
  800e74:	0804d080 	call	804d08 <_free_r>
  800e78:	db400017 	ldw	r13,0(sp)
  800e7c:	003fd606 	br	800dd8 <_malloc_r+0x5e4>
  800e80:	00805504 	movi	r2,340
  800e84:	11400336 	bltu	r2,r5,800e94 <_malloc_r+0x6a0>
  800e88:	1804d3fa 	srli	r2,r3,15
  800e8c:	11001dc4 	addi	r4,r2,119
  800e90:	003f6606 	br	800c2c <_malloc_r+0x438>
  800e94:	00815504 	movi	r2,1364
  800e98:	01001f84 	movi	r4,126
  800e9c:	117f6336 	bltu	r2,r5,800c2c <_malloc_r+0x438>
  800ea0:	1804d4ba 	srli	r2,r3,18
  800ea4:	11001f04 	addi	r4,r2,124
  800ea8:	003f6006 	br	800c2c <_malloc_r+0x438>

00800eac <printf>:
  800eac:	defffc04 	addi	sp,sp,-16
  800eb0:	dfc00015 	stw	ra,0(sp)
  800eb4:	d9400115 	stw	r5,4(sp)
  800eb8:	d9800215 	stw	r6,8(sp)
  800ebc:	d9c00315 	stw	r7,12(sp)
  800ec0:	d0a00a17 	ldw	r2,-32728(gp)
  800ec4:	200b883a 	mov	r5,r4
  800ec8:	d9800104 	addi	r6,sp,4
  800ecc:	11000217 	ldw	r4,8(r2)
  800ed0:	0802bfc0 	call	802bfc <__vfprintf_internal>
  800ed4:	dfc00017 	ldw	ra,0(sp)
  800ed8:	dec00404 	addi	sp,sp,16
  800edc:	f800283a 	ret

00800ee0 <_sbrk_r>:
  800ee0:	defffe04 	addi	sp,sp,-8
  800ee4:	dc000015 	stw	r16,0(sp)
  800ee8:	2021883a 	mov	r16,r4
  800eec:	2809883a 	mov	r4,r5
  800ef0:	dfc00115 	stw	ra,4(sp)
  800ef4:	d0203015 	stw	zero,-32576(gp)
  800ef8:	0809d580 	call	809d58 <sbrk>
  800efc:	1007883a 	mov	r3,r2
  800f00:	00bfffc4 	movi	r2,-1
  800f04:	18800526 	beq	r3,r2,800f1c <_sbrk_r+0x3c>
  800f08:	1805883a 	mov	r2,r3
  800f0c:	dfc00117 	ldw	ra,4(sp)
  800f10:	dc000017 	ldw	r16,0(sp)
  800f14:	dec00204 	addi	sp,sp,8
  800f18:	f800283a 	ret
  800f1c:	d0a03017 	ldw	r2,-32576(gp)
  800f20:	103ff926 	beq	r2,zero,800f08 <_sbrk_r+0x28>
  800f24:	80800015 	stw	r2,0(r16)
  800f28:	003ff706 	br	800f08 <_sbrk_r+0x28>

00800f2c <__sprint>:
  800f2c:	defffe04 	addi	sp,sp,-8
  800f30:	dc000015 	stw	r16,0(sp)
  800f34:	dfc00115 	stw	ra,4(sp)
  800f38:	28800217 	ldw	r2,8(r5)
  800f3c:	2821883a 	mov	r16,r5
  800f40:	0007883a 	mov	r3,zero
  800f44:	1000061e 	bne	r2,zero,800f60 <__sprint+0x34>
  800f48:	1805883a 	mov	r2,r3
  800f4c:	28000115 	stw	zero,4(r5)
  800f50:	dfc00117 	ldw	ra,4(sp)
  800f54:	dc000017 	ldw	r16,0(sp)
  800f58:	dec00204 	addi	sp,sp,8
  800f5c:	f800283a 	ret
  800f60:	0804fc00 	call	804fc0 <__sfvwrite>
  800f64:	1007883a 	mov	r3,r2
  800f68:	1805883a 	mov	r2,r3
  800f6c:	80000115 	stw	zero,4(r16)
  800f70:	80000215 	stw	zero,8(r16)
  800f74:	dfc00117 	ldw	ra,4(sp)
  800f78:	dc000017 	ldw	r16,0(sp)
  800f7c:	dec00204 	addi	sp,sp,8
  800f80:	f800283a 	ret

00800f84 <___vfprintf_internal_r>:
  800f84:	defe4a04 	addi	sp,sp,-1752
  800f88:	dc01b315 	stw	r16,1740(sp)
  800f8c:	d9419e15 	stw	r5,1656(sp)
  800f90:	d9019d15 	stw	r4,1652(sp)
  800f94:	dfc1b515 	stw	ra,1748(sp)
  800f98:	df01b415 	stw	fp,1744(sp)
  800f9c:	dc41b215 	stw	r17,1736(sp)
  800fa0:	dc81b115 	stw	r18,1732(sp)
  800fa4:	dcc1b015 	stw	r19,1728(sp)
  800fa8:	dd01af15 	stw	r20,1724(sp)
  800fac:	dd41ae15 	stw	r21,1720(sp)
  800fb0:	dd81ad15 	stw	r22,1716(sp)
  800fb4:	ddc1ac15 	stw	r23,1712(sp)
  800fb8:	3021883a 	mov	r16,r6
  800fbc:	d9c19f15 	stw	r7,1660(sp)
  800fc0:	08054d00 	call	8054d0 <localeconv>
  800fc4:	d8c19e17 	ldw	r3,1656(sp)
  800fc8:	10800017 	ldw	r2,0(r2)
  800fcc:	000b883a 	mov	r5,zero
  800fd0:	1900030b 	ldhu	r4,12(r3)
  800fd4:	d881a315 	stw	r2,1676(sp)
  800fd8:	d941a415 	stw	r5,1680(sp)
  800fdc:	2080020c 	andi	r2,r4,8
  800fe0:	d941a515 	stw	r5,1684(sp)
  800fe4:	d801a615 	stw	zero,1688(sp)
  800fe8:	d801a915 	stw	zero,1700(sp)
  800fec:	d801aa15 	stw	zero,1704(sp)
  800ff0:	10004226 	beq	r2,zero,8010fc <___vfprintf_internal_r+0x178>
  800ff4:	18800417 	ldw	r2,16(r3)
  800ff8:	10004026 	beq	r2,zero,8010fc <___vfprintf_internal_r+0x178>
  800ffc:	20c0068c 	andi	r3,r4,26
  801000:	00800284 	movi	r2,10
  801004:	18804626 	beq	r3,r2,801120 <___vfprintf_internal_r+0x19c>
  801008:	dc800904 	addi	r18,sp,36
  80100c:	802d883a 	mov	r22,r16
  801010:	dc800615 	stw	r18,24(sp)
  801014:	d8000815 	stw	zero,32(sp)
  801018:	d8000715 	stw	zero,28(sp)
  80101c:	d801a115 	stw	zero,1668(sp)
  801020:	b1000003 	ldbu	r4,0(r22)
  801024:	b027883a 	mov	r19,r22
  801028:	20803fcc 	andi	r2,r4,255
  80102c:	1080201c 	xori	r2,r2,128
  801030:	10bfe004 	addi	r2,r2,-128
  801034:	10000826 	beq	r2,zero,801058 <___vfprintf_internal_r+0xd4>
  801038:	00c00944 	movi	r3,37
  80103c:	10c00626 	beq	r2,r3,801058 <___vfprintf_internal_r+0xd4>
  801040:	b5800044 	addi	r22,r22,1
  801044:	b1000003 	ldbu	r4,0(r22)
  801048:	20803fcc 	andi	r2,r4,255
  80104c:	1080201c 	xori	r2,r2,128
  801050:	10bfe004 	addi	r2,r2,-128
  801054:	103ff91e 	bne	r2,zero,80103c <___vfprintf_internal_r+0xb8>
  801058:	b4e3c83a 	sub	r17,r22,r19
  80105c:	88000f26 	beq	r17,zero,80109c <___vfprintf_internal_r+0x118>
  801060:	d8800817 	ldw	r2,32(sp)
  801064:	d8c00717 	ldw	r3,28(sp)
  801068:	94c00015 	stw	r19,0(r18)
  80106c:	1445883a 	add	r2,r2,r17
  801070:	18c00044 	addi	r3,r3,1
  801074:	d8800815 	stw	r2,32(sp)
  801078:	008001c4 	movi	r2,7
  80107c:	94400115 	stw	r17,4(r18)
  801080:	d8c00715 	stw	r3,28(sp)
  801084:	94800204 	addi	r18,r18,8
  801088:	10c05a16 	blt	r2,r3,8011f4 <___vfprintf_internal_r+0x270>
  80108c:	d8c1a117 	ldw	r3,1668(sp)
  801090:	b1000003 	ldbu	r4,0(r22)
  801094:	1c47883a 	add	r3,r3,r17
  801098:	d8c1a115 	stw	r3,1668(sp)
  80109c:	20803fcc 	andi	r2,r4,255
  8010a0:	1080201c 	xori	r2,r2,128
  8010a4:	10bfe004 	addi	r2,r2,-128
  8010a8:	10036d26 	beq	r2,zero,801e60 <___vfprintf_internal_r+0xedc>
  8010ac:	b5800044 	addi	r22,r22,1
  8010b0:	b1000003 	ldbu	r4,0(r22)
  8010b4:	053fffc4 	movi	r20,-1
  8010b8:	d801a015 	stw	zero,1664(sp)
  8010bc:	d801a715 	stw	zero,1692(sp)
  8010c0:	d801a215 	stw	zero,1672(sp)
  8010c4:	d8019c05 	stb	zero,1648(sp)
  8010c8:	27003fcc 	andi	fp,r4,255
  8010cc:	e700201c 	xori	fp,fp,128
  8010d0:	e73fe004 	addi	fp,fp,-128
  8010d4:	b5800044 	addi	r22,r22,1
  8010d8:	e0fff804 	addi	r3,fp,-32
  8010dc:	00801604 	movi	r2,88
  8010e0:	10c19c36 	bltu	r2,r3,801754 <___vfprintf_internal_r+0x7d0>
  8010e4:	180490ba 	slli	r2,r3,2
  8010e8:	00c02074 	movhi	r3,129
  8010ec:	18c08004 	addi	r3,r3,512
  8010f0:	10c5883a 	add	r2,r2,r3
  8010f4:	11000017 	ldw	r4,0(r2)
  8010f8:	2000683a 	jmp	r4
  8010fc:	d9019e17 	ldw	r4,1656(sp)
  801100:	08032c00 	call	8032c0 <__swsetup>
  801104:	00ffffc4 	movi	r3,-1
  801108:	10002d1e 	bne	r2,zero,8011c0 <___vfprintf_internal_r+0x23c>
  80110c:	d9c19e17 	ldw	r7,1656(sp)
  801110:	00800284 	movi	r2,10
  801114:	3900030b 	ldhu	r4,12(r7)
  801118:	20c0068c 	andi	r3,r4,26
  80111c:	18bfba1e 	bne	r3,r2,801008 <___vfprintf_internal_r+0x84>
  801120:	d8819e17 	ldw	r2,1656(sp)
  801124:	1280038b 	ldhu	r10,14(r2)
  801128:	50bfffcc 	andi	r2,r10,65535
  80112c:	10a0001c 	xori	r2,r2,32768
  801130:	10a00004 	addi	r2,r2,-32768
  801134:	103fb416 	blt	r2,zero,801008 <___vfprintf_internal_r+0x84>
  801138:	d8c19e17 	ldw	r3,1656(sp)
  80113c:	d9819f17 	ldw	r6,1660(sp)
  801140:	dc407104 	addi	r17,sp,452
  801144:	1a000717 	ldw	r8,28(r3)
  801148:	1a400917 	ldw	r9,36(r3)
  80114c:	20bfff4c 	andi	r2,r4,65533
  801150:	d8c08804 	addi	r3,sp,544
  801154:	01c10004 	movi	r7,1024
  801158:	800b883a 	mov	r5,r16
  80115c:	8809883a 	mov	r4,r17
  801160:	d880740d 	sth	r2,464(sp)
  801164:	da80748d 	sth	r10,466(sp)
  801168:	da007815 	stw	r8,480(sp)
  80116c:	da407a15 	stw	r9,488(sp)
  801170:	d8c07515 	stw	r3,468(sp)
  801174:	d9c07615 	stw	r7,472(sp)
  801178:	d8c07115 	stw	r3,452(sp)
  80117c:	d9c07315 	stw	r7,460(sp)
  801180:	d8007715 	stw	zero,476(sp)
  801184:	0802bfc0 	call	802bfc <__vfprintf_internal>
  801188:	1021883a 	mov	r16,r2
  80118c:	10000416 	blt	r2,zero,8011a0 <___vfprintf_internal_r+0x21c>
  801190:	8809883a 	mov	r4,r17
  801194:	08049e40 	call	8049e4 <fflush>
  801198:	10000126 	beq	r2,zero,8011a0 <___vfprintf_internal_r+0x21c>
  80119c:	043fffc4 	movi	r16,-1
  8011a0:	d880740b 	ldhu	r2,464(sp)
  8011a4:	1080100c 	andi	r2,r2,64
  8011a8:	10000426 	beq	r2,zero,8011bc <___vfprintf_internal_r+0x238>
  8011ac:	d9019e17 	ldw	r4,1656(sp)
  8011b0:	2080030b 	ldhu	r2,12(r4)
  8011b4:	10801014 	ori	r2,r2,64
  8011b8:	2080030d 	sth	r2,12(r4)
  8011bc:	8007883a 	mov	r3,r16
  8011c0:	1805883a 	mov	r2,r3
  8011c4:	dfc1b517 	ldw	ra,1748(sp)
  8011c8:	df01b417 	ldw	fp,1744(sp)
  8011cc:	dc01b317 	ldw	r16,1740(sp)
  8011d0:	dc41b217 	ldw	r17,1736(sp)
  8011d4:	dc81b117 	ldw	r18,1732(sp)
  8011d8:	dcc1b017 	ldw	r19,1728(sp)
  8011dc:	dd01af17 	ldw	r20,1724(sp)
  8011e0:	dd41ae17 	ldw	r21,1720(sp)
  8011e4:	dd81ad17 	ldw	r22,1716(sp)
  8011e8:	ddc1ac17 	ldw	r23,1712(sp)
  8011ec:	dec1b604 	addi	sp,sp,1752
  8011f0:	f800283a 	ret
  8011f4:	d9019e17 	ldw	r4,1656(sp)
  8011f8:	d9c00404 	addi	r7,sp,16
  8011fc:	39400204 	addi	r5,r7,8
  801200:	0800f2c0 	call	800f2c <__sprint>
  801204:	10031e1e 	bne	r2,zero,801e80 <___vfprintf_internal_r+0xefc>
  801208:	d8800404 	addi	r2,sp,16
  80120c:	14800504 	addi	r18,r2,20
  801210:	003f9e06 	br	80108c <___vfprintf_internal_r+0x108>
  801214:	d901a017 	ldw	r4,1664(sp)
  801218:	21000414 	ori	r4,r4,16
  80121c:	d901a015 	stw	r4,1664(sp)
  801220:	d941a017 	ldw	r5,1664(sp)
  801224:	2880080c 	andi	r2,r5,32
  801228:	10042226 	beq	r2,zero,8022b4 <___vfprintf_internal_r+0x1330>
  80122c:	d8819f17 	ldw	r2,1660(sp)
  801230:	00c00044 	movi	r3,1
  801234:	14000017 	ldw	r16,0(r2)
  801238:	14400117 	ldw	r17,4(r2)
  80123c:	11c00204 	addi	r7,r2,8
  801240:	d9c19f15 	stw	r7,1660(sp)
  801244:	d8019c05 	stb	zero,1648(sp)
  801248:	dd01a715 	stw	r20,1692(sp)
  80124c:	a0000416 	blt	r20,zero,801260 <___vfprintf_internal_r+0x2dc>
  801250:	d941a017 	ldw	r5,1664(sp)
  801254:	00bfdfc4 	movi	r2,-129
  801258:	288a703a 	and	r5,r5,r2
  80125c:	d941a015 	stw	r5,1664(sp)
  801260:	d9c00404 	addi	r7,sp,16
  801264:	8444b03a 	or	r2,r16,r17
  801268:	3cc06c04 	addi	r19,r7,432
  80126c:	1000021e 	bne	r2,zero,801278 <___vfprintf_internal_r+0x2f4>
  801270:	d881a717 	ldw	r2,1692(sp)
  801274:	10036426 	beq	r2,zero,802008 <___vfprintf_internal_r+0x1084>
  801278:	18c03fcc 	andi	r3,r3,255
  80127c:	00800044 	movi	r2,1
  801280:	1880ec26 	beq	r3,r2,801634 <___vfprintf_internal_r+0x6b0>
  801284:	10c34f16 	blt	r2,r3,801fc4 <___vfprintf_internal_r+0x1040>
  801288:	1800f626 	beq	r3,zero,801664 <___vfprintf_internal_r+0x6e0>
  80128c:	04c02074 	movhi	r19,129
  801290:	9cc0d904 	addi	r19,r19,868
  801294:	9809883a 	mov	r4,r19
  801298:	08070bc0 	call	8070bc <strlen>
  80129c:	102f883a 	mov	r23,r2
  8012a0:	d881a717 	ldw	r2,1692(sp)
  8012a4:	ddc1a815 	stw	r23,1696(sp)
  8012a8:	b880010e 	bge	r23,r2,8012b0 <___vfprintf_internal_r+0x32c>
  8012ac:	d881a815 	stw	r2,1696(sp)
  8012b0:	d8c19c03 	ldbu	r3,1648(sp)
  8012b4:	18023c26 	beq	r3,zero,801ba8 <___vfprintf_internal_r+0xc24>
  8012b8:	d901a817 	ldw	r4,1696(sp)
  8012bc:	21000044 	addi	r4,r4,1
  8012c0:	d901a815 	stw	r4,1696(sp)
  8012c4:	d881a017 	ldw	r2,1664(sp)
  8012c8:	1080210c 	andi	r2,r2,132
  8012cc:	d881ab15 	stw	r2,1708(sp)
  8012d0:	10002e1e 	bne	r2,zero,80138c <___vfprintf_internal_r+0x408>
  8012d4:	d941a217 	ldw	r5,1672(sp)
  8012d8:	d901a817 	ldw	r4,1696(sp)
  8012dc:	2921c83a 	sub	r16,r5,r4
  8012e0:	04002a0e 	bge	zero,r16,80138c <___vfprintf_internal_r+0x408>
  8012e4:	04400404 	movi	r17,16
  8012e8:	8c001a0e 	bge	r17,r16,801354 <___vfprintf_internal_r+0x3d0>
  8012ec:	882b883a 	mov	r21,r17
  8012f0:	050001c4 	movi	r20,7
  8012f4:	00000206 	br	801300 <___vfprintf_internal_r+0x37c>
  8012f8:	843ffc04 	addi	r16,r16,-16
  8012fc:	ac00150e 	bge	r21,r16,801354 <___vfprintf_internal_r+0x3d0>
  801300:	d8800817 	ldw	r2,32(sp)
  801304:	d8c00717 	ldw	r3,28(sp)
  801308:	01c02074 	movhi	r7,129
  80130c:	39c07804 	addi	r7,r7,480
  801310:	10800404 	addi	r2,r2,16
  801314:	18c00044 	addi	r3,r3,1
  801318:	91c00015 	stw	r7,0(r18)
  80131c:	94400115 	stw	r17,4(r18)
  801320:	d8800815 	stw	r2,32(sp)
  801324:	d8c00715 	stw	r3,28(sp)
  801328:	94800204 	addi	r18,r18,8
  80132c:	a0fff20e 	bge	r20,r3,8012f8 <___vfprintf_internal_r+0x374>
  801330:	d9019e17 	ldw	r4,1656(sp)
  801334:	d8800404 	addi	r2,sp,16
  801338:	11400204 	addi	r5,r2,8
  80133c:	0800f2c0 	call	800f2c <__sprint>
  801340:	1002cf1e 	bne	r2,zero,801e80 <___vfprintf_internal_r+0xefc>
  801344:	d8c00404 	addi	r3,sp,16
  801348:	843ffc04 	addi	r16,r16,-16
  80134c:	1c800504 	addi	r18,r3,20
  801350:	ac3feb16 	blt	r21,r16,801300 <___vfprintf_internal_r+0x37c>
  801354:	d8800817 	ldw	r2,32(sp)
  801358:	d8c00717 	ldw	r3,28(sp)
  80135c:	01002074 	movhi	r4,129
  801360:	21007804 	addi	r4,r4,480
  801364:	1405883a 	add	r2,r2,r16
  801368:	18c00044 	addi	r3,r3,1
  80136c:	d8800815 	stw	r2,32(sp)
  801370:	008001c4 	movi	r2,7
  801374:	91000015 	stw	r4,0(r18)
  801378:	94000115 	stw	r16,4(r18)
  80137c:	d8c00715 	stw	r3,28(sp)
  801380:	94800204 	addi	r18,r18,8
  801384:	10c37c16 	blt	r2,r3,802178 <___vfprintf_internal_r+0x11f4>
  801388:	d8c19c03 	ldbu	r3,1648(sp)
  80138c:	18803fcc 	andi	r2,r3,255
  801390:	1080201c 	xori	r2,r2,128
  801394:	10bfe004 	addi	r2,r2,-128
  801398:	10020a26 	beq	r2,zero,801bc4 <___vfprintf_internal_r+0xc40>
  80139c:	d9000817 	ldw	r4,32(sp)
  8013a0:	d9400717 	ldw	r5,28(sp)
  8013a4:	d8819c04 	addi	r2,sp,1648
  8013a8:	90800015 	stw	r2,0(r18)
  8013ac:	21000044 	addi	r4,r4,1
  8013b0:	29400044 	addi	r5,r5,1
  8013b4:	00c00044 	movi	r3,1
  8013b8:	008001c4 	movi	r2,7
  8013bc:	90c00115 	stw	r3,4(r18)
  8013c0:	d9000815 	stw	r4,32(sp)
  8013c4:	94800204 	addi	r18,r18,8
  8013c8:	d9400715 	stw	r5,28(sp)
  8013cc:	11431716 	blt	r2,r5,80202c <___vfprintf_internal_r+0x10a8>
  8013d0:	d8c1ab17 	ldw	r3,1708(sp)
  8013d4:	00802004 	movi	r2,128
  8013d8:	18821726 	beq	r3,r2,801c38 <___vfprintf_internal_r+0xcb4>
  8013dc:	d8c1a717 	ldw	r3,1692(sp)
  8013e0:	1de1c83a 	sub	r16,r3,r23
  8013e4:	0400300e 	bge	zero,r16,8014a8 <___vfprintf_internal_r+0x524>
  8013e8:	04400404 	movi	r17,16
  8013ec:	8c001a0e 	bge	r17,r16,801458 <___vfprintf_internal_r+0x4d4>
  8013f0:	882b883a 	mov	r21,r17
  8013f4:	050001c4 	movi	r20,7
  8013f8:	00000206 	br	801404 <___vfprintf_internal_r+0x480>
  8013fc:	843ffc04 	addi	r16,r16,-16
  801400:	ac00150e 	bge	r21,r16,801458 <___vfprintf_internal_r+0x4d4>
  801404:	d8800817 	ldw	r2,32(sp)
  801408:	d8c00717 	ldw	r3,28(sp)
  80140c:	01002074 	movhi	r4,129
  801410:	21007c04 	addi	r4,r4,496
  801414:	10800404 	addi	r2,r2,16
  801418:	18c00044 	addi	r3,r3,1
  80141c:	91000015 	stw	r4,0(r18)
  801420:	94400115 	stw	r17,4(r18)
  801424:	d8800815 	stw	r2,32(sp)
  801428:	d8c00715 	stw	r3,28(sp)
  80142c:	94800204 	addi	r18,r18,8
  801430:	a0fff20e 	bge	r20,r3,8013fc <___vfprintf_internal_r+0x478>
  801434:	d9019e17 	ldw	r4,1656(sp)
  801438:	d9c00404 	addi	r7,sp,16
  80143c:	39400204 	addi	r5,r7,8
  801440:	0800f2c0 	call	800f2c <__sprint>
  801444:	10028e1e 	bne	r2,zero,801e80 <___vfprintf_internal_r+0xefc>
  801448:	d8800404 	addi	r2,sp,16
  80144c:	843ffc04 	addi	r16,r16,-16
  801450:	14800504 	addi	r18,r2,20
  801454:	ac3feb16 	blt	r21,r16,801404 <___vfprintf_internal_r+0x480>
  801458:	d8800817 	ldw	r2,32(sp)
  80145c:	d8c00717 	ldw	r3,28(sp)
  801460:	01002074 	movhi	r4,129
  801464:	21007c04 	addi	r4,r4,496
  801468:	1405883a 	add	r2,r2,r16
  80146c:	18c00044 	addi	r3,r3,1
  801470:	d8800815 	stw	r2,32(sp)
  801474:	008001c4 	movi	r2,7
  801478:	91000015 	stw	r4,0(r18)
  80147c:	94000115 	stw	r16,4(r18)
  801480:	d8c00715 	stw	r3,28(sp)
  801484:	94800204 	addi	r18,r18,8
  801488:	10c0070e 	bge	r2,r3,8014a8 <___vfprintf_internal_r+0x524>
  80148c:	d9019e17 	ldw	r4,1656(sp)
  801490:	d9c00404 	addi	r7,sp,16
  801494:	39400204 	addi	r5,r7,8
  801498:	0800f2c0 	call	800f2c <__sprint>
  80149c:	1002781e 	bne	r2,zero,801e80 <___vfprintf_internal_r+0xefc>
  8014a0:	d8800404 	addi	r2,sp,16
  8014a4:	14800504 	addi	r18,r2,20
  8014a8:	d8c1a017 	ldw	r3,1664(sp)
  8014ac:	1880400c 	andi	r2,r3,256
  8014b0:	1002161e 	bne	r2,zero,801d0c <___vfprintf_internal_r+0xd88>
  8014b4:	d8800817 	ldw	r2,32(sp)
  8014b8:	d8c00717 	ldw	r3,28(sp)
  8014bc:	94c00015 	stw	r19,0(r18)
  8014c0:	15c5883a 	add	r2,r2,r23
  8014c4:	18c00044 	addi	r3,r3,1
  8014c8:	d8800815 	stw	r2,32(sp)
  8014cc:	008001c4 	movi	r2,7
  8014d0:	95c00115 	stw	r23,4(r18)
  8014d4:	d8c00715 	stw	r3,28(sp)
  8014d8:	94800204 	addi	r18,r18,8
  8014dc:	10c25d16 	blt	r2,r3,801e54 <___vfprintf_internal_r+0xed0>
  8014e0:	d8c1a017 	ldw	r3,1664(sp)
  8014e4:	1880010c 	andi	r2,r3,4
  8014e8:	10003126 	beq	r2,zero,8015b0 <___vfprintf_internal_r+0x62c>
  8014ec:	d941a217 	ldw	r5,1672(sp)
  8014f0:	d901a817 	ldw	r4,1696(sp)
  8014f4:	2921c83a 	sub	r16,r5,r4
  8014f8:	04002d0e 	bge	zero,r16,8015b0 <___vfprintf_internal_r+0x62c>
  8014fc:	04400404 	movi	r17,16
  801500:	8c001a0e 	bge	r17,r16,80156c <___vfprintf_internal_r+0x5e8>
  801504:	8829883a 	mov	r20,r17
  801508:	04c001c4 	movi	r19,7
  80150c:	00000206 	br	801518 <___vfprintf_internal_r+0x594>
  801510:	843ffc04 	addi	r16,r16,-16
  801514:	a400150e 	bge	r20,r16,80156c <___vfprintf_internal_r+0x5e8>
  801518:	d8800817 	ldw	r2,32(sp)
  80151c:	d8c00717 	ldw	r3,28(sp)
  801520:	01c02074 	movhi	r7,129
  801524:	39c07804 	addi	r7,r7,480
  801528:	10800404 	addi	r2,r2,16
  80152c:	18c00044 	addi	r3,r3,1
  801530:	91c00015 	stw	r7,0(r18)
  801534:	94400115 	stw	r17,4(r18)
  801538:	d8800815 	stw	r2,32(sp)
  80153c:	d8c00715 	stw	r3,28(sp)
  801540:	94800204 	addi	r18,r18,8
  801544:	98fff20e 	bge	r19,r3,801510 <___vfprintf_internal_r+0x58c>
  801548:	d9019e17 	ldw	r4,1656(sp)
  80154c:	d8800404 	addi	r2,sp,16
  801550:	11400204 	addi	r5,r2,8
  801554:	0800f2c0 	call	800f2c <__sprint>
  801558:	1002491e 	bne	r2,zero,801e80 <___vfprintf_internal_r+0xefc>
  80155c:	d8c00404 	addi	r3,sp,16
  801560:	843ffc04 	addi	r16,r16,-16
  801564:	1c800504 	addi	r18,r3,20
  801568:	a43feb16 	blt	r20,r16,801518 <___vfprintf_internal_r+0x594>
  80156c:	d8800817 	ldw	r2,32(sp)
  801570:	d8c00717 	ldw	r3,28(sp)
  801574:	01002074 	movhi	r4,129
  801578:	21007804 	addi	r4,r4,480
  80157c:	1405883a 	add	r2,r2,r16
  801580:	18c00044 	addi	r3,r3,1
  801584:	d8800815 	stw	r2,32(sp)
  801588:	008001c4 	movi	r2,7
  80158c:	91000015 	stw	r4,0(r18)
  801590:	94000115 	stw	r16,4(r18)
  801594:	d8c00715 	stw	r3,28(sp)
  801598:	10c0050e 	bge	r2,r3,8015b0 <___vfprintf_internal_r+0x62c>
  80159c:	d9019e17 	ldw	r4,1656(sp)
  8015a0:	d9c00404 	addi	r7,sp,16
  8015a4:	39400204 	addi	r5,r7,8
  8015a8:	0800f2c0 	call	800f2c <__sprint>
  8015ac:	1002341e 	bne	r2,zero,801e80 <___vfprintf_internal_r+0xefc>
  8015b0:	d881a817 	ldw	r2,1696(sp)
  8015b4:	d8c1a217 	ldw	r3,1672(sp)
  8015b8:	10c0010e 	bge	r2,r3,8015c0 <___vfprintf_internal_r+0x63c>
  8015bc:	1805883a 	mov	r2,r3
  8015c0:	d901a117 	ldw	r4,1668(sp)
  8015c4:	2089883a 	add	r4,r4,r2
  8015c8:	d8800817 	ldw	r2,32(sp)
  8015cc:	d901a115 	stw	r4,1668(sp)
  8015d0:	1002361e 	bne	r2,zero,801eac <___vfprintf_internal_r+0xf28>
  8015d4:	d8c1aa17 	ldw	r3,1704(sp)
  8015d8:	d8800404 	addi	r2,sp,16
  8015dc:	d8000715 	stw	zero,28(sp)
  8015e0:	14800504 	addi	r18,r2,20
  8015e4:	183e8e26 	beq	r3,zero,801020 <___vfprintf_internal_r+0x9c>
  8015e8:	1809883a 	mov	r4,r3
  8015ec:	08007e00 	call	8007e0 <free>
  8015f0:	d801aa15 	stw	zero,1704(sp)
  8015f4:	003e8a06 	br	801020 <___vfprintf_internal_r+0x9c>
  8015f8:	8009883a 	mov	r4,r16
  8015fc:	880b883a 	mov	r5,r17
  801600:	01800284 	movi	r6,10
  801604:	000f883a 	mov	r7,zero
  801608:	08079d40 	call	8079d4 <__umoddi3>
  80160c:	11000c04 	addi	r4,r2,48
  801610:	9cffffc4 	addi	r19,r19,-1
  801614:	99000005 	stb	r4,0(r19)
  801618:	880b883a 	mov	r5,r17
  80161c:	8009883a 	mov	r4,r16
  801620:	01800284 	movi	r6,10
  801624:	000f883a 	mov	r7,zero
  801628:	08073e40 	call	8073e4 <__udivdi3>
  80162c:	1021883a 	mov	r16,r2
  801630:	1823883a 	mov	r17,r3
  801634:	88800068 	cmpgeui	r2,r17,1
  801638:	103fef1e 	bne	r2,zero,8015f8 <___vfprintf_internal_r+0x674>
  80163c:	8800021e 	bne	r17,zero,801648 <___vfprintf_internal_r+0x6c4>
  801640:	00800244 	movi	r2,9
  801644:	143fec36 	bltu	r2,r16,8015f8 <___vfprintf_internal_r+0x674>
  801648:	9cffffc4 	addi	r19,r19,-1
  80164c:	80800c04 	addi	r2,r16,48
  801650:	98800005 	stb	r2,0(r19)
  801654:	d9400404 	addi	r5,sp,16
  801658:	2cc5c83a 	sub	r2,r5,r19
  80165c:	15c06c04 	addi	r23,r2,432
  801660:	003f0f06 	br	8012a0 <___vfprintf_internal_r+0x31c>
  801664:	8008d0fa 	srli	r4,r16,3
  801668:	880a977a 	slli	r5,r17,29
  80166c:	8806d0fa 	srli	r3,r17,3
  801670:	818001cc 	andi	r6,r16,7
  801674:	2904b03a 	or	r2,r5,r4
  801678:	9cffffc4 	addi	r19,r19,-1
  80167c:	31800c04 	addi	r6,r6,48
  801680:	10c8b03a 	or	r4,r2,r3
  801684:	99800005 	stb	r6,0(r19)
  801688:	1021883a 	mov	r16,r2
  80168c:	1823883a 	mov	r17,r3
  801690:	203ff41e 	bne	r4,zero,801664 <___vfprintf_internal_r+0x6e0>
  801694:	d8c1a017 	ldw	r3,1664(sp)
  801698:	1880004c 	andi	r2,r3,1
  80169c:	103fed26 	beq	r2,zero,801654 <___vfprintf_internal_r+0x6d0>
  8016a0:	00800c04 	movi	r2,48
  8016a4:	30bfeb26 	beq	r6,r2,801654 <___vfprintf_internal_r+0x6d0>
  8016a8:	9cffffc4 	addi	r19,r19,-1
  8016ac:	003fe806 	br	801650 <___vfprintf_internal_r+0x6cc>
  8016b0:	d881a017 	ldw	r2,1664(sp)
  8016b4:	10800414 	ori	r2,r2,16
  8016b8:	d881a015 	stw	r2,1664(sp)
  8016bc:	d8c1a017 	ldw	r3,1664(sp)
  8016c0:	1880080c 	andi	r2,r3,32
  8016c4:	1002e626 	beq	r2,zero,802260 <___vfprintf_internal_r+0x12dc>
  8016c8:	d8819f17 	ldw	r2,1660(sp)
  8016cc:	0007883a 	mov	r3,zero
  8016d0:	14000017 	ldw	r16,0(r2)
  8016d4:	14400117 	ldw	r17,4(r2)
  8016d8:	11000204 	addi	r4,r2,8
  8016dc:	d9019f15 	stw	r4,1660(sp)
  8016e0:	003ed806 	br	801244 <___vfprintf_internal_r+0x2c0>
  8016e4:	d9c1a017 	ldw	r7,1664(sp)
  8016e8:	39c00414 	ori	r7,r7,16
  8016ec:	d9c1a015 	stw	r7,1664(sp)
  8016f0:	d8c1a017 	ldw	r3,1664(sp)
  8016f4:	1880080c 	andi	r2,r3,32
  8016f8:	1002e326 	beq	r2,zero,802288 <___vfprintf_internal_r+0x1304>
  8016fc:	d8819f17 	ldw	r2,1660(sp)
  801700:	14400117 	ldw	r17,4(r2)
  801704:	11000204 	addi	r4,r2,8
  801708:	14000017 	ldw	r16,0(r2)
  80170c:	d9019f15 	stw	r4,1660(sp)
  801710:	88011716 	blt	r17,zero,801b70 <___vfprintf_internal_r+0xbec>
  801714:	00c00044 	movi	r3,1
  801718:	003ecb06 	br	801248 <___vfprintf_internal_r+0x2c4>
  80171c:	d8819f17 	ldw	r2,1660(sp)
  801720:	d9c19f17 	ldw	r7,1660(sp)
  801724:	10800017 	ldw	r2,0(r2)
  801728:	39c00104 	addi	r7,r7,4
  80172c:	d9c19f15 	stw	r7,1660(sp)
  801730:	d881a215 	stw	r2,1672(sp)
  801734:	10010c0e 	bge	r2,zero,801b68 <___vfprintf_internal_r+0xbe4>
  801738:	0085c83a 	sub	r2,zero,r2
  80173c:	d881a215 	stw	r2,1672(sp)
  801740:	d881a017 	ldw	r2,1664(sp)
  801744:	b1000003 	ldbu	r4,0(r22)
  801748:	10800114 	ori	r2,r2,4
  80174c:	d881a015 	stw	r2,1664(sp)
  801750:	003e5d06 	br	8010c8 <___vfprintf_internal_r+0x144>
  801754:	e001c226 	beq	fp,zero,801e60 <___vfprintf_internal_r+0xedc>
  801758:	d9c00404 	addi	r7,sp,16
  80175c:	3cc01504 	addi	r19,r7,84
  801760:	9f000005 	stb	fp,0(r19)
  801764:	05c00044 	movi	r23,1
  801768:	d8019c05 	stb	zero,1648(sp)
  80176c:	003ecc06 	br	8012a0 <___vfprintf_internal_r+0x31c>
  801770:	d8819f17 	ldw	r2,1660(sp)
  801774:	14c00017 	ldw	r19,0(r2)
  801778:	11400104 	addi	r5,r2,4
  80177c:	d8019c05 	stb	zero,1648(sp)
  801780:	d9419f15 	stw	r5,1660(sp)
  801784:	9803db26 	beq	r19,zero,8026f4 <___vfprintf_internal_r+0x1770>
  801788:	008014c4 	movi	r2,83
  80178c:	e0800326 	beq	fp,r2,80179c <___vfprintf_internal_r+0x818>
  801790:	d9c1a017 	ldw	r7,1664(sp)
  801794:	3880040c 	andi	r2,r7,16
  801798:	10035826 	beq	r2,zero,8024fc <___vfprintf_internal_r+0x1578>
  80179c:	d9019904 	addi	r4,sp,1636
  8017a0:	000b883a 	mov	r5,zero
  8017a4:	01800204 	movi	r6,8
  8017a8:	dcc19b15 	stw	r19,1644(sp)
  8017ac:	0023883a 	mov	r17,zero
  8017b0:	002f883a 	mov	r23,zero
  8017b4:	08058b80 	call	8058b8 <memset>
  8017b8:	a004c616 	blt	r20,zero,802ad4 <___vfprintf_internal_r+0x1b50>
  8017bc:	057fffc4 	movi	r21,-1
  8017c0:	880490ba 	slli	r2,r17,2
  8017c4:	d8c19b17 	ldw	r3,1644(sp)
  8017c8:	10c5883a 	add	r2,r2,r3
  8017cc:	11800017 	ldw	r6,0(r2)
  8017d0:	30000b26 	beq	r6,zero,801800 <___vfprintf_internal_r+0x87c>
  8017d4:	d9019d17 	ldw	r4,1652(sp)
  8017d8:	d8800404 	addi	r2,sp,16
  8017dc:	11401504 	addi	r5,r2,84
  8017e0:	d9c19904 	addi	r7,sp,1636
  8017e4:	0802c680 	call	802c68 <_wcrtomb_r>
  8017e8:	1541a526 	beq	r2,r21,801e80 <___vfprintf_internal_r+0xefc>
  8017ec:	15c5883a 	add	r2,r2,r23
  8017f0:	a0800316 	blt	r20,r2,801800 <___vfprintf_internal_r+0x87c>
  8017f4:	102f883a 	mov	r23,r2
  8017f8:	8c400044 	addi	r17,r17,1
  8017fc:	153ff01e 	bne	r2,r20,8017c0 <___vfprintf_internal_r+0x83c>
  801800:	b83ea726 	beq	r23,zero,8012a0 <___vfprintf_internal_r+0x31c>
  801804:	d9019d17 	ldw	r4,1652(sp)
  801808:	b9400044 	addi	r5,r23,1
  80180c:	08007f40 	call	8007f4 <_malloc_r>
  801810:	d881aa15 	stw	r2,1704(sp)
  801814:	10019a26 	beq	r2,zero,801e80 <___vfprintf_internal_r+0xefc>
  801818:	d9019904 	addi	r4,sp,1636
  80181c:	000b883a 	mov	r5,zero
  801820:	01800204 	movi	r6,8
  801824:	08058b80 	call	8058b8 <memset>
  801828:	d9019d17 	ldw	r4,1652(sp)
  80182c:	d941aa17 	ldw	r5,1704(sp)
  801830:	d8819904 	addi	r2,sp,1636
  801834:	b80f883a 	mov	r7,r23
  801838:	d9819b04 	addi	r6,sp,1644
  80183c:	d8800015 	stw	r2,0(sp)
  801840:	0802cf00 	call	802cf0 <_wcsrtombs_r>
  801844:	15c18e1e 	bne	r2,r23,801e80 <___vfprintf_internal_r+0xefc>
  801848:	d8c1aa17 	ldw	r3,1704(sp)
  80184c:	1dc5883a 	add	r2,r3,r23
  801850:	1827883a 	mov	r19,r3
  801854:	10000005 	stb	zero,0(r2)
  801858:	003e9106 	br	8012a0 <___vfprintf_internal_r+0x31c>
  80185c:	d8c1a017 	ldw	r3,1664(sp)
  801860:	1880080c 	andi	r2,r3,32
  801864:	10030826 	beq	r2,zero,802488 <___vfprintf_internal_r+0x1504>
  801868:	d8819f17 	ldw	r2,1660(sp)
  80186c:	d8c1a117 	ldw	r3,1668(sp)
  801870:	11400017 	ldw	r5,0(r2)
  801874:	1809d7fa 	srai	r4,r3,31
  801878:	11c00104 	addi	r7,r2,4
  80187c:	d9c19f15 	stw	r7,1660(sp)
  801880:	29000115 	stw	r4,4(r5)
  801884:	28c00015 	stw	r3,0(r5)
  801888:	003de506 	br	801020 <___vfprintf_internal_r+0x9c>
  80188c:	b7000007 	ldb	fp,0(r22)
  801890:	00800a84 	movi	r2,42
  801894:	b5800044 	addi	r22,r22,1
  801898:	e084d026 	beq	fp,r2,802bdc <___vfprintf_internal_r+0x1c58>
  80189c:	e0bff404 	addi	r2,fp,-48
  8018a0:	00c00244 	movi	r3,9
  8018a4:	0021883a 	mov	r16,zero
  8018a8:	18800a36 	bltu	r3,r2,8018d4 <___vfprintf_internal_r+0x950>
  8018ac:	1823883a 	mov	r17,r3
  8018b0:	8009883a 	mov	r4,r16
  8018b4:	01400284 	movi	r5,10
  8018b8:	08007a40 	call	8007a4 <__mulsi3>
  8018bc:	1705883a 	add	r2,r2,fp
  8018c0:	b7000007 	ldb	fp,0(r22)
  8018c4:	143ff404 	addi	r16,r2,-48
  8018c8:	b5800044 	addi	r22,r22,1
  8018cc:	e0bff404 	addi	r2,fp,-48
  8018d0:	88bff72e 	bgeu	r17,r2,8018b0 <___vfprintf_internal_r+0x92c>
  8018d4:	00bfffc4 	movi	r2,-1
  8018d8:	8029883a 	mov	r20,r16
  8018dc:	80bdfe0e 	bge	r16,r2,8010d8 <___vfprintf_internal_r+0x154>
  8018e0:	1029883a 	mov	r20,r2
  8018e4:	003dfc06 	br	8010d8 <___vfprintf_internal_r+0x154>
  8018e8:	b1000003 	ldbu	r4,0(r22)
  8018ec:	00801b04 	movi	r2,108
  8018f0:	20c03fcc 	andi	r3,r4,255
  8018f4:	18c0201c 	xori	r3,r3,128
  8018f8:	18ffe004 	addi	r3,r3,-128
  8018fc:	18835426 	beq	r3,r2,802650 <___vfprintf_internal_r+0x16cc>
  801900:	d941a017 	ldw	r5,1664(sp)
  801904:	29400414 	ori	r5,r5,16
  801908:	d941a015 	stw	r5,1664(sp)
  80190c:	003dee06 	br	8010c8 <___vfprintf_internal_r+0x144>
  801910:	b1000003 	ldbu	r4,0(r22)
  801914:	00800ac4 	movi	r2,43
  801918:	d8819c05 	stb	r2,1648(sp)
  80191c:	003dea06 	br	8010c8 <___vfprintf_internal_r+0x144>
  801920:	d9c1a017 	ldw	r7,1664(sp)
  801924:	b1000003 	ldbu	r4,0(r22)
  801928:	39c00814 	ori	r7,r7,32
  80192c:	d9c1a015 	stw	r7,1664(sp)
  801930:	003de506 	br	8010c8 <___vfprintf_internal_r+0x144>
  801934:	d8819f17 	ldw	r2,1660(sp)
  801938:	01002074 	movhi	r4,129
  80193c:	2100e004 	addi	r4,r4,896
  801940:	0023883a 	mov	r17,zero
  801944:	11c00104 	addi	r7,r2,4
  801948:	14000017 	ldw	r16,0(r2)
  80194c:	d881a017 	ldw	r2,1664(sp)
  801950:	00c00084 	movi	r3,2
  801954:	07001e04 	movi	fp,120
  801958:	10800094 	ori	r2,r2,2
  80195c:	d9c19f15 	stw	r7,1660(sp)
  801960:	d881a015 	stw	r2,1664(sp)
  801964:	d901a915 	stw	r4,1700(sp)
  801968:	003e3606 	br	801244 <___vfprintf_internal_r+0x2c0>
  80196c:	d941a017 	ldw	r5,1664(sp)
  801970:	01002074 	movhi	r4,129
  801974:	2100e004 	addi	r4,r4,896
  801978:	d901a915 	stw	r4,1700(sp)
  80197c:	2880080c 	andi	r2,r5,32
  801980:	10003326 	beq	r2,zero,801a50 <___vfprintf_internal_r+0xacc>
  801984:	d8819f17 	ldw	r2,1660(sp)
  801988:	14000017 	ldw	r16,0(r2)
  80198c:	14400117 	ldw	r17,4(r2)
  801990:	11c00204 	addi	r7,r2,8
  801994:	d9c19f15 	stw	r7,1660(sp)
  801998:	d8c1a017 	ldw	r3,1664(sp)
  80199c:	1880004c 	andi	r2,r3,1
  8019a0:	00c00084 	movi	r3,2
  8019a4:	103e2726 	beq	r2,zero,801244 <___vfprintf_internal_r+0x2c0>
  8019a8:	8444b03a 	or	r2,r16,r17
  8019ac:	103e2526 	beq	r2,zero,801244 <___vfprintf_internal_r+0x2c0>
  8019b0:	d901a017 	ldw	r4,1664(sp)
  8019b4:	21000094 	ori	r4,r4,2
  8019b8:	d901a015 	stw	r4,1664(sp)
  8019bc:	003e2106 	br	801244 <___vfprintf_internal_r+0x2c0>
  8019c0:	d941a017 	ldw	r5,1664(sp)
  8019c4:	b1000003 	ldbu	r4,0(r22)
  8019c8:	29400054 	ori	r5,r5,1
  8019cc:	d941a015 	stw	r5,1664(sp)
  8019d0:	003dbd06 	br	8010c8 <___vfprintf_internal_r+0x144>
  8019d4:	d8800404 	addi	r2,sp,16
  8019d8:	14c01504 	addi	r19,r2,84
  8019dc:	008010c4 	movi	r2,67
  8019e0:	e0800326 	beq	fp,r2,8019f0 <___vfprintf_internal_r+0xa6c>
  8019e4:	d8c1a017 	ldw	r3,1664(sp)
  8019e8:	1880040c 	andi	r2,r3,16
  8019ec:	1002b826 	beq	r2,zero,8024d0 <___vfprintf_internal_r+0x154c>
  8019f0:	d9019204 	addi	r4,sp,1608
  8019f4:	000b883a 	mov	r5,zero
  8019f8:	01800204 	movi	r6,8
  8019fc:	08058b80 	call	8058b8 <memset>
  801a00:	d8c19f17 	ldw	r3,1660(sp)
  801a04:	d9019d17 	ldw	r4,1652(sp)
  801a08:	980b883a 	mov	r5,r19
  801a0c:	19800017 	ldw	r6,0(r3)
  801a10:	d9c19204 	addi	r7,sp,1608
  801a14:	0802c680 	call	802c68 <_wcrtomb_r>
  801a18:	d9019f17 	ldw	r4,1660(sp)
  801a1c:	102f883a 	mov	r23,r2
  801a20:	00bfffc4 	movi	r2,-1
  801a24:	21000104 	addi	r4,r4,4
  801a28:	d9019f15 	stw	r4,1660(sp)
  801a2c:	b8811426 	beq	r23,r2,801e80 <___vfprintf_internal_r+0xefc>
  801a30:	d8019c05 	stb	zero,1648(sp)
  801a34:	003e1a06 	br	8012a0 <___vfprintf_internal_r+0x31c>
  801a38:	d941a017 	ldw	r5,1664(sp)
  801a3c:	00c02074 	movhi	r3,129
  801a40:	18c0e504 	addi	r3,r3,916
  801a44:	d8c1a915 	stw	r3,1700(sp)
  801a48:	2880080c 	andi	r2,r5,32
  801a4c:	103fcd1e 	bne	r2,zero,801984 <___vfprintf_internal_r+0xa00>
  801a50:	d8c1a017 	ldw	r3,1664(sp)
  801a54:	1880040c 	andi	r2,r3,16
  801a58:	10027926 	beq	r2,zero,802440 <___vfprintf_internal_r+0x14bc>
  801a5c:	d8819f17 	ldw	r2,1660(sp)
  801a60:	0023883a 	mov	r17,zero
  801a64:	14000017 	ldw	r16,0(r2)
  801a68:	11000104 	addi	r4,r2,4
  801a6c:	d9019f15 	stw	r4,1660(sp)
  801a70:	003fc906 	br	801998 <___vfprintf_internal_r+0xa14>
  801a74:	d881a017 	ldw	r2,1664(sp)
  801a78:	b1000003 	ldbu	r4,0(r22)
  801a7c:	10801014 	ori	r2,r2,64
  801a80:	d881a015 	stw	r2,1664(sp)
  801a84:	003d9006 	br	8010c8 <___vfprintf_internal_r+0x144>
  801a88:	00bfffc4 	movi	r2,-1
  801a8c:	a082f626 	beq	r20,r2,802668 <___vfprintf_internal_r+0x16e4>
  801a90:	008019c4 	movi	r2,103
  801a94:	e0829626 	beq	fp,r2,8024f0 <___vfprintf_internal_r+0x156c>
  801a98:	008011c4 	movi	r2,71
  801a9c:	e0829426 	beq	fp,r2,8024f0 <___vfprintf_internal_r+0x156c>
  801aa0:	d9019f17 	ldw	r4,1660(sp)
  801aa4:	20800017 	ldw	r2,0(r4)
  801aa8:	20c00117 	ldw	r3,4(r4)
  801aac:	21400204 	addi	r5,r4,8
  801ab0:	d881a415 	stw	r2,1680(sp)
  801ab4:	d8c1a515 	stw	r3,1684(sp)
  801ab8:	d9419f15 	stw	r5,1660(sp)
  801abc:	d901a417 	ldw	r4,1680(sp)
  801ac0:	d941a517 	ldw	r5,1684(sp)
  801ac4:	0806e100 	call	806e10 <isinf>
  801ac8:	1002d926 	beq	r2,zero,802630 <___vfprintf_internal_r+0x16ac>
  801acc:	d901a417 	ldw	r4,1680(sp)
  801ad0:	d941a517 	ldw	r5,1684(sp)
  801ad4:	000d883a 	mov	r6,zero
  801ad8:	000f883a 	mov	r7,zero
  801adc:	0808ca40 	call	808ca4 <__ltdf2>
  801ae0:	10002c16 	blt	r2,zero,801b94 <___vfprintf_internal_r+0xc10>
  801ae4:	04c02074 	movhi	r19,129
  801ae8:	9cc0ea04 	addi	r19,r19,936
  801aec:	05c000c4 	movi	r23,3
  801af0:	003deb06 	br	8012a0 <___vfprintf_internal_r+0x31c>
  801af4:	d9c1a017 	ldw	r7,1664(sp)
  801af8:	b1000003 	ldbu	r4,0(r22)
  801afc:	39c00214 	ori	r7,r7,8
  801b00:	d9c1a015 	stw	r7,1664(sp)
  801b04:	003d7006 	br	8010c8 <___vfprintf_internal_r+0x144>
  801b08:	d8819c07 	ldb	r2,1648(sp)
  801b0c:	1000161e 	bne	r2,zero,801b68 <___vfprintf_internal_r+0xbe4>
  801b10:	b1000003 	ldbu	r4,0(r22)
  801b14:	00800804 	movi	r2,32
  801b18:	d8819c05 	stb	r2,1648(sp)
  801b1c:	003d6a06 	br	8010c8 <___vfprintf_internal_r+0x144>
  801b20:	0021883a 	mov	r16,zero
  801b24:	04400244 	movi	r17,9
  801b28:	8009883a 	mov	r4,r16
  801b2c:	01400284 	movi	r5,10
  801b30:	08007a40 	call	8007a4 <__mulsi3>
  801b34:	1705883a 	add	r2,r2,fp
  801b38:	b7000007 	ldb	fp,0(r22)
  801b3c:	143ff404 	addi	r16,r2,-48
  801b40:	b5800044 	addi	r22,r22,1
  801b44:	e0bff404 	addi	r2,fp,-48
  801b48:	88bff72e 	bgeu	r17,r2,801b28 <___vfprintf_internal_r+0xba4>
  801b4c:	dc01a215 	stw	r16,1672(sp)
  801b50:	003d6106 	br	8010d8 <___vfprintf_internal_r+0x154>
  801b54:	d941a017 	ldw	r5,1664(sp)
  801b58:	b1000003 	ldbu	r4,0(r22)
  801b5c:	29402014 	ori	r5,r5,128
  801b60:	d941a015 	stw	r5,1664(sp)
  801b64:	003d5806 	br	8010c8 <___vfprintf_internal_r+0x144>
  801b68:	b1000003 	ldbu	r4,0(r22)
  801b6c:	003d5606 	br	8010c8 <___vfprintf_internal_r+0x144>
  801b70:	880b883a 	mov	r5,r17
  801b74:	8009883a 	mov	r4,r16
  801b78:	08073c40 	call	8073c4 <__negdi2>
  801b7c:	1021883a 	mov	r16,r2
  801b80:	1823883a 	mov	r17,r3
  801b84:	00800b44 	movi	r2,45
  801b88:	00c00044 	movi	r3,1
  801b8c:	d8819c05 	stb	r2,1648(sp)
  801b90:	003dad06 	br	801248 <___vfprintf_internal_r+0x2c4>
  801b94:	00800b44 	movi	r2,45
  801b98:	04c02074 	movhi	r19,129
  801b9c:	9cc0ea04 	addi	r19,r19,936
  801ba0:	d8819c05 	stb	r2,1648(sp)
  801ba4:	003fd106 	br	801aec <___vfprintf_internal_r+0xb68>
  801ba8:	d941a017 	ldw	r5,1664(sp)
  801bac:	2880008c 	andi	r2,r5,2
  801bb0:	103dc426 	beq	r2,zero,8012c4 <___vfprintf_internal_r+0x340>
  801bb4:	d9c1a817 	ldw	r7,1696(sp)
  801bb8:	39c00084 	addi	r7,r7,2
  801bbc:	d9c1a815 	stw	r7,1696(sp)
  801bc0:	003dc006 	br	8012c4 <___vfprintf_internal_r+0x340>
  801bc4:	d941a017 	ldw	r5,1664(sp)
  801bc8:	2880008c 	andi	r2,r5,2
  801bcc:	103e0026 	beq	r2,zero,8013d0 <___vfprintf_internal_r+0x44c>
  801bd0:	d9000817 	ldw	r4,32(sp)
  801bd4:	d9400717 	ldw	r5,28(sp)
  801bd8:	00800c04 	movi	r2,48
  801bdc:	d8807005 	stb	r2,448(sp)
  801be0:	df007045 	stb	fp,449(sp)
  801be4:	00800084 	movi	r2,2
  801be8:	d9c00404 	addi	r7,sp,16
  801bec:	90800115 	stw	r2,4(r18)
  801bf0:	21000084 	addi	r4,r4,2
  801bf4:	29400044 	addi	r5,r5,1
  801bf8:	38c06c04 	addi	r3,r7,432
  801bfc:	008001c4 	movi	r2,7
  801c00:	90c00015 	stw	r3,0(r18)
  801c04:	d9000815 	stw	r4,32(sp)
  801c08:	94800204 	addi	r18,r18,8
  801c0c:	d9400715 	stw	r5,28(sp)
  801c10:	117def0e 	bge	r2,r5,8013d0 <___vfprintf_internal_r+0x44c>
  801c14:	d9019e17 	ldw	r4,1656(sp)
  801c18:	39400204 	addi	r5,r7,8
  801c1c:	0800f2c0 	call	800f2c <__sprint>
  801c20:	1000971e 	bne	r2,zero,801e80 <___vfprintf_internal_r+0xefc>
  801c24:	d8c1ab17 	ldw	r3,1708(sp)
  801c28:	d8800404 	addi	r2,sp,16
  801c2c:	14800504 	addi	r18,r2,20
  801c30:	00802004 	movi	r2,128
  801c34:	18bde91e 	bne	r3,r2,8013dc <___vfprintf_internal_r+0x458>
  801c38:	d941a217 	ldw	r5,1672(sp)
  801c3c:	d901a817 	ldw	r4,1696(sp)
  801c40:	2921c83a 	sub	r16,r5,r4
  801c44:	043de50e 	bge	zero,r16,8013dc <___vfprintf_internal_r+0x458>
  801c48:	04400404 	movi	r17,16
  801c4c:	8c001a0e 	bge	r17,r16,801cb8 <___vfprintf_internal_r+0xd34>
  801c50:	882b883a 	mov	r21,r17
  801c54:	050001c4 	movi	r20,7
  801c58:	00000206 	br	801c64 <___vfprintf_internal_r+0xce0>
  801c5c:	843ffc04 	addi	r16,r16,-16
  801c60:	ac00150e 	bge	r21,r16,801cb8 <___vfprintf_internal_r+0xd34>
  801c64:	d8800817 	ldw	r2,32(sp)
  801c68:	d8c00717 	ldw	r3,28(sp)
  801c6c:	01c02074 	movhi	r7,129
  801c70:	39c07c04 	addi	r7,r7,496
  801c74:	10800404 	addi	r2,r2,16
  801c78:	18c00044 	addi	r3,r3,1
  801c7c:	91c00015 	stw	r7,0(r18)
  801c80:	94400115 	stw	r17,4(r18)
  801c84:	d8800815 	stw	r2,32(sp)
  801c88:	d8c00715 	stw	r3,28(sp)
  801c8c:	94800204 	addi	r18,r18,8
  801c90:	a0fff20e 	bge	r20,r3,801c5c <___vfprintf_internal_r+0xcd8>
  801c94:	d9019e17 	ldw	r4,1656(sp)
  801c98:	d8800404 	addi	r2,sp,16
  801c9c:	11400204 	addi	r5,r2,8
  801ca0:	0800f2c0 	call	800f2c <__sprint>
  801ca4:	1000761e 	bne	r2,zero,801e80 <___vfprintf_internal_r+0xefc>
  801ca8:	d8c00404 	addi	r3,sp,16
  801cac:	843ffc04 	addi	r16,r16,-16
  801cb0:	1c800504 	addi	r18,r3,20
  801cb4:	ac3feb16 	blt	r21,r16,801c64 <___vfprintf_internal_r+0xce0>
  801cb8:	d8800817 	ldw	r2,32(sp)
  801cbc:	d8c00717 	ldw	r3,28(sp)
  801cc0:	01002074 	movhi	r4,129
  801cc4:	21007c04 	addi	r4,r4,496
  801cc8:	1405883a 	add	r2,r2,r16
  801ccc:	18c00044 	addi	r3,r3,1
  801cd0:	d8800815 	stw	r2,32(sp)
  801cd4:	008001c4 	movi	r2,7
  801cd8:	91000015 	stw	r4,0(r18)
  801cdc:	94000115 	stw	r16,4(r18)
  801ce0:	d8c00715 	stw	r3,28(sp)
  801ce4:	94800204 	addi	r18,r18,8
  801ce8:	10fdbc0e 	bge	r2,r3,8013dc <___vfprintf_internal_r+0x458>
  801cec:	d9019e17 	ldw	r4,1656(sp)
  801cf0:	d9c00404 	addi	r7,sp,16
  801cf4:	39400204 	addi	r5,r7,8
  801cf8:	0800f2c0 	call	800f2c <__sprint>
  801cfc:	1000601e 	bne	r2,zero,801e80 <___vfprintf_internal_r+0xefc>
  801d00:	d8800404 	addi	r2,sp,16
  801d04:	14800504 	addi	r18,r2,20
  801d08:	003db406 	br	8013dc <___vfprintf_internal_r+0x458>
  801d0c:	00801944 	movi	r2,101
  801d10:	17006c0e 	bge	r2,fp,801ec4 <___vfprintf_internal_r+0xf40>
  801d14:	d901a417 	ldw	r4,1680(sp)
  801d18:	d941a517 	ldw	r5,1684(sp)
  801d1c:	000d883a 	mov	r6,zero
  801d20:	000f883a 	mov	r7,zero
  801d24:	0808a740 	call	808a74 <__eqdf2>
  801d28:	1000c81e 	bne	r2,zero,80204c <___vfprintf_internal_r+0x10c8>
  801d2c:	d8800817 	ldw	r2,32(sp)
  801d30:	d9000717 	ldw	r4,28(sp)
  801d34:	04400044 	movi	r17,1
  801d38:	10800044 	addi	r2,r2,1
  801d3c:	21000044 	addi	r4,r4,1
  801d40:	00c02074 	movhi	r3,129
  801d44:	18c0eb04 	addi	r3,r3,940
  801d48:	04c001c4 	movi	r19,7
  801d4c:	90c00015 	stw	r3,0(r18)
  801d50:	94400115 	stw	r17,4(r18)
  801d54:	d8800815 	stw	r2,32(sp)
  801d58:	d9000715 	stw	r4,28(sp)
  801d5c:	94800204 	addi	r18,r18,8
  801d60:	9901d316 	blt	r19,r4,8024b0 <___vfprintf_internal_r+0x152c>
  801d64:	dc019617 	ldw	r16,1624(sp)
  801d68:	d8819517 	ldw	r2,1620(sp)
  801d6c:	14000316 	blt	r2,r16,801d7c <___vfprintf_internal_r+0xdf8>
  801d70:	d941a017 	ldw	r5,1664(sp)
  801d74:	2880004c 	andi	r2,r5,1
  801d78:	103dd926 	beq	r2,zero,8014e0 <___vfprintf_internal_r+0x55c>
  801d7c:	d8800817 	ldw	r2,32(sp)
  801d80:	d8c00717 	ldw	r3,28(sp)
  801d84:	d9c1a317 	ldw	r7,1676(sp)
  801d88:	10800044 	addi	r2,r2,1
  801d8c:	18c00044 	addi	r3,r3,1
  801d90:	94400115 	stw	r17,4(r18)
  801d94:	91c00015 	stw	r7,0(r18)
  801d98:	d8800815 	stw	r2,32(sp)
  801d9c:	d8c00715 	stw	r3,28(sp)
  801da0:	94800204 	addi	r18,r18,8
  801da4:	98c1e016 	blt	r19,r3,802528 <___vfprintf_internal_r+0x15a4>
  801da8:	843fffc4 	addi	r16,r16,-1
  801dac:	043dcc0e 	bge	zero,r16,8014e0 <___vfprintf_internal_r+0x55c>
  801db0:	04400404 	movi	r17,16
  801db4:	8c001a0e 	bge	r17,r16,801e20 <___vfprintf_internal_r+0xe9c>
  801db8:	9829883a 	mov	r20,r19
  801dbc:	8827883a 	mov	r19,r17
  801dc0:	00000206 	br	801dcc <___vfprintf_internal_r+0xe48>
  801dc4:	843ffc04 	addi	r16,r16,-16
  801dc8:	9c00150e 	bge	r19,r16,801e20 <___vfprintf_internal_r+0xe9c>
  801dcc:	d8800817 	ldw	r2,32(sp)
  801dd0:	d8c00717 	ldw	r3,28(sp)
  801dd4:	01002074 	movhi	r4,129
  801dd8:	21007c04 	addi	r4,r4,496
  801ddc:	10800404 	addi	r2,r2,16
  801de0:	18c00044 	addi	r3,r3,1
  801de4:	91000015 	stw	r4,0(r18)
  801de8:	94400115 	stw	r17,4(r18)
  801dec:	d8800815 	stw	r2,32(sp)
  801df0:	d8c00715 	stw	r3,28(sp)
  801df4:	94800204 	addi	r18,r18,8
  801df8:	a0fff20e 	bge	r20,r3,801dc4 <___vfprintf_internal_r+0xe40>
  801dfc:	d9019e17 	ldw	r4,1656(sp)
  801e00:	d9c00404 	addi	r7,sp,16
  801e04:	39400204 	addi	r5,r7,8
  801e08:	0800f2c0 	call	800f2c <__sprint>
  801e0c:	10001c1e 	bne	r2,zero,801e80 <___vfprintf_internal_r+0xefc>
  801e10:	d8800404 	addi	r2,sp,16
  801e14:	843ffc04 	addi	r16,r16,-16
  801e18:	14800504 	addi	r18,r2,20
  801e1c:	9c3feb16 	blt	r19,r16,801dcc <___vfprintf_internal_r+0xe48>
  801e20:	d8800817 	ldw	r2,32(sp)
  801e24:	d8c00717 	ldw	r3,28(sp)
  801e28:	01002074 	movhi	r4,129
  801e2c:	21007c04 	addi	r4,r4,496
  801e30:	1405883a 	add	r2,r2,r16
  801e34:	18c00044 	addi	r3,r3,1
  801e38:	d8800815 	stw	r2,32(sp)
  801e3c:	008001c4 	movi	r2,7
  801e40:	91000015 	stw	r4,0(r18)
  801e44:	94000115 	stw	r16,4(r18)
  801e48:	d8c00715 	stw	r3,28(sp)
  801e4c:	94800204 	addi	r18,r18,8
  801e50:	10fda30e 	bge	r2,r3,8014e0 <___vfprintf_internal_r+0x55c>
  801e54:	d9019e17 	ldw	r4,1656(sp)
  801e58:	d9c00404 	addi	r7,sp,16
  801e5c:	00005306 	br	801fac <___vfprintf_internal_r+0x1028>
  801e60:	d8800817 	ldw	r2,32(sp)
  801e64:	10000526 	beq	r2,zero,801e7c <___vfprintf_internal_r+0xef8>
  801e68:	d9000404 	addi	r4,sp,16
  801e6c:	21400204 	addi	r5,r4,8
  801e70:	d9019e17 	ldw	r4,1656(sp)
  801e74:	0800f2c0 	call	800f2c <__sprint>
  801e78:	1000011e 	bne	r2,zero,801e80 <___vfprintf_internal_r+0xefc>
  801e7c:	d8000715 	stw	zero,28(sp)
  801e80:	d941aa17 	ldw	r5,1704(sp)
  801e84:	28000226 	beq	r5,zero,801e90 <___vfprintf_internal_r+0xf0c>
  801e88:	2809883a 	mov	r4,r5
  801e8c:	08007e00 	call	8007e0 <free>
  801e90:	d9c19e17 	ldw	r7,1656(sp)
  801e94:	00ffffc4 	movi	r3,-1
  801e98:	3880030b 	ldhu	r2,12(r7)
  801e9c:	1080100c 	andi	r2,r2,64
  801ea0:	103cc71e 	bne	r2,zero,8011c0 <___vfprintf_internal_r+0x23c>
  801ea4:	d8c1a117 	ldw	r3,1668(sp)
  801ea8:	003cc506 	br	8011c0 <___vfprintf_internal_r+0x23c>
  801eac:	d9019e17 	ldw	r4,1656(sp)
  801eb0:	d9c00404 	addi	r7,sp,16
  801eb4:	39400204 	addi	r5,r7,8
  801eb8:	0800f2c0 	call	800f2c <__sprint>
  801ebc:	103dc526 	beq	r2,zero,8015d4 <___vfprintf_internal_r+0x650>
  801ec0:	003fef06 	br	801e80 <___vfprintf_internal_r+0xefc>
  801ec4:	dc019617 	ldw	r16,1624(sp)
  801ec8:	01000044 	movi	r4,1
  801ecc:	24000316 	blt	r4,r16,801edc <___vfprintf_internal_r+0xf58>
  801ed0:	d941a017 	ldw	r5,1664(sp)
  801ed4:	2904703a 	and	r2,r5,r4
  801ed8:	10010026 	beq	r2,zero,8022dc <___vfprintf_internal_r+0x1358>
  801edc:	98800003 	ldbu	r2,0(r19)
  801ee0:	d9000817 	ldw	r4,32(sp)
  801ee4:	d9400717 	ldw	r5,28(sp)
  801ee8:	00c00b84 	movi	r3,46
  801eec:	d9c00404 	addi	r7,sp,16
  801ef0:	d8807005 	stb	r2,448(sp)
  801ef4:	d8c07045 	stb	r3,449(sp)
  801ef8:	21000084 	addi	r4,r4,2
  801efc:	29400044 	addi	r5,r5,1
  801f00:	38c06c04 	addi	r3,r7,432
  801f04:	00800084 	movi	r2,2
  801f08:	050001c4 	movi	r20,7
  801f0c:	90c00015 	stw	r3,0(r18)
  801f10:	90800115 	stw	r2,4(r18)
  801f14:	d9000815 	stw	r4,32(sp)
  801f18:	9cc00044 	addi	r19,r19,1
  801f1c:	94800204 	addi	r18,r18,8
  801f20:	d9400715 	stw	r5,28(sp)
  801f24:	04400404 	movi	r17,16
  801f28:	a140ff16 	blt	r20,r5,802328 <___vfprintf_internal_r+0x13a4>
  801f2c:	d901a417 	ldw	r4,1680(sp)
  801f30:	d941a517 	ldw	r5,1684(sp)
  801f34:	000d883a 	mov	r6,zero
  801f38:	000f883a 	mov	r7,zero
  801f3c:	0808b000 	call	808b00 <__nedf2>
  801f40:	10009626 	beq	r2,zero,80219c <___vfprintf_internal_r+0x1218>
  801f44:	d8c00817 	ldw	r3,32(sp)
  801f48:	d9000717 	ldw	r4,28(sp)
  801f4c:	80bfffc4 	addi	r2,r16,-1
  801f50:	1c07883a 	add	r3,r3,r16
  801f54:	18ffffc4 	addi	r3,r3,-1
  801f58:	21000044 	addi	r4,r4,1
  801f5c:	94c00015 	stw	r19,0(r18)
  801f60:	90800115 	stw	r2,4(r18)
  801f64:	d8c00815 	stw	r3,32(sp)
  801f68:	94800204 	addi	r18,r18,8
  801f6c:	d9000715 	stw	r4,28(sp)
  801f70:	a100e516 	blt	r20,r4,802308 <___vfprintf_internal_r+0x1384>
  801f74:	d8800817 	ldw	r2,32(sp)
  801f78:	d941a617 	ldw	r5,1688(sp)
  801f7c:	d8c00717 	ldw	r3,28(sp)
  801f80:	d9c00404 	addi	r7,sp,16
  801f84:	1145883a 	add	r2,r2,r5
  801f88:	18c00044 	addi	r3,r3,1
  801f8c:	d8800815 	stw	r2,32(sp)
  801f90:	008001c4 	movi	r2,7
  801f94:	91c00015 	stw	r7,0(r18)
  801f98:	91400115 	stw	r5,4(r18)
  801f9c:	d8c00715 	stw	r3,28(sp)
  801fa0:	94800204 	addi	r18,r18,8
  801fa4:	10fd4e0e 	bge	r2,r3,8014e0 <___vfprintf_internal_r+0x55c>
  801fa8:	d9019e17 	ldw	r4,1656(sp)
  801fac:	39400204 	addi	r5,r7,8
  801fb0:	0800f2c0 	call	800f2c <__sprint>
  801fb4:	103fb21e 	bne	r2,zero,801e80 <___vfprintf_internal_r+0xefc>
  801fb8:	d8800404 	addi	r2,sp,16
  801fbc:	14800504 	addi	r18,r2,20
  801fc0:	003d4706 	br	8014e0 <___vfprintf_internal_r+0x55c>
  801fc4:	00800084 	movi	r2,2
  801fc8:	18bcb01e 	bne	r3,r2,80128c <___vfprintf_internal_r+0x308>
  801fcc:	d9c1a917 	ldw	r7,1700(sp)
  801fd0:	800ad13a 	srli	r5,r16,4
  801fd4:	880c973a 	slli	r6,r17,28
  801fd8:	810003cc 	andi	r4,r16,15
  801fdc:	21c9883a 	add	r4,r4,r7
  801fe0:	8806d13a 	srli	r3,r17,4
  801fe4:	3144b03a 	or	r2,r6,r5
  801fe8:	21400003 	ldbu	r5,0(r4)
  801fec:	9cffffc4 	addi	r19,r19,-1
  801ff0:	10c8b03a 	or	r4,r2,r3
  801ff4:	1021883a 	mov	r16,r2
  801ff8:	1823883a 	mov	r17,r3
  801ffc:	99400005 	stb	r5,0(r19)
  802000:	203ff21e 	bne	r4,zero,801fcc <___vfprintf_internal_r+0x1048>
  802004:	003d9306 	br	801654 <___vfprintf_internal_r+0x6d0>
  802008:	18803fcc 	andi	r2,r3,255
  80200c:	103d911e 	bne	r2,zero,801654 <___vfprintf_internal_r+0x6d0>
  802010:	d8c1a017 	ldw	r3,1664(sp)
  802014:	1880004c 	andi	r2,r3,1
  802018:	103d8e26 	beq	r2,zero,801654 <___vfprintf_internal_r+0x6d0>
  80201c:	d9000404 	addi	r4,sp,16
  802020:	24c06bc4 	addi	r19,r4,431
  802024:	00800c04 	movi	r2,48
  802028:	003d8906 	br	801650 <___vfprintf_internal_r+0x6cc>
  80202c:	d9019e17 	ldw	r4,1656(sp)
  802030:	d8c00404 	addi	r3,sp,16
  802034:	19400204 	addi	r5,r3,8
  802038:	0800f2c0 	call	800f2c <__sprint>
  80203c:	103f901e 	bne	r2,zero,801e80 <___vfprintf_internal_r+0xefc>
  802040:	d9000404 	addi	r4,sp,16
  802044:	24800504 	addi	r18,r4,20
  802048:	003ce106 	br	8013d0 <___vfprintf_internal_r+0x44c>
  80204c:	d9819517 	ldw	r6,1620(sp)
  802050:	01813e0e 	bge	zero,r6,80254c <___vfprintf_internal_r+0x15c8>
  802054:	dc019617 	ldw	r16,1624(sp)
  802058:	3400bb16 	blt	r6,r16,802348 <___vfprintf_internal_r+0x13c4>
  80205c:	d8800817 	ldw	r2,32(sp)
  802060:	d8c00717 	ldw	r3,28(sp)
  802064:	050001c4 	movi	r20,7
  802068:	1405883a 	add	r2,r2,r16
  80206c:	18c00044 	addi	r3,r3,1
  802070:	94c00015 	stw	r19,0(r18)
  802074:	94000115 	stw	r16,4(r18)
  802078:	d8800815 	stw	r2,32(sp)
  80207c:	d8c00715 	stw	r3,28(sp)
  802080:	94800204 	addi	r18,r18,8
  802084:	a0c1b116 	blt	r20,r3,80274c <___vfprintf_internal_r+0x17c8>
  802088:	3421c83a 	sub	r16,r6,r16
  80208c:	0400280e 	bge	zero,r16,802130 <___vfprintf_internal_r+0x11ac>
  802090:	04400404 	movi	r17,16
  802094:	8c00190e 	bge	r17,r16,8020fc <___vfprintf_internal_r+0x1178>
  802098:	8827883a 	mov	r19,r17
  80209c:	00000206 	br	8020a8 <___vfprintf_internal_r+0x1124>
  8020a0:	843ffc04 	addi	r16,r16,-16
  8020a4:	9c00150e 	bge	r19,r16,8020fc <___vfprintf_internal_r+0x1178>
  8020a8:	00c02074 	movhi	r3,129
  8020ac:	18c07c04 	addi	r3,r3,496
  8020b0:	90c00015 	stw	r3,0(r18)
  8020b4:	d8800817 	ldw	r2,32(sp)
  8020b8:	d8c00717 	ldw	r3,28(sp)
  8020bc:	94400115 	stw	r17,4(r18)
  8020c0:	10800404 	addi	r2,r2,16
  8020c4:	18c00044 	addi	r3,r3,1
  8020c8:	d8800815 	stw	r2,32(sp)
  8020cc:	d8c00715 	stw	r3,28(sp)
  8020d0:	94800204 	addi	r18,r18,8
  8020d4:	a0fff20e 	bge	r20,r3,8020a0 <___vfprintf_internal_r+0x111c>
  8020d8:	d9019e17 	ldw	r4,1656(sp)
  8020dc:	d9c00404 	addi	r7,sp,16
  8020e0:	39400204 	addi	r5,r7,8
  8020e4:	0800f2c0 	call	800f2c <__sprint>
  8020e8:	103f651e 	bne	r2,zero,801e80 <___vfprintf_internal_r+0xefc>
  8020ec:	d8800404 	addi	r2,sp,16
  8020f0:	843ffc04 	addi	r16,r16,-16
  8020f4:	14800504 	addi	r18,r2,20
  8020f8:	9c3feb16 	blt	r19,r16,8020a8 <___vfprintf_internal_r+0x1124>
  8020fc:	d8800817 	ldw	r2,32(sp)
  802100:	d8c00717 	ldw	r3,28(sp)
  802104:	01002074 	movhi	r4,129
  802108:	21007c04 	addi	r4,r4,496
  80210c:	1405883a 	add	r2,r2,r16
  802110:	18c00044 	addi	r3,r3,1
  802114:	d8800815 	stw	r2,32(sp)
  802118:	008001c4 	movi	r2,7
  80211c:	91000015 	stw	r4,0(r18)
  802120:	94000115 	stw	r16,4(r18)
  802124:	d8c00715 	stw	r3,28(sp)
  802128:	94800204 	addi	r18,r18,8
  80212c:	10c1f316 	blt	r2,r3,8028fc <___vfprintf_internal_r+0x1978>
  802130:	d8c1a017 	ldw	r3,1664(sp)
  802134:	1880004c 	andi	r2,r3,1
  802138:	103ce926 	beq	r2,zero,8014e0 <___vfprintf_internal_r+0x55c>
  80213c:	d9000817 	ldw	r4,32(sp)
  802140:	d9400717 	ldw	r5,28(sp)
  802144:	00800044 	movi	r2,1
  802148:	90800115 	stw	r2,4(r18)
  80214c:	21000044 	addi	r4,r4,1
  802150:	29400044 	addi	r5,r5,1
  802154:	00c02074 	movhi	r3,129
  802158:	18c0ec04 	addi	r3,r3,944
  80215c:	008001c4 	movi	r2,7
  802160:	90c00015 	stw	r3,0(r18)
  802164:	d9000815 	stw	r4,32(sp)
  802168:	94800204 	addi	r18,r18,8
  80216c:	d9400715 	stw	r5,28(sp)
  802170:	117cdb0e 	bge	r2,r5,8014e0 <___vfprintf_internal_r+0x55c>
  802174:	003f3706 	br	801e54 <___vfprintf_internal_r+0xed0>
  802178:	d9019e17 	ldw	r4,1656(sp)
  80217c:	d9c00404 	addi	r7,sp,16
  802180:	39400204 	addi	r5,r7,8
  802184:	0800f2c0 	call	800f2c <__sprint>
  802188:	103f3d1e 	bne	r2,zero,801e80 <___vfprintf_internal_r+0xefc>
  80218c:	d8c19c03 	ldbu	r3,1648(sp)
  802190:	d8800404 	addi	r2,sp,16
  802194:	14800504 	addi	r18,r2,20
  802198:	003c7c06 	br	80138c <___vfprintf_internal_r+0x408>
  80219c:	843fffc4 	addi	r16,r16,-1
  8021a0:	043f740e 	bge	zero,r16,801f74 <___vfprintf_internal_r+0xff0>
  8021a4:	8c00190e 	bge	r17,r16,80220c <___vfprintf_internal_r+0x1288>
  8021a8:	a027883a 	mov	r19,r20
  8021ac:	00000206 	br	8021b8 <___vfprintf_internal_r+0x1234>
  8021b0:	843ffc04 	addi	r16,r16,-16
  8021b4:	8c00150e 	bge	r17,r16,80220c <___vfprintf_internal_r+0x1288>
  8021b8:	d8800817 	ldw	r2,32(sp)
  8021bc:	d8c00717 	ldw	r3,28(sp)
  8021c0:	01402074 	movhi	r5,129
  8021c4:	29407c04 	addi	r5,r5,496
  8021c8:	10800404 	addi	r2,r2,16
  8021cc:	18c00044 	addi	r3,r3,1
  8021d0:	91400015 	stw	r5,0(r18)
  8021d4:	94400115 	stw	r17,4(r18)
  8021d8:	d8800815 	stw	r2,32(sp)
  8021dc:	d8c00715 	stw	r3,28(sp)
  8021e0:	94800204 	addi	r18,r18,8
  8021e4:	98fff20e 	bge	r19,r3,8021b0 <___vfprintf_internal_r+0x122c>
  8021e8:	d9019e17 	ldw	r4,1656(sp)
  8021ec:	d9c00404 	addi	r7,sp,16
  8021f0:	39400204 	addi	r5,r7,8
  8021f4:	0800f2c0 	call	800f2c <__sprint>
  8021f8:	103f211e 	bne	r2,zero,801e80 <___vfprintf_internal_r+0xefc>
  8021fc:	d8800404 	addi	r2,sp,16
  802200:	843ffc04 	addi	r16,r16,-16
  802204:	14800504 	addi	r18,r2,20
  802208:	8c3feb16 	blt	r17,r16,8021b8 <___vfprintf_internal_r+0x1234>
  80220c:	d8800817 	ldw	r2,32(sp)
  802210:	d8c00717 	ldw	r3,28(sp)
  802214:	01002074 	movhi	r4,129
  802218:	21007c04 	addi	r4,r4,496
  80221c:	1405883a 	add	r2,r2,r16
  802220:	18c00044 	addi	r3,r3,1
  802224:	d8800815 	stw	r2,32(sp)
  802228:	008001c4 	movi	r2,7
  80222c:	91000015 	stw	r4,0(r18)
  802230:	94000115 	stw	r16,4(r18)
  802234:	d8c00715 	stw	r3,28(sp)
  802238:	94800204 	addi	r18,r18,8
  80223c:	10ff4d0e 	bge	r2,r3,801f74 <___vfprintf_internal_r+0xff0>
  802240:	d9019e17 	ldw	r4,1656(sp)
  802244:	d9c00404 	addi	r7,sp,16
  802248:	39400204 	addi	r5,r7,8
  80224c:	0800f2c0 	call	800f2c <__sprint>
  802250:	103f0b1e 	bne	r2,zero,801e80 <___vfprintf_internal_r+0xefc>
  802254:	d8800404 	addi	r2,sp,16
  802258:	14800504 	addi	r18,r2,20
  80225c:	003f4506 	br	801f74 <___vfprintf_internal_r+0xff0>
  802260:	d941a017 	ldw	r5,1664(sp)
  802264:	2880040c 	andi	r2,r5,16
  802268:	10006426 	beq	r2,zero,8023fc <___vfprintf_internal_r+0x1478>
  80226c:	d8819f17 	ldw	r2,1660(sp)
  802270:	0023883a 	mov	r17,zero
  802274:	14000017 	ldw	r16,0(r2)
  802278:	11c00104 	addi	r7,r2,4
  80227c:	d9c19f15 	stw	r7,1660(sp)
  802280:	0007883a 	mov	r3,zero
  802284:	003bef06 	br	801244 <___vfprintf_internal_r+0x2c0>
  802288:	d941a017 	ldw	r5,1664(sp)
  80228c:	2880040c 	andi	r2,r5,16
  802290:	10006326 	beq	r2,zero,802420 <___vfprintf_internal_r+0x149c>
  802294:	d8819f17 	ldw	r2,1660(sp)
  802298:	10c00017 	ldw	r3,0(r2)
  80229c:	11c00104 	addi	r7,r2,4
  8022a0:	d9c19f15 	stw	r7,1660(sp)
  8022a4:	1823d7fa 	srai	r17,r3,31
  8022a8:	1821883a 	mov	r16,r3
  8022ac:	883d190e 	bge	r17,zero,801714 <___vfprintf_internal_r+0x790>
  8022b0:	003e2f06 	br	801b70 <___vfprintf_internal_r+0xbec>
  8022b4:	d8c1a017 	ldw	r3,1664(sp)
  8022b8:	1880040c 	andi	r2,r3,16
  8022bc:	10006926 	beq	r2,zero,802464 <___vfprintf_internal_r+0x14e0>
  8022c0:	d8819f17 	ldw	r2,1660(sp)
  8022c4:	0023883a 	mov	r17,zero
  8022c8:	14000017 	ldw	r16,0(r2)
  8022cc:	11000104 	addi	r4,r2,4
  8022d0:	d9019f15 	stw	r4,1660(sp)
  8022d4:	00c00044 	movi	r3,1
  8022d8:	003bda06 	br	801244 <___vfprintf_internal_r+0x2c0>
  8022dc:	d8800817 	ldw	r2,32(sp)
  8022e0:	d8c00717 	ldw	r3,28(sp)
  8022e4:	94c00015 	stw	r19,0(r18)
  8022e8:	10800044 	addi	r2,r2,1
  8022ec:	18c00044 	addi	r3,r3,1
  8022f0:	d8800815 	stw	r2,32(sp)
  8022f4:	008001c4 	movi	r2,7
  8022f8:	91000115 	stw	r4,4(r18)
  8022fc:	d8c00715 	stw	r3,28(sp)
  802300:	94800204 	addi	r18,r18,8
  802304:	10ff1b0e 	bge	r2,r3,801f74 <___vfprintf_internal_r+0xff0>
  802308:	d9019e17 	ldw	r4,1656(sp)
  80230c:	d8c00404 	addi	r3,sp,16
  802310:	19400204 	addi	r5,r3,8
  802314:	0800f2c0 	call	800f2c <__sprint>
  802318:	103ed91e 	bne	r2,zero,801e80 <___vfprintf_internal_r+0xefc>
  80231c:	d9000404 	addi	r4,sp,16
  802320:	24800504 	addi	r18,r4,20
  802324:	003f1306 	br	801f74 <___vfprintf_internal_r+0xff0>
  802328:	d9019e17 	ldw	r4,1656(sp)
  80232c:	39400204 	addi	r5,r7,8
  802330:	0800f2c0 	call	800f2c <__sprint>
  802334:	103ed21e 	bne	r2,zero,801e80 <___vfprintf_internal_r+0xefc>
  802338:	dc019617 	ldw	r16,1624(sp)
  80233c:	dc45883a 	add	r2,sp,r17
  802340:	14800504 	addi	r18,r2,20
  802344:	003ef906 	br	801f2c <___vfprintf_internal_r+0xfa8>
  802348:	d8800817 	ldw	r2,32(sp)
  80234c:	d8c00717 	ldw	r3,28(sp)
  802350:	040001c4 	movi	r16,7
  802354:	1185883a 	add	r2,r2,r6
  802358:	18c00044 	addi	r3,r3,1
  80235c:	94c00015 	stw	r19,0(r18)
  802360:	91800115 	stw	r6,4(r18)
  802364:	d8800815 	stw	r2,32(sp)
  802368:	d8c00715 	stw	r3,28(sp)
  80236c:	94800204 	addi	r18,r18,8
  802370:	80c0ed16 	blt	r16,r3,802728 <___vfprintf_internal_r+0x17a4>
  802374:	d9000817 	ldw	r4,32(sp)
  802378:	d9400717 	ldw	r5,28(sp)
  80237c:	00802074 	movhi	r2,129
  802380:	1080ec04 	addi	r2,r2,944
  802384:	21000044 	addi	r4,r4,1
  802388:	29400044 	addi	r5,r5,1
  80238c:	00c00044 	movi	r3,1
  802390:	90800015 	stw	r2,0(r18)
  802394:	90c00115 	stw	r3,4(r18)
  802398:	d9000815 	stw	r4,32(sp)
  80239c:	99a7883a 	add	r19,r19,r6
  8023a0:	94800204 	addi	r18,r18,8
  8023a4:	d9400715 	stw	r5,28(sp)
  8023a8:	8140d616 	blt	r16,r5,802704 <___vfprintf_internal_r+0x1780>
  8023ac:	d8819617 	ldw	r2,1624(sp)
  8023b0:	d8c00817 	ldw	r3,32(sp)
  8023b4:	d9000717 	ldw	r4,28(sp)
  8023b8:	1185c83a 	sub	r2,r2,r6
  8023bc:	1887883a 	add	r3,r3,r2
  8023c0:	21000044 	addi	r4,r4,1
  8023c4:	94c00015 	stw	r19,0(r18)
  8023c8:	90800115 	stw	r2,4(r18)
  8023cc:	d8c00815 	stw	r3,32(sp)
  8023d0:	d9000715 	stw	r4,28(sp)
  8023d4:	94800204 	addi	r18,r18,8
  8023d8:	813c410e 	bge	r16,r4,8014e0 <___vfprintf_internal_r+0x55c>
  8023dc:	d9019e17 	ldw	r4,1656(sp)
  8023e0:	d8c00404 	addi	r3,sp,16
  8023e4:	19400204 	addi	r5,r3,8
  8023e8:	0800f2c0 	call	800f2c <__sprint>
  8023ec:	103ea41e 	bne	r2,zero,801e80 <___vfprintf_internal_r+0xefc>
  8023f0:	d9000404 	addi	r4,sp,16
  8023f4:	24800504 	addi	r18,r4,20
  8023f8:	003c3906 	br	8014e0 <___vfprintf_internal_r+0x55c>
  8023fc:	d8c1a017 	ldw	r3,1664(sp)
  802400:	1880100c 	andi	r2,r3,64
  802404:	1000af26 	beq	r2,zero,8026c4 <___vfprintf_internal_r+0x1740>
  802408:	d8819f17 	ldw	r2,1660(sp)
  80240c:	0023883a 	mov	r17,zero
  802410:	1400000b 	ldhu	r16,0(r2)
  802414:	11000104 	addi	r4,r2,4
  802418:	d9019f15 	stw	r4,1660(sp)
  80241c:	003f9806 	br	802280 <___vfprintf_internal_r+0x12fc>
  802420:	d8c1a017 	ldw	r3,1664(sp)
  802424:	1880100c 	andi	r2,r3,64
  802428:	10009b26 	beq	r2,zero,802698 <___vfprintf_internal_r+0x1714>
  80242c:	d8819f17 	ldw	r2,1660(sp)
  802430:	10c0000f 	ldh	r3,0(r2)
  802434:	11000104 	addi	r4,r2,4
  802438:	d9019f15 	stw	r4,1660(sp)
  80243c:	003f9906 	br	8022a4 <___vfprintf_internal_r+0x1320>
  802440:	d941a017 	ldw	r5,1664(sp)
  802444:	2880100c 	andi	r2,r5,64
  802448:	1000a426 	beq	r2,zero,8026dc <___vfprintf_internal_r+0x1758>
  80244c:	d8819f17 	ldw	r2,1660(sp)
  802450:	0023883a 	mov	r17,zero
  802454:	1400000b 	ldhu	r16,0(r2)
  802458:	11c00104 	addi	r7,r2,4
  80245c:	d9c19f15 	stw	r7,1660(sp)
  802460:	003d4d06 	br	801998 <___vfprintf_internal_r+0xa14>
  802464:	d941a017 	ldw	r5,1664(sp)
  802468:	2880100c 	andi	r2,r5,64
  80246c:	10008f26 	beq	r2,zero,8026ac <___vfprintf_internal_r+0x1728>
  802470:	d8819f17 	ldw	r2,1660(sp)
  802474:	0023883a 	mov	r17,zero
  802478:	1400000b 	ldhu	r16,0(r2)
  80247c:	11c00104 	addi	r7,r2,4
  802480:	d9c19f15 	stw	r7,1660(sp)
  802484:	003f9306 	br	8022d4 <___vfprintf_internal_r+0x1350>
  802488:	d8c1a017 	ldw	r3,1664(sp)
  80248c:	1880040c 	andi	r2,r3,16
  802490:	10007726 	beq	r2,zero,802670 <___vfprintf_internal_r+0x16ec>
  802494:	d8819f17 	ldw	r2,1660(sp)
  802498:	d941a117 	ldw	r5,1668(sp)
  80249c:	10c00017 	ldw	r3,0(r2)
  8024a0:	11000104 	addi	r4,r2,4
  8024a4:	d9019f15 	stw	r4,1660(sp)
  8024a8:	19400015 	stw	r5,0(r3)
  8024ac:	003adc06 	br	801020 <___vfprintf_internal_r+0x9c>
  8024b0:	d9019e17 	ldw	r4,1656(sp)
  8024b4:	d8c00404 	addi	r3,sp,16
  8024b8:	19400204 	addi	r5,r3,8
  8024bc:	0800f2c0 	call	800f2c <__sprint>
  8024c0:	103e6f1e 	bne	r2,zero,801e80 <___vfprintf_internal_r+0xefc>
  8024c4:	d9000404 	addi	r4,sp,16
  8024c8:	24800504 	addi	r18,r4,20
  8024cc:	003e2506 	br	801d64 <___vfprintf_internal_r+0xde0>
  8024d0:	d8819f17 	ldw	r2,1660(sp)
  8024d4:	05c00044 	movi	r23,1
  8024d8:	10c00017 	ldw	r3,0(r2)
  8024dc:	11400104 	addi	r5,r2,4
  8024e0:	d9419f15 	stw	r5,1660(sp)
  8024e4:	98c00005 	stb	r3,0(r19)
  8024e8:	d8019c05 	stb	zero,1648(sp)
  8024ec:	003b6c06 	br	8012a0 <___vfprintf_internal_r+0x31c>
  8024f0:	a03d6b1e 	bne	r20,zero,801aa0 <___vfprintf_internal_r+0xb1c>
  8024f4:	05000044 	movi	r20,1
  8024f8:	003d6906 	br	801aa0 <___vfprintf_internal_r+0xb1c>
  8024fc:	a03b6516 	blt	r20,zero,801294 <___vfprintf_internal_r+0x310>
  802500:	9809883a 	mov	r4,r19
  802504:	000b883a 	mov	r5,zero
  802508:	a00d883a 	mov	r6,r20
  80250c:	08056280 	call	805628 <memchr>
  802510:	a02f883a 	mov	r23,r20
  802514:	103b6226 	beq	r2,zero,8012a0 <___vfprintf_internal_r+0x31c>
  802518:	14efc83a 	sub	r23,r2,r19
  80251c:	a5fb600e 	bge	r20,r23,8012a0 <___vfprintf_internal_r+0x31c>
  802520:	a02f883a 	mov	r23,r20
  802524:	003b5e06 	br	8012a0 <___vfprintf_internal_r+0x31c>
  802528:	d9019e17 	ldw	r4,1656(sp)
  80252c:	d8800404 	addi	r2,sp,16
  802530:	11400204 	addi	r5,r2,8
  802534:	0800f2c0 	call	800f2c <__sprint>
  802538:	103e511e 	bne	r2,zero,801e80 <___vfprintf_internal_r+0xefc>
  80253c:	dc019617 	ldw	r16,1624(sp)
  802540:	d8c00404 	addi	r3,sp,16
  802544:	1c800504 	addi	r18,r3,20
  802548:	003e1706 	br	801da8 <___vfprintf_internal_r+0xe24>
  80254c:	d8800817 	ldw	r2,32(sp)
  802550:	d9000717 	ldw	r4,28(sp)
  802554:	04000044 	movi	r16,1
  802558:	10800044 	addi	r2,r2,1
  80255c:	21000044 	addi	r4,r4,1
  802560:	00c02074 	movhi	r3,129
  802564:	18c0eb04 	addi	r3,r3,940
  802568:	050001c4 	movi	r20,7
  80256c:	90c00015 	stw	r3,0(r18)
  802570:	94000115 	stw	r16,4(r18)
  802574:	d8800815 	stw	r2,32(sp)
  802578:	d9000715 	stw	r4,28(sp)
  80257c:	94800204 	addi	r18,r18,8
  802580:	a100ed16 	blt	r20,r4,802938 <___vfprintf_internal_r+0x19b4>
  802584:	3000021e 	bne	r6,zero,802590 <___vfprintf_internal_r+0x160c>
  802588:	d8819617 	ldw	r2,1624(sp)
  80258c:	103bd426 	beq	r2,zero,8014e0 <___vfprintf_internal_r+0x55c>
  802590:	d8800817 	ldw	r2,32(sp)
  802594:	d8c00717 	ldw	r3,28(sp)
  802598:	d941a317 	ldw	r5,1676(sp)
  80259c:	10800044 	addi	r2,r2,1
  8025a0:	18c00044 	addi	r3,r3,1
  8025a4:	94000115 	stw	r16,4(r18)
  8025a8:	91400015 	stw	r5,0(r18)
  8025ac:	d8800815 	stw	r2,32(sp)
  8025b0:	d8c00715 	stw	r3,28(sp)
  8025b4:	94800204 	addi	r18,r18,8
  8025b8:	a0c13316 	blt	r20,r3,802a88 <___vfprintf_internal_r+0x1b04>
  8025bc:	01a1c83a 	sub	r16,zero,r6
  8025c0:	0400f30e 	bge	zero,r16,802990 <___vfprintf_internal_r+0x1a0c>
  8025c4:	04400404 	movi	r17,16
  8025c8:	8c00e40e 	bge	r17,r16,80295c <___vfprintf_internal_r+0x19d8>
  8025cc:	a02b883a 	mov	r21,r20
  8025d0:	8829883a 	mov	r20,r17
  8025d4:	00000206 	br	8025e0 <___vfprintf_internal_r+0x165c>
  8025d8:	843ffc04 	addi	r16,r16,-16
  8025dc:	a400df0e 	bge	r20,r16,80295c <___vfprintf_internal_r+0x19d8>
  8025e0:	00c02074 	movhi	r3,129
  8025e4:	18c07c04 	addi	r3,r3,496
  8025e8:	90c00015 	stw	r3,0(r18)
  8025ec:	d8800817 	ldw	r2,32(sp)
  8025f0:	d8c00717 	ldw	r3,28(sp)
  8025f4:	94400115 	stw	r17,4(r18)
  8025f8:	10800404 	addi	r2,r2,16
  8025fc:	18c00044 	addi	r3,r3,1
  802600:	d8800815 	stw	r2,32(sp)
  802604:	d8c00715 	stw	r3,28(sp)
  802608:	94800204 	addi	r18,r18,8
  80260c:	a8fff20e 	bge	r21,r3,8025d8 <___vfprintf_internal_r+0x1654>
  802610:	d9019e17 	ldw	r4,1656(sp)
  802614:	d9c00404 	addi	r7,sp,16
  802618:	39400204 	addi	r5,r7,8
  80261c:	0800f2c0 	call	800f2c <__sprint>
  802620:	103e171e 	bne	r2,zero,801e80 <___vfprintf_internal_r+0xefc>
  802624:	d8800404 	addi	r2,sp,16
  802628:	14800504 	addi	r18,r2,20
  80262c:	003fea06 	br	8025d8 <___vfprintf_internal_r+0x1654>
  802630:	d901a417 	ldw	r4,1680(sp)
  802634:	d941a517 	ldw	r5,1684(sp)
  802638:	0806e540 	call	806e54 <isnan>
  80263c:	10004d26 	beq	r2,zero,802774 <___vfprintf_internal_r+0x17f0>
  802640:	04c02074 	movhi	r19,129
  802644:	9cc0ed04 	addi	r19,r19,948
  802648:	05c000c4 	movi	r23,3
  80264c:	003b1406 	br	8012a0 <___vfprintf_internal_r+0x31c>
  802650:	d8c1a017 	ldw	r3,1664(sp)
  802654:	b5800044 	addi	r22,r22,1
  802658:	b1000003 	ldbu	r4,0(r22)
  80265c:	18c00814 	ori	r3,r3,32
  802660:	d8c1a015 	stw	r3,1664(sp)
  802664:	003a9806 	br	8010c8 <___vfprintf_internal_r+0x144>
  802668:	05000184 	movi	r20,6
  80266c:	003d0c06 	br	801aa0 <___vfprintf_internal_r+0xb1c>
  802670:	d9c1a017 	ldw	r7,1664(sp)
  802674:	3880100c 	andi	r2,r7,64
  802678:	1000a826 	beq	r2,zero,80291c <___vfprintf_internal_r+0x1998>
  80267c:	d8819f17 	ldw	r2,1660(sp)
  802680:	d901a117 	ldw	r4,1668(sp)
  802684:	10c00017 	ldw	r3,0(r2)
  802688:	10800104 	addi	r2,r2,4
  80268c:	d8819f15 	stw	r2,1660(sp)
  802690:	1900000d 	sth	r4,0(r3)
  802694:	003a6206 	br	801020 <___vfprintf_internal_r+0x9c>
  802698:	d8819f17 	ldw	r2,1660(sp)
  80269c:	10c00017 	ldw	r3,0(r2)
  8026a0:	11400104 	addi	r5,r2,4
  8026a4:	d9419f15 	stw	r5,1660(sp)
  8026a8:	003efe06 	br	8022a4 <___vfprintf_internal_r+0x1320>
  8026ac:	d8819f17 	ldw	r2,1660(sp)
  8026b0:	0023883a 	mov	r17,zero
  8026b4:	14000017 	ldw	r16,0(r2)
  8026b8:	10800104 	addi	r2,r2,4
  8026bc:	d8819f15 	stw	r2,1660(sp)
  8026c0:	003f0406 	br	8022d4 <___vfprintf_internal_r+0x1350>
  8026c4:	d8819f17 	ldw	r2,1660(sp)
  8026c8:	0023883a 	mov	r17,zero
  8026cc:	14000017 	ldw	r16,0(r2)
  8026d0:	11400104 	addi	r5,r2,4
  8026d4:	d9419f15 	stw	r5,1660(sp)
  8026d8:	003ee906 	br	802280 <___vfprintf_internal_r+0x12fc>
  8026dc:	d8819f17 	ldw	r2,1660(sp)
  8026e0:	0023883a 	mov	r17,zero
  8026e4:	14000017 	ldw	r16,0(r2)
  8026e8:	10800104 	addi	r2,r2,4
  8026ec:	d8819f15 	stw	r2,1660(sp)
  8026f0:	003ca906 	br	801998 <___vfprintf_internal_r+0xa14>
  8026f4:	04c02074 	movhi	r19,129
  8026f8:	9cc0ee04 	addi	r19,r19,952
  8026fc:	05c00184 	movi	r23,6
  802700:	003ae706 	br	8012a0 <___vfprintf_internal_r+0x31c>
  802704:	d9019e17 	ldw	r4,1656(sp)
  802708:	d9c00404 	addi	r7,sp,16
  80270c:	39400204 	addi	r5,r7,8
  802710:	0800f2c0 	call	800f2c <__sprint>
  802714:	103dda1e 	bne	r2,zero,801e80 <___vfprintf_internal_r+0xefc>
  802718:	d9819517 	ldw	r6,1620(sp)
  80271c:	d8800404 	addi	r2,sp,16
  802720:	14800504 	addi	r18,r2,20
  802724:	003f2106 	br	8023ac <___vfprintf_internal_r+0x1428>
  802728:	d9019e17 	ldw	r4,1656(sp)
  80272c:	d8c00404 	addi	r3,sp,16
  802730:	19400204 	addi	r5,r3,8
  802734:	0800f2c0 	call	800f2c <__sprint>
  802738:	103dd11e 	bne	r2,zero,801e80 <___vfprintf_internal_r+0xefc>
  80273c:	d9819517 	ldw	r6,1620(sp)
  802740:	d9000404 	addi	r4,sp,16
  802744:	24800504 	addi	r18,r4,20
  802748:	003f0a06 	br	802374 <___vfprintf_internal_r+0x13f0>
  80274c:	d9019e17 	ldw	r4,1656(sp)
  802750:	d9c00404 	addi	r7,sp,16
  802754:	39400204 	addi	r5,r7,8
  802758:	0800f2c0 	call	800f2c <__sprint>
  80275c:	103dc81e 	bne	r2,zero,801e80 <___vfprintf_internal_r+0xefc>
  802760:	d9819517 	ldw	r6,1620(sp)
  802764:	dc019617 	ldw	r16,1624(sp)
  802768:	d8800404 	addi	r2,sp,16
  80276c:	14800504 	addi	r18,r2,20
  802770:	003e4506 	br	802088 <___vfprintf_internal_r+0x1104>
  802774:	d881a417 	ldw	r2,1680(sp)
  802778:	d8c1a017 	ldw	r3,1664(sp)
  80277c:	d901a517 	ldw	r4,1684(sp)
  802780:	1021883a 	mov	r16,r2
  802784:	18c04014 	ori	r3,r3,256
  802788:	00801984 	movi	r2,102
  80278c:	d8c1a015 	stw	r3,1664(sp)
  802790:	2023883a 	mov	r17,r4
  802794:	a02f883a 	mov	r23,r20
  802798:	d9819404 	addi	r6,sp,1616
  80279c:	01c000c4 	movi	r7,3
  8027a0:	e0800526 	beq	fp,r2,8027b8 <___vfprintf_internal_r+0x1834>
  8027a4:	00801944 	movi	r2,101
  8027a8:	e0808626 	beq	fp,r2,8029c4 <___vfprintf_internal_r+0x1a40>
  8027ac:	00801144 	movi	r2,69
  8027b0:	e0808426 	beq	fp,r2,8029c4 <___vfprintf_internal_r+0x1a40>
  8027b4:	01c00084 	movi	r7,2
  8027b8:	8800e316 	blt	r17,zero,802b48 <___vfprintf_internal_r+0x1bc4>
  8027bc:	30000005 	stb	zero,0(r6)
  8027c0:	d9019d17 	ldw	r4,1652(sp)
  8027c4:	d8819704 	addi	r2,sp,1628
  8027c8:	d8800215 	stw	r2,8(sp)
  8027cc:	d8c19804 	addi	r3,sp,1632
  8027d0:	d8819504 	addi	r2,sp,1620
  8027d4:	800b883a 	mov	r5,r16
  8027d8:	880d883a 	mov	r6,r17
  8027dc:	d8c00315 	stw	r3,12(sp)
  8027e0:	ddc00015 	stw	r23,0(sp)
  8027e4:	d8800115 	stw	r2,4(sp)
  8027e8:	08035f80 	call	8035f8 <_dtoa_r>
  8027ec:	102b883a 	mov	r21,r2
  8027f0:	008019c4 	movi	r2,103
  8027f4:	e0808d26 	beq	fp,r2,802a2c <___vfprintf_internal_r+0x1aa8>
  8027f8:	008011c4 	movi	r2,71
  8027fc:	e0808b26 	beq	fp,r2,802a2c <___vfprintf_internal_r+0x1aa8>
  802800:	00801984 	movi	r2,102
  802804:	ade7883a 	add	r19,r21,r23
  802808:	e080be26 	beq	fp,r2,802b04 <___vfprintf_internal_r+0x1b80>
  80280c:	000d883a 	mov	r6,zero
  802810:	000f883a 	mov	r7,zero
  802814:	880b883a 	mov	r5,r17
  802818:	8009883a 	mov	r4,r16
  80281c:	0808a740 	call	808a74 <__eqdf2>
  802820:	1000a21e 	bne	r2,zero,802aac <___vfprintf_internal_r+0x1b28>
  802824:	9805883a 	mov	r2,r19
  802828:	dcc19815 	stw	r19,1632(sp)
  80282c:	14c0052e 	bgeu	r2,r19,802844 <___vfprintf_internal_r+0x18c0>
  802830:	00c00c04 	movi	r3,48
  802834:	10c00005 	stb	r3,0(r2)
  802838:	10800044 	addi	r2,r2,1
  80283c:	d8819815 	stw	r2,1632(sp)
  802840:	14fffc36 	bltu	r2,r19,802834 <___vfprintf_internal_r+0x18b0>
  802844:	1545c83a 	sub	r2,r2,r21
  802848:	00c019c4 	movi	r3,103
  80284c:	d8819615 	stw	r2,1624(sp)
  802850:	a827883a 	mov	r19,r21
  802854:	e0c06c26 	beq	fp,r3,802a08 <___vfprintf_internal_r+0x1a84>
  802858:	008011c4 	movi	r2,71
  80285c:	e0806a26 	beq	fp,r2,802a08 <___vfprintf_internal_r+0x1a84>
  802860:	d9819517 	ldw	r6,1620(sp)
  802864:	00801944 	movi	r2,101
  802868:	17005916 	blt	r2,fp,8029d0 <___vfprintf_internal_r+0x1a4c>
  80286c:	31bfffc4 	addi	r6,r6,-1
  802870:	d9819515 	stw	r6,1620(sp)
  802874:	df000405 	stb	fp,16(sp)
  802878:	3023883a 	mov	r17,r6
  80287c:	dd000444 	addi	r20,sp,17
  802880:	3000cb16 	blt	r6,zero,802bb0 <___vfprintf_internal_r+0x1c2c>
  802884:	00800ac4 	movi	r2,43
  802888:	a0800005 	stb	r2,0(r20)
  80288c:	d9000404 	addi	r4,sp,16
  802890:	00800244 	movi	r2,9
  802894:	dd000484 	addi	r20,sp,18
  802898:	24018e04 	addi	r16,r4,1592
  80289c:	1440680e 	bge	r2,r17,802a40 <___vfprintf_internal_r+0x1abc>
  8028a0:	102b883a 	mov	r21,r2
  8028a4:	8809883a 	mov	r4,r17
  8028a8:	01400284 	movi	r5,10
  8028ac:	08007380 	call	800738 <__modsi3>
  8028b0:	10800c04 	addi	r2,r2,48
  8028b4:	843fffc4 	addi	r16,r16,-1
  8028b8:	8809883a 	mov	r4,r17
  8028bc:	01400284 	movi	r5,10
  8028c0:	80800005 	stb	r2,0(r16)
  8028c4:	08006e80 	call	8006e8 <__divsi3>
  8028c8:	1023883a 	mov	r17,r2
  8028cc:	a8bff516 	blt	r21,r2,8028a4 <___vfprintf_internal_r+0x1920>
  8028d0:	843fffc4 	addi	r16,r16,-1
  8028d4:	10800c04 	addi	r2,r2,48
  8028d8:	d9c00404 	addi	r7,sp,16
  8028dc:	39418e04 	addi	r5,r7,1592
  8028e0:	80800005 	stb	r2,0(r16)
  8028e4:	81405c2e 	bgeu	r16,r5,802a58 <___vfprintf_internal_r+0x1ad4>
  8028e8:	80800003 	ldbu	r2,0(r16)
  8028ec:	84000044 	addi	r16,r16,1
  8028f0:	a0800005 	stb	r2,0(r20)
  8028f4:	a5000044 	addi	r20,r20,1
  8028f8:	003ffa06 	br	8028e4 <___vfprintf_internal_r+0x1960>
  8028fc:	d9019e17 	ldw	r4,1656(sp)
  802900:	d9c00404 	addi	r7,sp,16
  802904:	39400204 	addi	r5,r7,8
  802908:	0800f2c0 	call	800f2c <__sprint>
  80290c:	103d5c1e 	bne	r2,zero,801e80 <___vfprintf_internal_r+0xefc>
  802910:	d8800404 	addi	r2,sp,16
  802914:	14800504 	addi	r18,r2,20
  802918:	003e0506 	br	802130 <___vfprintf_internal_r+0x11ac>
  80291c:	d8819f17 	ldw	r2,1660(sp)
  802920:	d9c1a117 	ldw	r7,1668(sp)
  802924:	10c00017 	ldw	r3,0(r2)
  802928:	11400104 	addi	r5,r2,4
  80292c:	d9419f15 	stw	r5,1660(sp)
  802930:	19c00015 	stw	r7,0(r3)
  802934:	0039ba06 	br	801020 <___vfprintf_internal_r+0x9c>
  802938:	d9019e17 	ldw	r4,1656(sp)
  80293c:	d8c00404 	addi	r3,sp,16
  802940:	19400204 	addi	r5,r3,8
  802944:	0800f2c0 	call	800f2c <__sprint>
  802948:	103d4d1e 	bne	r2,zero,801e80 <___vfprintf_internal_r+0xefc>
  80294c:	d9819517 	ldw	r6,1620(sp)
  802950:	d9000404 	addi	r4,sp,16
  802954:	24800504 	addi	r18,r4,20
  802958:	003f0a06 	br	802584 <___vfprintf_internal_r+0x1600>
  80295c:	d8800817 	ldw	r2,32(sp)
  802960:	d8c00717 	ldw	r3,28(sp)
  802964:	01002074 	movhi	r4,129
  802968:	21007c04 	addi	r4,r4,496
  80296c:	1405883a 	add	r2,r2,r16
  802970:	18c00044 	addi	r3,r3,1
  802974:	d8800815 	stw	r2,32(sp)
  802978:	008001c4 	movi	r2,7
  80297c:	91000015 	stw	r4,0(r18)
  802980:	94000115 	stw	r16,4(r18)
  802984:	d8c00715 	stw	r3,28(sp)
  802988:	94800204 	addi	r18,r18,8
  80298c:	10c04916 	blt	r2,r3,802ab4 <___vfprintf_internal_r+0x1b30>
  802990:	d9019617 	ldw	r4,1624(sp)
  802994:	d8800817 	ldw	r2,32(sp)
  802998:	d8c00717 	ldw	r3,28(sp)
  80299c:	94c00015 	stw	r19,0(r18)
  8029a0:	1105883a 	add	r2,r2,r4
  8029a4:	18c00044 	addi	r3,r3,1
  8029a8:	d8800815 	stw	r2,32(sp)
  8029ac:	008001c4 	movi	r2,7
  8029b0:	91000115 	stw	r4,4(r18)
  8029b4:	d8c00715 	stw	r3,28(sp)
  8029b8:	94800204 	addi	r18,r18,8
  8029bc:	10fac80e 	bge	r2,r3,8014e0 <___vfprintf_internal_r+0x55c>
  8029c0:	003e8606 	br	8023dc <___vfprintf_internal_r+0x1458>
  8029c4:	a5c00044 	addi	r23,r20,1
  8029c8:	01c00084 	movi	r7,2
  8029cc:	003f7a06 	br	8027b8 <___vfprintf_internal_r+0x1834>
  8029d0:	00801984 	movi	r2,102
  8029d4:	e0806d26 	beq	fp,r2,802b8c <___vfprintf_internal_r+0x1c08>
  8029d8:	d8819617 	ldw	r2,1624(sp)
  8029dc:	30806416 	blt	r6,r2,802b70 <___vfprintf_internal_r+0x1bec>
  8029e0:	d9c1a017 	ldw	r7,1664(sp)
  8029e4:	302f883a 	mov	r23,r6
  8029e8:	3880004c 	andi	r2,r7,1
  8029ec:	10000126 	beq	r2,zero,8029f4 <___vfprintf_internal_r+0x1a70>
  8029f0:	35c00044 	addi	r23,r6,1
  8029f4:	d8819407 	ldb	r2,1616(sp)
  8029f8:	103a2926 	beq	r2,zero,8012a0 <___vfprintf_internal_r+0x31c>
  8029fc:	00800b44 	movi	r2,45
  802a00:	d8819c05 	stb	r2,1648(sp)
  802a04:	003a2606 	br	8012a0 <___vfprintf_internal_r+0x31c>
  802a08:	d9819517 	ldw	r6,1620(sp)
  802a0c:	00bfff04 	movi	r2,-4
  802a10:	1180010e 	bge	r2,r6,802a18 <___vfprintf_internal_r+0x1a94>
  802a14:	a1805b0e 	bge	r20,r6,802b84 <___vfprintf_internal_r+0x1c00>
  802a18:	00801944 	movi	r2,101
  802a1c:	e0c00126 	beq	fp,r3,802a24 <___vfprintf_internal_r+0x1aa0>
  802a20:	00801144 	movi	r2,69
  802a24:	1039883a 	mov	fp,r2
  802a28:	003f8e06 	br	802864 <___vfprintf_internal_r+0x18e0>
  802a2c:	d8c1a017 	ldw	r3,1664(sp)
  802a30:	1880004c 	andi	r2,r3,1
  802a34:	103f721e 	bne	r2,zero,802800 <___vfprintf_internal_r+0x187c>
  802a38:	d8819817 	ldw	r2,1632(sp)
  802a3c:	003f8106 	br	802844 <___vfprintf_internal_r+0x18c0>
  802a40:	00800c04 	movi	r2,48
  802a44:	a0800005 	stb	r2,0(r20)
  802a48:	88c00c04 	addi	r3,r17,48
  802a4c:	a5000044 	addi	r20,r20,1
  802a50:	a0c00005 	stb	r3,0(r20)
  802a54:	a5000044 	addi	r20,r20,1
  802a58:	d8c19617 	ldw	r3,1624(sp)
  802a5c:	d8800404 	addi	r2,sp,16
  802a60:	a085c83a 	sub	r2,r20,r2
  802a64:	d881a615 	stw	r2,1688(sp)
  802a68:	10ef883a 	add	r23,r2,r3
  802a6c:	00800044 	movi	r2,1
  802a70:	10c00316 	blt	r2,r3,802a80 <___vfprintf_internal_r+0x1afc>
  802a74:	d8c1a017 	ldw	r3,1664(sp)
  802a78:	1884703a 	and	r2,r3,r2
  802a7c:	103fdd26 	beq	r2,zero,8029f4 <___vfprintf_internal_r+0x1a70>
  802a80:	bdc00044 	addi	r23,r23,1
  802a84:	003fdb06 	br	8029f4 <___vfprintf_internal_r+0x1a70>
  802a88:	d9019e17 	ldw	r4,1656(sp)
  802a8c:	d9c00404 	addi	r7,sp,16
  802a90:	39400204 	addi	r5,r7,8
  802a94:	0800f2c0 	call	800f2c <__sprint>
  802a98:	103cf91e 	bne	r2,zero,801e80 <___vfprintf_internal_r+0xefc>
  802a9c:	d9819517 	ldw	r6,1620(sp)
  802aa0:	d8800404 	addi	r2,sp,16
  802aa4:	14800504 	addi	r18,r2,20
  802aa8:	003ec406 	br	8025bc <___vfprintf_internal_r+0x1638>
  802aac:	d8819817 	ldw	r2,1632(sp)
  802ab0:	003f5e06 	br	80282c <___vfprintf_internal_r+0x18a8>
  802ab4:	d9019e17 	ldw	r4,1656(sp)
  802ab8:	d9c00404 	addi	r7,sp,16
  802abc:	39400204 	addi	r5,r7,8
  802ac0:	0800f2c0 	call	800f2c <__sprint>
  802ac4:	103cee1e 	bne	r2,zero,801e80 <___vfprintf_internal_r+0xefc>
  802ac8:	d8800404 	addi	r2,sp,16
  802acc:	14800504 	addi	r18,r2,20
  802ad0:	003faf06 	br	802990 <___vfprintf_internal_r+0x1a0c>
  802ad4:	d9019d17 	ldw	r4,1652(sp)
  802ad8:	d8819904 	addi	r2,sp,1636
  802adc:	000b883a 	mov	r5,zero
  802ae0:	d9819b04 	addi	r6,sp,1644
  802ae4:	000f883a 	mov	r7,zero
  802ae8:	d8800015 	stw	r2,0(sp)
  802aec:	0802cf00 	call	802cf0 <_wcsrtombs_r>
  802af0:	102f883a 	mov	r23,r2
  802af4:	00bfffc4 	movi	r2,-1
  802af8:	b8bce126 	beq	r23,r2,801e80 <___vfprintf_internal_r+0xefc>
  802afc:	dcc19b15 	stw	r19,1644(sp)
  802b00:	003b3f06 	br	801800 <___vfprintf_internal_r+0x87c>
  802b04:	a8c00007 	ldb	r3,0(r21)
  802b08:	00800c04 	movi	r2,48
  802b0c:	18800326 	beq	r3,r2,802b1c <___vfprintf_internal_r+0x1b98>
  802b10:	d8819517 	ldw	r2,1620(sp)
  802b14:	98a7883a 	add	r19,r19,r2
  802b18:	003f3c06 	br	80280c <___vfprintf_internal_r+0x1888>
  802b1c:	000d883a 	mov	r6,zero
  802b20:	000f883a 	mov	r7,zero
  802b24:	8009883a 	mov	r4,r16
  802b28:	880b883a 	mov	r5,r17
  802b2c:	0808b000 	call	808b00 <__nedf2>
  802b30:	103ff726 	beq	r2,zero,802b10 <___vfprintf_internal_r+0x1b8c>
  802b34:	00800044 	movi	r2,1
  802b38:	15c5c83a 	sub	r2,r2,r23
  802b3c:	98a7883a 	add	r19,r19,r2
  802b40:	d8819515 	stw	r2,1620(sp)
  802b44:	003f3106 	br	80280c <___vfprintf_internal_r+0x1888>
  802b48:	0005883a 	mov	r2,zero
  802b4c:	00e00034 	movhi	r3,32768
  802b50:	18c00004 	addi	r3,r3,0
  802b54:	1408f03a 	xor	r4,r2,r16
  802b58:	88caf03a 	xor	r5,r17,r3
  802b5c:	00800b44 	movi	r2,45
  802b60:	2021883a 	mov	r16,r4
  802b64:	2823883a 	mov	r17,r5
  802b68:	30800005 	stb	r2,0(r6)
  802b6c:	003f1406 	br	8027c0 <___vfprintf_internal_r+0x183c>
  802b70:	15c00044 	addi	r23,r2,1
  802b74:	01bf9f16 	blt	zero,r6,8029f4 <___vfprintf_internal_r+0x1a70>
  802b78:	1185c83a 	sub	r2,r2,r6
  802b7c:	15c00084 	addi	r23,r2,2
  802b80:	003f9c06 	br	8029f4 <___vfprintf_internal_r+0x1a70>
  802b84:	1839883a 	mov	fp,r3
  802b88:	003f3606 	br	802864 <___vfprintf_internal_r+0x18e0>
  802b8c:	01800c0e 	bge	zero,r6,802bc0 <___vfprintf_internal_r+0x1c3c>
  802b90:	302f883a 	mov	r23,r6
  802b94:	a000031e 	bne	r20,zero,802ba4 <___vfprintf_internal_r+0x1c20>
  802b98:	d901a017 	ldw	r4,1664(sp)
  802b9c:	2080004c 	andi	r2,r4,1
  802ba0:	103f9426 	beq	r2,zero,8029f4 <___vfprintf_internal_r+0x1a70>
  802ba4:	a185883a 	add	r2,r20,r6
  802ba8:	15c00044 	addi	r23,r2,1
  802bac:	003f9106 	br	8029f4 <___vfprintf_internal_r+0x1a70>
  802bb0:	00800b44 	movi	r2,45
  802bb4:	01a3c83a 	sub	r17,zero,r6
  802bb8:	a0800005 	stb	r2,0(r20)
  802bbc:	003f3306 	br	80288c <___vfprintf_internal_r+0x1908>
  802bc0:	a000041e 	bne	r20,zero,802bd4 <___vfprintf_internal_r+0x1c50>
  802bc4:	d941a017 	ldw	r5,1664(sp)
  802bc8:	05c00044 	movi	r23,1
  802bcc:	2880004c 	andi	r2,r5,1
  802bd0:	103f8826 	beq	r2,zero,8029f4 <___vfprintf_internal_r+0x1a70>
  802bd4:	a5c00084 	addi	r23,r20,2
  802bd8:	003f8606 	br	8029f4 <___vfprintf_internal_r+0x1a70>
  802bdc:	d8819f17 	ldw	r2,1660(sp)
  802be0:	15000017 	ldw	r20,0(r2)
  802be4:	10c00104 	addi	r3,r2,4
  802be8:	d8c19f15 	stw	r3,1660(sp)
  802bec:	a03bde0e 	bge	r20,zero,801b68 <___vfprintf_internal_r+0xbe4>
  802bf0:	b1000003 	ldbu	r4,0(r22)
  802bf4:	053fffc4 	movi	r20,-1
  802bf8:	00393306 	br	8010c8 <___vfprintf_internal_r+0x144>

00802bfc <__vfprintf_internal>:
  802bfc:	d0e00a17 	ldw	r3,-32728(gp)
  802c00:	defffc04 	addi	sp,sp,-16
  802c04:	dc000215 	stw	r16,8(sp)
  802c08:	dc400115 	stw	r17,4(sp)
  802c0c:	dc800015 	stw	r18,0(sp)
  802c10:	dfc00315 	stw	ra,12(sp)
  802c14:	18800e17 	ldw	r2,56(r3)
  802c18:	2023883a 	mov	r17,r4
  802c1c:	2825883a 	mov	r18,r5
  802c20:	1809883a 	mov	r4,r3
  802c24:	3021883a 	mov	r16,r6
  802c28:	10000c26 	beq	r2,zero,802c5c <__vfprintf_internal+0x60>
  802c2c:	1809883a 	mov	r4,r3
  802c30:	880b883a 	mov	r5,r17
  802c34:	900d883a 	mov	r6,r18
  802c38:	800f883a 	mov	r7,r16
  802c3c:	02002034 	movhi	r8,128
  802c40:	4203e104 	addi	r8,r8,3972
  802c44:	dfc00317 	ldw	ra,12(sp)
  802c48:	dc000217 	ldw	r16,8(sp)
  802c4c:	dc400117 	ldw	r17,4(sp)
  802c50:	dc800017 	ldw	r18,0(sp)
  802c54:	dec00404 	addi	sp,sp,16
  802c58:	4000683a 	jmp	r8
  802c5c:	0804b480 	call	804b48 <__sinit>
  802c60:	d0e00a17 	ldw	r3,-32728(gp)
  802c64:	003ff106 	br	802c2c <__vfprintf_internal+0x30>

00802c68 <_wcrtomb_r>:
  802c68:	defffa04 	addi	sp,sp,-24
  802c6c:	dc000415 	stw	r16,16(sp)
  802c70:	dc400315 	stw	r17,12(sp)
  802c74:	dfc00515 	stw	ra,20(sp)
  802c78:	2023883a 	mov	r17,r4
  802c7c:	3821883a 	mov	r16,r7
  802c80:	28000b26 	beq	r5,zero,802cb0 <_wcrtomb_r+0x48>
  802c84:	0802e6c0 	call	802e6c <_wctomb_r>
  802c88:	1007883a 	mov	r3,r2
  802c8c:	1009883a 	mov	r4,r2
  802c90:	00bfffc4 	movi	r2,-1
  802c94:	18800926 	beq	r3,r2,802cbc <_wcrtomb_r+0x54>
  802c98:	2005883a 	mov	r2,r4
  802c9c:	dfc00517 	ldw	ra,20(sp)
  802ca0:	dc000417 	ldw	r16,16(sp)
  802ca4:	dc400317 	ldw	r17,12(sp)
  802ca8:	dec00604 	addi	sp,sp,24
  802cac:	f800283a 	ret
  802cb0:	d80b883a 	mov	r5,sp
  802cb4:	000d883a 	mov	r6,zero
  802cb8:	003ff206 	br	802c84 <_wcrtomb_r+0x1c>
  802cbc:	80000015 	stw	zero,0(r16)
  802cc0:	00802284 	movi	r2,138
  802cc4:	88800015 	stw	r2,0(r17)
  802cc8:	003ff306 	br	802c98 <_wcrtomb_r+0x30>

00802ccc <wcrtomb>:
  802ccc:	2013883a 	mov	r9,r4
  802cd0:	d1200a17 	ldw	r4,-32728(gp)
  802cd4:	2807883a 	mov	r3,r5
  802cd8:	300f883a 	mov	r7,r6
  802cdc:	480b883a 	mov	r5,r9
  802ce0:	180d883a 	mov	r6,r3
  802ce4:	02002034 	movhi	r8,128
  802ce8:	420b1a04 	addi	r8,r8,11368
  802cec:	4000683a 	jmp	r8

00802cf0 <_wcsrtombs_r>:
  802cf0:	defff204 	addi	sp,sp,-56
  802cf4:	dc000b15 	stw	r16,44(sp)
  802cf8:	dc800915 	stw	r18,36(sp)
  802cfc:	dd000715 	stw	r20,28(sp)
  802d00:	ddc00415 	stw	r23,16(sp)
  802d04:	dfc00d15 	stw	ra,52(sp)
  802d08:	df000c15 	stw	fp,48(sp)
  802d0c:	dc400a15 	stw	r17,40(sp)
  802d10:	dcc00815 	stw	r19,32(sp)
  802d14:	dd400615 	stw	r21,24(sp)
  802d18:	dd800515 	stw	r22,20(sp)
  802d1c:	2821883a 	mov	r16,r5
  802d20:	d9000315 	stw	r4,12(sp)
  802d24:	302f883a 	mov	r23,r6
  802d28:	3825883a 	mov	r18,r7
  802d2c:	dd000e17 	ldw	r20,56(sp)
  802d30:	28002f26 	beq	r5,zero,802df0 <_wcsrtombs_r+0x100>
  802d34:	002b883a 	mov	r21,zero
  802d38:	bc400017 	ldw	r17,0(r23)
  802d3c:	04801f2e 	bgeu	zero,r18,802dbc <_wcsrtombs_r+0xcc>
  802d40:	8039003a 	cmpeq	fp,r16,zero
  802d44:	89800017 	ldw	r6,0(r17)
  802d48:	d9000317 	ldw	r4,12(sp)
  802d4c:	d80b883a 	mov	r5,sp
  802d50:	a00f883a 	mov	r7,r20
  802d54:	a5800017 	ldw	r22,0(r20)
  802d58:	a4c00117 	ldw	r19,4(r20)
  802d5c:	0802c680 	call	802c68 <_wcrtomb_r>
  802d60:	100b883a 	mov	r5,r2
  802d64:	00bfffc4 	movi	r2,-1
  802d68:	28802626 	beq	r5,r2,802e04 <_wcsrtombs_r+0x114>
  802d6c:	9145c83a 	sub	r2,r18,r5
  802d70:	15402136 	bltu	r2,r21,802df8 <_wcsrtombs_r+0x108>
  802d74:	2c80202e 	bgeu	r5,r18,802df8 <_wcsrtombs_r+0x108>
  802d78:	a96b883a 	add	r21,r21,r5
  802d7c:	e0000b1e 	bne	fp,zero,802dac <_wcsrtombs_r+0xbc>
  802d80:	0009883a 	mov	r4,zero
  802d84:	0140060e 	bge	zero,r5,802da0 <_wcsrtombs_r+0xb0>
  802d88:	d905883a 	add	r2,sp,r4
  802d8c:	10c00003 	ldbu	r3,0(r2)
  802d90:	21000044 	addi	r4,r4,1
  802d94:	80c00005 	stb	r3,0(r16)
  802d98:	84000044 	addi	r16,r16,1
  802d9c:	217ffa16 	blt	r4,r5,802d88 <_wcsrtombs_r+0x98>
  802da0:	b8800017 	ldw	r2,0(r23)
  802da4:	10800104 	addi	r2,r2,4
  802da8:	b8800015 	stw	r2,0(r23)
  802dac:	88800017 	ldw	r2,0(r17)
  802db0:	8c400104 	addi	r17,r17,4
  802db4:	10001926 	beq	r2,zero,802e1c <_wcsrtombs_r+0x12c>
  802db8:	acbfe236 	bltu	r21,r18,802d44 <_wcsrtombs_r+0x54>
  802dbc:	a805883a 	mov	r2,r21
  802dc0:	dfc00d17 	ldw	ra,52(sp)
  802dc4:	df000c17 	ldw	fp,48(sp)
  802dc8:	dc000b17 	ldw	r16,44(sp)
  802dcc:	dc400a17 	ldw	r17,40(sp)
  802dd0:	dc800917 	ldw	r18,36(sp)
  802dd4:	dcc00817 	ldw	r19,32(sp)
  802dd8:	dd000717 	ldw	r20,28(sp)
  802ddc:	dd400617 	ldw	r21,24(sp)
  802de0:	dd800517 	ldw	r22,20(sp)
  802de4:	ddc00417 	ldw	r23,16(sp)
  802de8:	dec00e04 	addi	sp,sp,56
  802dec:	f800283a 	ret
  802df0:	04bfffc4 	movi	r18,-1
  802df4:	003fcf06 	br	802d34 <_wcsrtombs_r+0x44>
  802df8:	a4c00115 	stw	r19,4(r20)
  802dfc:	a5800015 	stw	r22,0(r20)
  802e00:	003fee06 	br	802dbc <_wcsrtombs_r+0xcc>
  802e04:	d8c00317 	ldw	r3,12(sp)
  802e08:	00802284 	movi	r2,138
  802e0c:	18800015 	stw	r2,0(r3)
  802e10:	2805883a 	mov	r2,r5
  802e14:	a0000015 	stw	zero,0(r20)
  802e18:	003fe906 	br	802dc0 <_wcsrtombs_r+0xd0>
  802e1c:	e000011e 	bne	fp,zero,802e24 <_wcsrtombs_r+0x134>
  802e20:	b8000015 	stw	zero,0(r23)
  802e24:	a8bfffc4 	addi	r2,r21,-1
  802e28:	a0000015 	stw	zero,0(r20)
  802e2c:	003fe406 	br	802dc0 <_wcsrtombs_r+0xd0>

00802e30 <wcsrtombs>:
  802e30:	d0e00a17 	ldw	r3,-32728(gp)
  802e34:	defffe04 	addi	sp,sp,-8
  802e38:	2013883a 	mov	r9,r4
  802e3c:	2817883a 	mov	r11,r5
  802e40:	301b883a 	mov	r13,r6
  802e44:	d9c00015 	stw	r7,0(sp)
  802e48:	1809883a 	mov	r4,r3
  802e4c:	480b883a 	mov	r5,r9
  802e50:	580d883a 	mov	r6,r11
  802e54:	680f883a 	mov	r7,r13
  802e58:	dfc00115 	stw	ra,4(sp)
  802e5c:	0802cf00 	call	802cf0 <_wcsrtombs_r>
  802e60:	dfc00117 	ldw	ra,4(sp)
  802e64:	dec00204 	addi	sp,sp,8
  802e68:	f800283a 	ret

00802e6c <_wctomb_r>:
  802e6c:	defffb04 	addi	sp,sp,-20
  802e70:	01002074 	movhi	r4,129
  802e74:	2103a804 	addi	r4,r4,3744
  802e78:	dc000315 	stw	r16,12(sp)
  802e7c:	dc400215 	stw	r17,8(sp)
  802e80:	dc800115 	stw	r18,4(sp)
  802e84:	dcc00015 	stw	r19,0(sp)
  802e88:	2821883a 	mov	r16,r5
  802e8c:	dfc00415 	stw	ra,16(sp)
  802e90:	3023883a 	mov	r17,r6
  802e94:	3827883a 	mov	r19,r7
  802e98:	04800044 	movi	r18,1
  802e9c:	08070bc0 	call	8070bc <strlen>
  802ea0:	8006c03a 	cmpne	r3,r16,zero
  802ea4:	90800c36 	bltu	r18,r2,802ed8 <_wctomb_r+0x6c>
  802ea8:	0011883a 	mov	r8,zero
  802eac:	18000226 	beq	r3,zero,802eb8 <_wctomb_r+0x4c>
  802eb0:	84400005 	stb	r17,0(r16)
  802eb4:	02000044 	movi	r8,1
  802eb8:	4005883a 	mov	r2,r8
  802ebc:	dfc00417 	ldw	ra,16(sp)
  802ec0:	dc000317 	ldw	r16,12(sp)
  802ec4:	dc400217 	ldw	r17,8(sp)
  802ec8:	dc800117 	ldw	r18,4(sp)
  802ecc:	dcc00017 	ldw	r19,0(sp)
  802ed0:	dec00504 	addi	sp,sp,20
  802ed4:	f800283a 	ret
  802ed8:	01002074 	movhi	r4,129
  802edc:	2103a804 	addi	r4,r4,3744
  802ee0:	01402074 	movhi	r5,129
  802ee4:	2940f004 	addi	r5,r5,960
  802ee8:	08070040 	call	807004 <strcmp>
  802eec:	10003a1e 	bne	r2,zero,802fd8 <_wctomb_r+0x16c>
  802ef0:	0011883a 	mov	r8,zero
  802ef4:	803ff026 	beq	r16,zero,802eb8 <_wctomb_r+0x4c>
  802ef8:	00801fc4 	movi	r2,127
  802efc:	9011883a 	mov	r8,r18
  802f00:	1440630e 	bge	r2,r17,803090 <_wctomb_r+0x224>
  802f04:	88ffe004 	addi	r3,r17,-128
  802f08:	0081dfc4 	movi	r2,1919
  802f0c:	027fe004 	movi	r9,-128
  802f10:	10c0b42e 	bgeu	r2,r3,8031e4 <_wctomb_r+0x378>
  802f14:	88fe0004 	addi	r3,r17,-2048
  802f18:	00bdffd4 	movui	r2,63487
  802f1c:	10c05e2e 	bgeu	r2,r3,803098 <_wctomb_r+0x22c>
  802f20:	00bffff4 	movhi	r2,65535
  802f24:	10800004 	addi	r2,r2,0
  802f28:	8885883a 	add	r2,r17,r2
  802f2c:	00c007f4 	movhi	r3,31
  802f30:	18ffffc4 	addi	r3,r3,-1
  802f34:	1880b52e 	bgeu	r3,r2,80320c <_wctomb_r+0x3a0>
  802f38:	00bff834 	movhi	r2,65504
  802f3c:	10800004 	addi	r2,r2,0
  802f40:	8885883a 	add	r2,r17,r2
  802f44:	00c0f834 	movhi	r3,992
  802f48:	18ffffc4 	addi	r3,r3,-1
  802f4c:	1880c32e 	bgeu	r3,r2,80325c <_wctomb_r+0x3f0>
  802f50:	00810034 	movhi	r2,1024
  802f54:	10bfffc4 	addi	r2,r2,-1
  802f58:	023fffc4 	movi	r8,-1
  802f5c:	147fd60e 	bge	r2,r17,802eb8 <_wctomb_r+0x4c>
  802f60:	88d0002c 	andhi	r3,r17,16384
  802f64:	1807d7ba 	srai	r3,r3,30
  802f68:	890fc02c 	andhi	r4,r17,16128
  802f6c:	2009d63a 	srai	r4,r4,24
  802f70:	89403f2c 	andhi	r5,r17,252
  802f74:	00bfff04 	movi	r2,-4
  802f78:	280bd4ba 	srai	r5,r5,18
  802f7c:	880cd33a 	srli	r6,r17,12
  802f80:	1886b03a 	or	r3,r3,r2
  802f84:	89c3f00c 	andi	r7,r17,4032
  802f88:	80c00005 	stb	r3,0(r16)
  802f8c:	2248b03a 	or	r4,r4,r9
  802f90:	84000044 	addi	r16,r16,1
  802f94:	380fd1ba 	srai	r7,r7,6
  802f98:	81000005 	stb	r4,0(r16)
  802f9c:	2a4ab03a 	or	r5,r5,r9
  802fa0:	84000044 	addi	r16,r16,1
  802fa4:	31800fcc 	andi	r6,r6,63
  802fa8:	81400005 	stb	r5,0(r16)
  802fac:	324cb03a 	or	r6,r6,r9
  802fb0:	84000044 	addi	r16,r16,1
  802fb4:	88800fcc 	andi	r2,r17,63
  802fb8:	81800005 	stb	r6,0(r16)
  802fbc:	1244b03a 	or	r2,r2,r9
  802fc0:	84000044 	addi	r16,r16,1
  802fc4:	3a4eb03a 	or	r7,r7,r9
  802fc8:	02000184 	movi	r8,6
  802fcc:	80800045 	stb	r2,1(r16)
  802fd0:	81c00005 	stb	r7,0(r16)
  802fd4:	003fb806 	br	802eb8 <_wctomb_r+0x4c>
  802fd8:	01002074 	movhi	r4,129
  802fdc:	2103a804 	addi	r4,r4,3744
  802fe0:	01402074 	movhi	r5,129
  802fe4:	2940f204 	addi	r5,r5,968
  802fe8:	08070040 	call	807004 <strcmp>
  802fec:	10003f1e 	bne	r2,zero,8030ec <_wctomb_r+0x280>
  802ff0:	8006c03a 	cmpne	r3,r16,zero
  802ff4:	8809d23a 	srai	r4,r17,8
  802ff8:	0011883a 	mov	r8,zero
  802ffc:	183fae26 	beq	r3,zero,802eb8 <_wctomb_r+0x4c>
  803000:	20803fcc 	andi	r2,r4,255
  803004:	103fa826 	beq	r2,zero,802ea8 <_wctomb_r+0x3c>
  803008:	20801fc4 	addi	r2,r4,127
  80300c:	10803fcc 	andi	r2,r2,255
  803010:	00c00784 	movi	r3,30
  803014:	1880042e 	bgeu	r3,r2,803028 <_wctomb_r+0x1bc>
  803018:	20800804 	addi	r2,r4,32
  80301c:	10803fcc 	andi	r2,r2,255
  803020:	00c003c4 	movi	r3,15
  803024:	18804436 	bltu	r3,r2,803138 <_wctomb_r+0x2cc>
  803028:	88bff004 	addi	r2,r17,-64
  80302c:	10803fcc 	andi	r2,r2,255
  803030:	00c00f84 	movi	r3,62
  803034:	1880042e 	bgeu	r3,r2,803048 <_wctomb_r+0x1dc>
  803038:	88bfe004 	addi	r2,r17,-128
  80303c:	10803fcc 	andi	r2,r2,255
  803040:	00c01f04 	movi	r3,124
  803044:	18803c36 	bltu	r3,r2,803138 <_wctomb_r+0x2cc>
  803048:	02000084 	movi	r8,2
  80304c:	84400045 	stb	r17,1(r16)
  803050:	81000005 	stb	r4,0(r16)
  803054:	003f9806 	br	802eb8 <_wctomb_r+0x4c>
  803058:	98800017 	ldw	r2,0(r19)
  80305c:	10000b26 	beq	r2,zero,80308c <_wctomb_r+0x220>
  803060:	98000015 	stw	zero,0(r19)
  803064:	008006c4 	movi	r2,27
  803068:	80800005 	stb	r2,0(r16)
  80306c:	84000044 	addi	r16,r16,1
  803070:	00800a04 	movi	r2,40
  803074:	80800005 	stb	r2,0(r16)
  803078:	84000044 	addi	r16,r16,1
  80307c:	00801084 	movi	r2,66
  803080:	80800005 	stb	r2,0(r16)
  803084:	010000c4 	movi	r4,3
  803088:	84000044 	addi	r16,r16,1
  80308c:	22000044 	addi	r8,r4,1
  803090:	84400005 	stb	r17,0(r16)
  803094:	003f8806 	br	802eb8 <_wctomb_r+0x4c>
  803098:	00bffff4 	movhi	r2,65535
  80309c:	108a0004 	addi	r2,r2,10240
  8030a0:	8885883a 	add	r2,r17,r2
  8030a4:	00c1ffc4 	movi	r3,2047
  8030a8:	023fffc4 	movi	r8,-1
  8030ac:	18bf822e 	bgeu	r3,r2,802eb8 <_wctomb_r+0x4c>
  8030b0:	88fc000c 	andi	r3,r17,61440
  8030b4:	1807d33a 	srai	r3,r3,12
  8030b8:	8943f00c 	andi	r5,r17,4032
  8030bc:	280bd1ba 	srai	r5,r5,6
  8030c0:	00bff804 	movi	r2,-32
  8030c4:	1886b03a 	or	r3,r3,r2
  8030c8:	89000fcc 	andi	r4,r17,63
  8030cc:	80c00005 	stb	r3,0(r16)
  8030d0:	2248b03a 	or	r4,r4,r9
  8030d4:	84000044 	addi	r16,r16,1
  8030d8:	2a4ab03a 	or	r5,r5,r9
  8030dc:	020000c4 	movi	r8,3
  8030e0:	81000045 	stb	r4,1(r16)
  8030e4:	81400005 	stb	r5,0(r16)
  8030e8:	003f7306 	br	802eb8 <_wctomb_r+0x4c>
  8030ec:	01002074 	movhi	r4,129
  8030f0:	2103a804 	addi	r4,r4,3744
  8030f4:	01402074 	movhi	r5,129
  8030f8:	2940f404 	addi	r5,r5,976
  8030fc:	08070040 	call	807004 <strcmp>
  803100:	1000131e 	bne	r2,zero,803150 <_wctomb_r+0x2e4>
  803104:	8006c03a 	cmpne	r3,r16,zero
  803108:	880bd23a 	srai	r5,r17,8
  80310c:	0011883a 	mov	r8,zero
  803110:	183f6926 	beq	r3,zero,802eb8 <_wctomb_r+0x4c>
  803114:	28803fcc 	andi	r2,r5,255
  803118:	103f6326 	beq	r2,zero,802ea8 <_wctomb_r+0x3c>
  80311c:	01802804 	movi	r6,160
  803120:	3080052e 	bgeu	r6,r2,803138 <_wctomb_r+0x2cc>
  803124:	00c03fc4 	movi	r3,255
  803128:	10c00326 	beq	r2,r3,803138 <_wctomb_r+0x2cc>
  80312c:	88803fcc 	andi	r2,r17,255
  803130:	3080012e 	bgeu	r6,r2,803138 <_wctomb_r+0x2cc>
  803134:	10c0021e 	bne	r2,r3,803140 <_wctomb_r+0x2d4>
  803138:	023fffc4 	movi	r8,-1
  80313c:	003f5e06 	br	802eb8 <_wctomb_r+0x4c>
  803140:	02000084 	movi	r8,2
  803144:	84400045 	stb	r17,1(r16)
  803148:	81400005 	stb	r5,0(r16)
  80314c:	003f5a06 	br	802eb8 <_wctomb_r+0x4c>
  803150:	01002074 	movhi	r4,129
  803154:	2103a804 	addi	r4,r4,3744
  803158:	01402074 	movhi	r5,129
  80315c:	2940f604 	addi	r5,r5,984
  803160:	08070040 	call	807004 <strcmp>
  803164:	8006c03a 	cmpne	r3,r16,zero
  803168:	103f4f1e 	bne	r2,zero,802ea8 <_wctomb_r+0x3c>
  80316c:	8807d23a 	srai	r3,r17,8
  803170:	0009883a 	mov	r4,zero
  803174:	9011883a 	mov	r8,r18
  803178:	803f4f26 	beq	r16,zero,802eb8 <_wctomb_r+0x4c>
  80317c:	18803fcc 	andi	r2,r3,255
  803180:	103fb526 	beq	r2,zero,803058 <_wctomb_r+0x1ec>
  803184:	18bff7c4 	addi	r2,r3,-33
  803188:	10803fcc 	andi	r2,r2,255
  80318c:	01401744 	movi	r5,93
  803190:	28bfe936 	bltu	r5,r2,803138 <_wctomb_r+0x2cc>
  803194:	88bff7c4 	addi	r2,r17,-33
  803198:	10803fcc 	andi	r2,r2,255
  80319c:	28bfe636 	bltu	r5,r2,803138 <_wctomb_r+0x2cc>
  8031a0:	98800017 	ldw	r2,0(r19)
  8031a4:	10000b1e 	bne	r2,zero,8031d4 <_wctomb_r+0x368>
  8031a8:	9c800015 	stw	r18,0(r19)
  8031ac:	008006c4 	movi	r2,27
  8031b0:	80800005 	stb	r2,0(r16)
  8031b4:	84000044 	addi	r16,r16,1
  8031b8:	00800904 	movi	r2,36
  8031bc:	80800005 	stb	r2,0(r16)
  8031c0:	84000044 	addi	r16,r16,1
  8031c4:	00801084 	movi	r2,66
  8031c8:	80800005 	stb	r2,0(r16)
  8031cc:	010000c4 	movi	r4,3
  8031d0:	84000044 	addi	r16,r16,1
  8031d4:	22000084 	addi	r8,r4,2
  8031d8:	84400045 	stb	r17,1(r16)
  8031dc:	80c00005 	stb	r3,0(r16)
  8031e0:	003f3506 	br	802eb8 <_wctomb_r+0x4c>
  8031e4:	8901f00c 	andi	r4,r17,1984
  8031e8:	2009d1ba 	srai	r4,r4,6
  8031ec:	88c00fcc 	andi	r3,r17,63
  8031f0:	00bff004 	movi	r2,-64
  8031f4:	2088b03a 	or	r4,r4,r2
  8031f8:	1a46b03a 	or	r3,r3,r9
  8031fc:	02000084 	movi	r8,2
  803200:	80c00045 	stb	r3,1(r16)
  803204:	81000005 	stb	r4,0(r16)
  803208:	003f2b06 	br	802eb8 <_wctomb_r+0x4c>
  80320c:	88c0072c 	andhi	r3,r17,28
  803210:	1807d4ba 	srai	r3,r3,18
  803214:	8808d33a 	srli	r4,r17,12
  803218:	8943f00c 	andi	r5,r17,4032
  80321c:	00bffc04 	movi	r2,-16
  803220:	280bd1ba 	srai	r5,r5,6
  803224:	1886b03a 	or	r3,r3,r2
  803228:	21000fcc 	andi	r4,r4,63
  80322c:	80c00005 	stb	r3,0(r16)
  803230:	2248b03a 	or	r4,r4,r9
  803234:	84000044 	addi	r16,r16,1
  803238:	88800fcc 	andi	r2,r17,63
  80323c:	81000005 	stb	r4,0(r16)
  803240:	1244b03a 	or	r2,r2,r9
  803244:	84000044 	addi	r16,r16,1
  803248:	2a4ab03a 	or	r5,r5,r9
  80324c:	02000104 	movi	r8,4
  803250:	80800045 	stb	r2,1(r16)
  803254:	81400005 	stb	r5,0(r16)
  803258:	003f1706 	br	802eb8 <_wctomb_r+0x4c>
  80325c:	88c0c02c 	andhi	r3,r17,768
  803260:	1807d63a 	srai	r3,r3,24
  803264:	89003f2c 	andhi	r4,r17,252
  803268:	2009d4ba 	srai	r4,r4,18
  80326c:	880ad33a 	srli	r5,r17,12
  803270:	00bffe04 	movi	r2,-8
  803274:	8983f00c 	andi	r6,r17,4032
  803278:	1886b03a 	or	r3,r3,r2
  80327c:	300dd1ba 	srai	r6,r6,6
  803280:	80c00005 	stb	r3,0(r16)
  803284:	2248b03a 	or	r4,r4,r9
  803288:	84000044 	addi	r16,r16,1
  80328c:	29400fcc 	andi	r5,r5,63
  803290:	81000005 	stb	r4,0(r16)
  803294:	2a4ab03a 	or	r5,r5,r9
  803298:	84000044 	addi	r16,r16,1
  80329c:	88800fcc 	andi	r2,r17,63
  8032a0:	81400005 	stb	r5,0(r16)
  8032a4:	1244b03a 	or	r2,r2,r9
  8032a8:	84000044 	addi	r16,r16,1
  8032ac:	324cb03a 	or	r6,r6,r9
  8032b0:	02000144 	movi	r8,5
  8032b4:	80800045 	stb	r2,1(r16)
  8032b8:	81800005 	stb	r6,0(r16)
  8032bc:	003efe06 	br	802eb8 <_wctomb_r+0x4c>

008032c0 <__swsetup>:
  8032c0:	d0e00a17 	ldw	r3,-32728(gp)
  8032c4:	defffe04 	addi	sp,sp,-8
  8032c8:	dc000015 	stw	r16,0(sp)
  8032cc:	dfc00115 	stw	ra,4(sp)
  8032d0:	18800e17 	ldw	r2,56(r3)
  8032d4:	2021883a 	mov	r16,r4
  8032d8:	10003526 	beq	r2,zero,8033b0 <__swsetup+0xf0>
  8032dc:	8180030b 	ldhu	r6,12(r16)
  8032e0:	30ffffcc 	andi	r3,r6,65535
  8032e4:	1880020c 	andi	r2,r3,8
  8032e8:	1000251e 	bne	r2,zero,803380 <__swsetup+0xc0>
  8032ec:	1880040c 	andi	r2,r3,16
  8032f0:	013fffc4 	movi	r4,-1
  8032f4:	10001d26 	beq	r2,zero,80336c <__swsetup+0xac>
  8032f8:	1880010c 	andi	r2,r3,4
  8032fc:	10002f26 	beq	r2,zero,8033bc <__swsetup+0xfc>
  803300:	81400c17 	ldw	r5,48(r16)
  803304:	28000626 	beq	r5,zero,803320 <__swsetup+0x60>
  803308:	80801004 	addi	r2,r16,64
  80330c:	28800326 	beq	r5,r2,80331c <__swsetup+0x5c>
  803310:	d1200a17 	ldw	r4,-32728(gp)
  803314:	0804d080 	call	804d08 <_free_r>
  803318:	8180030b 	ldhu	r6,12(r16)
  80331c:	80000c15 	stw	zero,48(r16)
  803320:	00bff6c4 	movi	r2,-37
  803324:	3084703a 	and	r2,r6,r2
  803328:	80c00417 	ldw	r3,16(r16)
  80332c:	100d883a 	mov	r6,r2
  803330:	8080030d 	sth	r2,12(r16)
  803334:	30800214 	ori	r2,r6,8
  803338:	80000115 	stw	zero,4(r16)
  80333c:	80c00015 	stw	r3,0(r16)
  803340:	8080030d 	sth	r2,12(r16)
  803344:	18001026 	beq	r3,zero,803388 <__swsetup+0xc8>
  803348:	80c0030b 	ldhu	r3,12(r16)
  80334c:	1880004c 	andi	r2,r3,1
  803350:	1000121e 	bne	r2,zero,80339c <__swsetup+0xdc>
  803354:	1880008c 	andi	r2,r3,2
  803358:	0007883a 	mov	r3,zero
  80335c:	1000011e 	bne	r2,zero,803364 <__swsetup+0xa4>
  803360:	80c00517 	ldw	r3,20(r16)
  803364:	80c00215 	stw	r3,8(r16)
  803368:	0009883a 	mov	r4,zero
  80336c:	2005883a 	mov	r2,r4
  803370:	dfc00117 	ldw	ra,4(sp)
  803374:	dc000017 	ldw	r16,0(sp)
  803378:	dec00204 	addi	sp,sp,8
  80337c:	f800283a 	ret
  803380:	80c00417 	ldw	r3,16(r16)
  803384:	183ff01e 	bne	r3,zero,803348 <__swsetup+0x88>
  803388:	8009883a 	mov	r4,r16
  80338c:	08054e00 	call	8054e0 <__smakebuf>
  803390:	80c0030b 	ldhu	r3,12(r16)
  803394:	1880004c 	andi	r2,r3,1
  803398:	103fee26 	beq	r2,zero,803354 <__swsetup+0x94>
  80339c:	80800517 	ldw	r2,20(r16)
  8033a0:	80000215 	stw	zero,8(r16)
  8033a4:	0085c83a 	sub	r2,zero,r2
  8033a8:	80800615 	stw	r2,24(r16)
  8033ac:	003fee06 	br	803368 <__swsetup+0xa8>
  8033b0:	1809883a 	mov	r4,r3
  8033b4:	0804b480 	call	804b48 <__sinit>
  8033b8:	003fc806 	br	8032dc <__swsetup+0x1c>
  8033bc:	80c00417 	ldw	r3,16(r16)
  8033c0:	30800214 	ori	r2,r6,8
  8033c4:	8080030d 	sth	r2,12(r16)
  8033c8:	003fde06 	br	803344 <__swsetup+0x84>

008033cc <quorem>:
  8033cc:	defff104 	addi	sp,sp,-60
  8033d0:	dfc00e15 	stw	ra,56(sp)
  8033d4:	df000d15 	stw	fp,52(sp)
  8033d8:	dc000c15 	stw	r16,48(sp)
  8033dc:	dc400b15 	stw	r17,44(sp)
  8033e0:	dc800a15 	stw	r18,40(sp)
  8033e4:	dcc00915 	stw	r19,36(sp)
  8033e8:	dd000815 	stw	r20,32(sp)
  8033ec:	dd400715 	stw	r21,28(sp)
  8033f0:	dd800615 	stw	r22,24(sp)
  8033f4:	ddc00515 	stw	r23,20(sp)
  8033f8:	2dc00417 	ldw	r23,16(r5)
  8033fc:	20800417 	ldw	r2,16(r4)
  803400:	d9000015 	stw	r4,0(sp)
  803404:	d9400115 	stw	r5,4(sp)
  803408:	0007883a 	mov	r3,zero
  80340c:	15c04216 	blt	r2,r23,803518 <quorem+0x14c>
  803410:	bdffffc4 	addi	r23,r23,-1
  803414:	b80490ba 	slli	r2,r23,2
  803418:	20c00504 	addi	r3,r4,20
  80341c:	2c800504 	addi	r18,r5,20
  803420:	10eb883a 	add	r21,r2,r3
  803424:	14ad883a 	add	r22,r2,r18
  803428:	b1400017 	ldw	r5,0(r22)
  80342c:	a8800017 	ldw	r2,0(r21)
  803430:	d8c00215 	stw	r3,8(sp)
  803434:	29400044 	addi	r5,r5,1
  803438:	1009883a 	mov	r4,r2
  80343c:	d8800415 	stw	r2,16(sp)
  803440:	dc800315 	stw	r18,12(sp)
  803444:	08007840 	call	800784 <__udivsi3>
  803448:	1039883a 	mov	fp,r2
  80344c:	dc400217 	ldw	r17,8(sp)
  803450:	10003e1e 	bne	r2,zero,80354c <quorem+0x180>
  803454:	d9400117 	ldw	r5,4(sp)
  803458:	d9000017 	ldw	r4,0(sp)
  80345c:	08062540 	call	806254 <__mcmp>
  803460:	10002c16 	blt	r2,zero,803514 <quorem+0x148>
  803464:	dc800317 	ldw	r18,12(sp)
  803468:	dc400217 	ldw	r17,8(sp)
  80346c:	e7000044 	addi	fp,fp,1
  803470:	0027883a 	mov	r19,zero
  803474:	0029883a 	mov	r20,zero
  803478:	91000017 	ldw	r4,0(r18)
  80347c:	88c00017 	ldw	r3,0(r17)
  803480:	94800104 	addi	r18,r18,4
  803484:	20bfffcc 	andi	r2,r4,65535
  803488:	1521883a 	add	r16,r2,r20
  80348c:	817fffcc 	andi	r5,r16,65535
  803490:	18bfffcc 	andi	r2,r3,65535
  803494:	2008d43a 	srli	r4,r4,16
  803498:	800cd43a 	srli	r6,r16,16
  80349c:	1145c83a 	sub	r2,r2,r5
  8034a0:	14cf883a 	add	r7,r2,r19
  8034a4:	1806d43a 	srli	r3,r3,16
  8034a8:	218b883a 	add	r5,r4,r6
  8034ac:	3827d43a 	srai	r19,r7,16
  8034b0:	28bfffcc 	andi	r2,r5,65535
  8034b4:	1887c83a 	sub	r3,r3,r2
  8034b8:	1cc7883a 	add	r3,r3,r19
  8034bc:	88c0008d 	sth	r3,2(r17)
  8034c0:	89c0000d 	sth	r7,0(r17)
  8034c4:	2828d43a 	srli	r20,r5,16
  8034c8:	8c400104 	addi	r17,r17,4
  8034cc:	1827d43a 	srai	r19,r3,16
  8034d0:	b4bfe92e 	bgeu	r22,r18,803478 <quorem+0xac>
  8034d4:	d8c00217 	ldw	r3,8(sp)
  8034d8:	b80490ba 	slli	r2,r23,2
  8034dc:	10eb883a 	add	r21,r2,r3
  8034e0:	a8c00017 	ldw	r3,0(r21)
  8034e4:	18000b1e 	bne	r3,zero,803514 <quorem+0x148>
  8034e8:	d8800217 	ldw	r2,8(sp)
  8034ec:	ad7fff04 	addi	r21,r21,-4
  8034f0:	1540062e 	bgeu	r2,r21,80350c <quorem+0x140>
  8034f4:	a8800017 	ldw	r2,0(r21)
  8034f8:	1000041e 	bne	r2,zero,80350c <quorem+0x140>
  8034fc:	d8c00217 	ldw	r3,8(sp)
  803500:	ad7fff04 	addi	r21,r21,-4
  803504:	bdffffc4 	addi	r23,r23,-1
  803508:	1d7ffa36 	bltu	r3,r21,8034f4 <quorem+0x128>
  80350c:	d8800017 	ldw	r2,0(sp)
  803510:	15c00415 	stw	r23,16(r2)
  803514:	e007883a 	mov	r3,fp
  803518:	1805883a 	mov	r2,r3
  80351c:	dfc00e17 	ldw	ra,56(sp)
  803520:	df000d17 	ldw	fp,52(sp)
  803524:	dc000c17 	ldw	r16,48(sp)
  803528:	dc400b17 	ldw	r17,44(sp)
  80352c:	dc800a17 	ldw	r18,40(sp)
  803530:	dcc00917 	ldw	r19,36(sp)
  803534:	dd000817 	ldw	r20,32(sp)
  803538:	dd400717 	ldw	r21,28(sp)
  80353c:	dd800617 	ldw	r22,24(sp)
  803540:	ddc00517 	ldw	r23,20(sp)
  803544:	dec00f04 	addi	sp,sp,60
  803548:	f800283a 	ret
  80354c:	0027883a 	mov	r19,zero
  803550:	0029883a 	mov	r20,zero
  803554:	94000017 	ldw	r16,0(r18)
  803558:	e00b883a 	mov	r5,fp
  80355c:	94800104 	addi	r18,r18,4
  803560:	813fffcc 	andi	r4,r16,65535
  803564:	08007a40 	call	8007a4 <__mulsi3>
  803568:	8008d43a 	srli	r4,r16,16
  80356c:	e00b883a 	mov	r5,fp
  803570:	1521883a 	add	r16,r2,r20
  803574:	08007a40 	call	8007a4 <__mulsi3>
  803578:	89000017 	ldw	r4,0(r17)
  80357c:	817fffcc 	andi	r5,r16,65535
  803580:	800cd43a 	srli	r6,r16,16
  803584:	20ffffcc 	andi	r3,r4,65535
  803588:	1947c83a 	sub	r3,r3,r5
  80358c:	1ccf883a 	add	r7,r3,r19
  803590:	2008d43a 	srli	r4,r4,16
  803594:	118b883a 	add	r5,r2,r6
  803598:	3827d43a 	srai	r19,r7,16
  80359c:	28bfffcc 	andi	r2,r5,65535
  8035a0:	2089c83a 	sub	r4,r4,r2
  8035a4:	24c7883a 	add	r3,r4,r19
  8035a8:	88c0008d 	sth	r3,2(r17)
  8035ac:	89c0000d 	sth	r7,0(r17)
  8035b0:	2828d43a 	srli	r20,r5,16
  8035b4:	8c400104 	addi	r17,r17,4
  8035b8:	1827d43a 	srai	r19,r3,16
  8035bc:	b4bfe52e 	bgeu	r22,r18,803554 <quorem+0x188>
  8035c0:	d8c00417 	ldw	r3,16(sp)
  8035c4:	183fa31e 	bne	r3,zero,803454 <quorem+0x88>
  8035c8:	d8800217 	ldw	r2,8(sp)
  8035cc:	ad7fff04 	addi	r21,r21,-4
  8035d0:	1540062e 	bgeu	r2,r21,8035ec <quorem+0x220>
  8035d4:	a8800017 	ldw	r2,0(r21)
  8035d8:	1000041e 	bne	r2,zero,8035ec <quorem+0x220>
  8035dc:	d8c00217 	ldw	r3,8(sp)
  8035e0:	ad7fff04 	addi	r21,r21,-4
  8035e4:	bdffffc4 	addi	r23,r23,-1
  8035e8:	1d7ffa36 	bltu	r3,r21,8035d4 <quorem+0x208>
  8035ec:	d8800017 	ldw	r2,0(sp)
  8035f0:	15c00415 	stw	r23,16(r2)
  8035f4:	003f9706 	br	803454 <quorem+0x88>

008035f8 <_dtoa_r>:
  8035f8:	deffdd04 	addi	sp,sp,-140
  8035fc:	df002115 	stw	fp,132(sp)
  803600:	dc002015 	stw	r16,128(sp)
  803604:	dc801e15 	stw	r18,120(sp)
  803608:	dcc01d15 	stw	r19,116(sp)
  80360c:	dfc02215 	stw	ra,136(sp)
  803610:	dc401f15 	stw	r17,124(sp)
  803614:	dd001c15 	stw	r20,112(sp)
  803618:	dd401b15 	stw	r21,108(sp)
  80361c:	dd801a15 	stw	r22,104(sp)
  803620:	ddc01915 	stw	r23,100(sp)
  803624:	22001017 	ldw	r8,64(r4)
  803628:	2039883a 	mov	fp,r4
  80362c:	2825883a 	mov	r18,r5
  803630:	d9c00315 	stw	r7,12(sp)
  803634:	3027883a 	mov	r19,r6
  803638:	dc002517 	ldw	r16,148(sp)
  80363c:	d8001515 	stw	zero,84(sp)
  803640:	4000241e 	bne	r8,zero,8036d4 <_dtoa_r+0xdc>
  803644:	98002d16 	blt	r19,zero,8036fc <_dtoa_r+0x104>
  803648:	98dffc2c 	andhi	r3,r19,32752
  80364c:	009ffc34 	movhi	r2,32752
  803650:	10800004 	addi	r2,r2,0
  803654:	80000015 	stw	zero,0(r16)
  803658:	18803126 	beq	r3,r2,803720 <_dtoa_r+0x128>
  80365c:	000d883a 	mov	r6,zero
  803660:	000f883a 	mov	r7,zero
  803664:	9009883a 	mov	r4,r18
  803668:	980b883a 	mov	r5,r19
  80366c:	0808a740 	call	808a74 <__eqdf2>
  803670:	10003c1e 	bne	r2,zero,803764 <_dtoa_r+0x16c>
  803674:	d8c02417 	ldw	r3,144(sp)
  803678:	00800044 	movi	r2,1
  80367c:	01002074 	movhi	r4,129
  803680:	2100eb04 	addi	r4,r4,940
  803684:	18800015 	stw	r2,0(r3)
  803688:	d8802617 	ldw	r2,152(sp)
  80368c:	d9001715 	stw	r4,92(sp)
  803690:	10000326 	beq	r2,zero,8036a0 <_dtoa_r+0xa8>
  803694:	d8c02617 	ldw	r3,152(sp)
  803698:	20800044 	addi	r2,r4,1
  80369c:	18800015 	stw	r2,0(r3)
  8036a0:	d8801717 	ldw	r2,92(sp)
  8036a4:	dfc02217 	ldw	ra,136(sp)
  8036a8:	df002117 	ldw	fp,132(sp)
  8036ac:	dc002017 	ldw	r16,128(sp)
  8036b0:	dc401f17 	ldw	r17,124(sp)
  8036b4:	dc801e17 	ldw	r18,120(sp)
  8036b8:	dcc01d17 	ldw	r19,116(sp)
  8036bc:	dd001c17 	ldw	r20,112(sp)
  8036c0:	dd401b17 	ldw	r21,108(sp)
  8036c4:	dd801a17 	ldw	r22,104(sp)
  8036c8:	ddc01917 	ldw	r23,100(sp)
  8036cc:	dec02304 	addi	sp,sp,140
  8036d0:	f800283a 	ret
  8036d4:	20801117 	ldw	r2,68(r4)
  8036d8:	400b883a 	mov	r5,r8
  8036dc:	40800115 	stw	r2,4(r8)
  8036e0:	20c01117 	ldw	r3,68(r4)
  8036e4:	00800044 	movi	r2,1
  8036e8:	10c4983a 	sll	r2,r2,r3
  8036ec:	40800215 	stw	r2,8(r8)
  8036f0:	0805a040 	call	805a04 <_Bfree>
  8036f4:	e0001015 	stw	zero,64(fp)
  8036f8:	983fd30e 	bge	r19,zero,803648 <_dtoa_r+0x50>
  8036fc:	00a00034 	movhi	r2,32768
  803700:	10bfffc4 	addi	r2,r2,-1
  803704:	14e6703a 	and	r19,r2,r19
  803708:	00c00044 	movi	r3,1
  80370c:	80c00015 	stw	r3,0(r16)
  803710:	009ffc34 	movhi	r2,32752
  803714:	10800004 	addi	r2,r2,0
  803718:	98dffc2c 	andhi	r3,r19,32752
  80371c:	18bfcf1e 	bne	r3,r2,80365c <_dtoa_r+0x64>
  803720:	d8c02417 	ldw	r3,144(sp)
  803724:	0089c3c4 	movi	r2,9999
  803728:	18800015 	stw	r2,0(r3)
  80372c:	9000a226 	beq	r18,zero,8039b8 <_dtoa_r+0x3c0>
  803730:	00802074 	movhi	r2,129
  803734:	1080ed04 	addi	r2,r2,948
  803738:	d8801715 	stw	r2,92(sp)
  80373c:	d8c02617 	ldw	r3,152(sp)
  803740:	183fd726 	beq	r3,zero,8036a0 <_dtoa_r+0xa8>
  803744:	d9001717 	ldw	r4,92(sp)
  803748:	208000c7 	ldb	r2,3(r4)
  80374c:	20c00204 	addi	r3,r4,8
  803750:	1000011e 	bne	r2,zero,803758 <_dtoa_r+0x160>
  803754:	20c000c4 	addi	r3,r4,3
  803758:	d8802617 	ldw	r2,152(sp)
  80375c:	10c00015 	stw	r3,0(r2)
  803760:	003fcf06 	br	8036a0 <_dtoa_r+0xa8>
  803764:	d8800104 	addi	r2,sp,4
  803768:	e009883a 	mov	r4,fp
  80376c:	900b883a 	mov	r5,r18
  803770:	980d883a 	mov	r6,r19
  803774:	d9c00204 	addi	r7,sp,8
  803778:	d8800015 	stw	r2,0(sp)
  80377c:	08065e80 	call	8065e8 <_d2b>
  803780:	d8801415 	stw	r2,80(sp)
  803784:	9804d53a 	srli	r2,r19,20
  803788:	1581ffcc 	andi	r22,r2,2047
  80378c:	b000921e 	bne	r22,zero,8039d8 <_dtoa_r+0x3e0>
  803790:	ddc00117 	ldw	r23,4(sp)
  803794:	d8800217 	ldw	r2,8(sp)
  803798:	00c00804 	movi	r3,32
  80379c:	b885883a 	add	r2,r23,r2
  8037a0:	15810c84 	addi	r22,r2,1074
  8037a4:	1d81ba0e 	bge	r3,r22,803e90 <_dtoa_r+0x898>
  8037a8:	00c01004 	movi	r3,64
  8037ac:	1d87c83a 	sub	r3,r3,r22
  8037b0:	10810484 	addi	r2,r2,1042
  8037b4:	98c6983a 	sll	r3,r19,r3
  8037b8:	9084d83a 	srl	r2,r18,r2
  8037bc:	18a0b03a 	or	r16,r3,r2
  8037c0:	8009883a 	mov	r4,r16
  8037c4:	0808d300 	call	808d30 <__floatsidf>
  8037c8:	1011883a 	mov	r8,r2
  8037cc:	1813883a 	mov	r9,r3
  8037d0:	8003bc16 	blt	r16,zero,8046c4 <_dtoa_r+0x10cc>
  8037d4:	00bf8434 	movhi	r2,65040
  8037d8:	10800004 	addi	r2,r2,0
  8037dc:	1247883a 	add	r3,r2,r9
  8037e0:	01000044 	movi	r4,1
  8037e4:	da000f15 	stw	r8,60(sp)
  8037e8:	d8c01015 	stw	r3,64(sp)
  8037ec:	b5bef344 	addi	r22,r22,-1075
  8037f0:	d9001315 	stw	r4,76(sp)
  8037f4:	d9401017 	ldw	r5,64(sp)
  8037f8:	d9000f17 	ldw	r4,60(sp)
  8037fc:	0005883a 	mov	r2,zero
  803800:	00cffe34 	movhi	r3,16376
  803804:	18c00004 	addi	r3,r3,0
  803808:	180f883a 	mov	r7,r3
  80380c:	100d883a 	mov	r6,r2
  803810:	08083ac0 	call	8083ac <__subdf3>
  803814:	0218dbf4 	movhi	r8,25455
  803818:	4210d844 	addi	r8,r8,17249
  80381c:	024ff4f4 	movhi	r9,16339
  803820:	4a61e9c4 	addi	r9,r9,-30809
  803824:	480f883a 	mov	r7,r9
  803828:	400d883a 	mov	r6,r8
  80382c:	180b883a 	mov	r5,r3
  803830:	1009883a 	mov	r4,r2
  803834:	08084240 	call	808424 <__muldf3>
  803838:	0222d874 	movhi	r8,35681
  80383c:	42322cc4 	addi	r8,r8,-14157
  803840:	024ff1f4 	movhi	r9,16327
  803844:	4a628a04 	addi	r9,r9,-30168
  803848:	480f883a 	mov	r7,r9
  80384c:	400d883a 	mov	r6,r8
  803850:	180b883a 	mov	r5,r3
  803854:	1009883a 	mov	r4,r2
  803858:	08083400 	call	808340 <__adddf3>
  80385c:	b009883a 	mov	r4,r22
  803860:	1021883a 	mov	r16,r2
  803864:	1823883a 	mov	r17,r3
  803868:	0808d300 	call	808d30 <__floatsidf>
  80386c:	021427f4 	movhi	r8,20639
  803870:	421e7ec4 	addi	r8,r8,31227
  803874:	024ff4f4 	movhi	r9,16339
  803878:	4a5104c4 	addi	r9,r9,17427
  80387c:	480f883a 	mov	r7,r9
  803880:	400d883a 	mov	r6,r8
  803884:	180b883a 	mov	r5,r3
  803888:	1009883a 	mov	r4,r2
  80388c:	08084240 	call	808424 <__muldf3>
  803890:	180f883a 	mov	r7,r3
  803894:	880b883a 	mov	r5,r17
  803898:	100d883a 	mov	r6,r2
  80389c:	8009883a 	mov	r4,r16
  8038a0:	08083400 	call	808340 <__adddf3>
  8038a4:	1009883a 	mov	r4,r2
  8038a8:	180b883a 	mov	r5,r3
  8038ac:	1021883a 	mov	r16,r2
  8038b0:	1823883a 	mov	r17,r3
  8038b4:	0808e000 	call	808e00 <__fixdfsi>
  8038b8:	000d883a 	mov	r6,zero
  8038bc:	000f883a 	mov	r7,zero
  8038c0:	8009883a 	mov	r4,r16
  8038c4:	880b883a 	mov	r5,r17
  8038c8:	d8800915 	stw	r2,36(sp)
  8038cc:	0808ca40 	call	808ca4 <__ltdf2>
  8038d0:	1002ea16 	blt	r2,zero,80447c <_dtoa_r+0xe84>
  8038d4:	d9000917 	ldw	r4,36(sp)
  8038d8:	00c00044 	movi	r3,1
  8038dc:	00800584 	movi	r2,22
  8038e0:	d8c00b15 	stw	r3,44(sp)
  8038e4:	11001036 	bltu	r2,r4,803928 <_dtoa_r+0x330>
  8038e8:	200490fa 	slli	r2,r4,3
  8038ec:	00c02074 	movhi	r3,129
  8038f0:	18c12504 	addi	r3,r3,1172
  8038f4:	900d883a 	mov	r6,r18
  8038f8:	10c5883a 	add	r2,r2,r3
  8038fc:	12000017 	ldw	r8,0(r2)
  803900:	12400117 	ldw	r9,4(r2)
  803904:	980f883a 	mov	r7,r19
  803908:	4009883a 	mov	r4,r8
  80390c:	480b883a 	mov	r5,r9
  803910:	0808b8c0 	call	808b8c <__gtdf2>
  803914:	0080030e 	bge	zero,r2,803924 <_dtoa_r+0x32c>
  803918:	d8800917 	ldw	r2,36(sp)
  80391c:	10bfffc4 	addi	r2,r2,-1
  803920:	d8800915 	stw	r2,36(sp)
  803924:	d8000b15 	stw	zero,44(sp)
  803928:	bd85c83a 	sub	r2,r23,r22
  80392c:	147fffc4 	addi	r17,r2,-1
  803930:	8802ce16 	blt	r17,zero,80446c <_dtoa_r+0xe74>
  803934:	dc400d15 	stw	r17,52(sp)
  803938:	d8000415 	stw	zero,16(sp)
  80393c:	d8c00917 	ldw	r3,36(sp)
  803940:	1802c216 	blt	r3,zero,80444c <_dtoa_r+0xe54>
  803944:	d9000d17 	ldw	r4,52(sp)
  803948:	d8000515 	stw	zero,20(sp)
  80394c:	d8c00e15 	stw	r3,56(sp)
  803950:	20c9883a 	add	r4,r4,r3
  803954:	d9000d15 	stw	r4,52(sp)
  803958:	d8c00317 	ldw	r3,12(sp)
  80395c:	00800244 	movi	r2,9
  803960:	10c0012e 	bgeu	r2,r3,803968 <_dtoa_r+0x370>
  803964:	d8000315 	stw	zero,12(sp)
  803968:	d9000317 	ldw	r4,12(sp)
  80396c:	00800144 	movi	r2,5
  803970:	04000044 	movi	r16,1
  803974:	1100030e 	bge	r2,r4,803984 <_dtoa_r+0x38c>
  803978:	213fff04 	addi	r4,r4,-4
  80397c:	d9000315 	stw	r4,12(sp)
  803980:	0021883a 	mov	r16,zero
  803984:	00ffffc4 	movi	r3,-1
  803988:	d8c00615 	stw	r3,24(sp)
  80398c:	d8c00815 	stw	r3,32(sp)
  803990:	d8c00317 	ldw	r3,12(sp)
  803994:	01000044 	movi	r4,1
  803998:	d9000c15 	stw	r4,48(sp)
  80399c:	10c02136 	bltu	r2,r3,803a24 <_dtoa_r+0x42c>
  8039a0:	180490ba 	slli	r2,r3,2
  8039a4:	00c02074 	movhi	r3,129
  8039a8:	18c0fb04 	addi	r3,r3,1004
  8039ac:	10c5883a 	add	r2,r2,r3
  8039b0:	11000017 	ldw	r4,0(r2)
  8039b4:	2000683a 	jmp	r4
  8039b8:	00800434 	movhi	r2,16
  8039bc:	10bfffc4 	addi	r2,r2,-1
  8039c0:	01002074 	movhi	r4,129
  8039c4:	2100f804 	addi	r4,r4,992
  8039c8:	9884703a 	and	r2,r19,r2
  8039cc:	d9001715 	stw	r4,92(sp)
  8039d0:	103f5a26 	beq	r2,zero,80373c <_dtoa_r+0x144>
  8039d4:	003f5606 	br	803730 <_dtoa_r+0x138>
  8039d8:	00800434 	movhi	r2,16
  8039dc:	10bfffc4 	addi	r2,r2,-1
  8039e0:	ddc00117 	ldw	r23,4(sp)
  8039e4:	14c6703a 	and	r3,r2,r19
  8039e8:	190ffc34 	orhi	r4,r3,16368
  8039ec:	b5bf0044 	addi	r22,r22,-1023
  8039f0:	dc800f15 	stw	r18,60(sp)
  8039f4:	d9001015 	stw	r4,64(sp)
  8039f8:	d8001315 	stw	zero,76(sp)
  8039fc:	003f7d06 	br	8037f4 <_dtoa_r+0x1fc>
  803a00:	d8000c15 	stw	zero,48(sp)
  803a04:	d8c02317 	ldw	r3,140(sp)
  803a08:	d9000917 	ldw	r4,36(sp)
  803a0c:	1905883a 	add	r2,r3,r4
  803a10:	15800044 	addi	r22,r2,1
  803a14:	d8800815 	stw	r2,32(sp)
  803a18:	dd800615 	stw	r22,24(sp)
  803a1c:	05800116 	blt	zero,r22,803a24 <_dtoa_r+0x42c>
  803a20:	05800044 	movi	r22,1
  803a24:	00800604 	movi	r2,24
  803a28:	e0001115 	stw	zero,68(fp)
  803a2c:	04400104 	movi	r17,4
  803a30:	b0800636 	bltu	r22,r2,803a4c <_dtoa_r+0x454>
  803a34:	0007883a 	mov	r3,zero
  803a38:	8c63883a 	add	r17,r17,r17
  803a3c:	18c00044 	addi	r3,r3,1
  803a40:	88800504 	addi	r2,r17,20
  803a44:	b0bffc2e 	bgeu	r22,r2,803a38 <_dtoa_r+0x440>
  803a48:	e0c01115 	stw	r3,68(fp)
  803a4c:	e1401117 	ldw	r5,68(fp)
  803a50:	e009883a 	mov	r4,fp
  803a54:	08059540 	call	805954 <_Balloc>
  803a58:	d8c00617 	ldw	r3,24(sp)
  803a5c:	d8801815 	stw	r2,96(sp)
  803a60:	e0801015 	stw	r2,64(fp)
  803a64:	d8801715 	stw	r2,92(sp)
  803a68:	00800384 	movi	r2,14
  803a6c:	10c0a836 	bltu	r2,r3,803d10 <_dtoa_r+0x718>
  803a70:	8000a726 	beq	r16,zero,803d10 <_dtoa_r+0x718>
  803a74:	d8c00917 	ldw	r3,36(sp)
  803a78:	d9000617 	ldw	r4,24(sp)
  803a7c:	dc800f15 	stw	r18,60(sp)
  803a80:	dcc01015 	stw	r19,64(sp)
  803a84:	d8c00a15 	stw	r3,40(sp)
  803a88:	d9000715 	stw	r4,28(sp)
  803a8c:	05800084 	movi	r22,2
  803a90:	00c1230e 	bge	zero,r3,803f20 <_dtoa_r+0x928>
  803a94:	188003cc 	andi	r2,r3,15
  803a98:	1823d13a 	srai	r17,r3,4
  803a9c:	100490fa 	slli	r2,r2,3
  803aa0:	00c02074 	movhi	r3,129
  803aa4:	18c12504 	addi	r3,r3,1172
  803aa8:	10c5883a 	add	r2,r2,r3
  803aac:	88c0040c 	andi	r3,r17,16
  803ab0:	15000017 	ldw	r20,0(r2)
  803ab4:	15400117 	ldw	r21,4(r2)
  803ab8:	18000d26 	beq	r3,zero,803af0 <_dtoa_r+0x4f8>
  803abc:	01802074 	movhi	r6,129
  803ac0:	31811b04 	addi	r6,r6,1132
  803ac4:	30c00917 	ldw	r3,36(r6)
  803ac8:	30800817 	ldw	r2,32(r6)
  803acc:	980b883a 	mov	r5,r19
  803ad0:	9009883a 	mov	r4,r18
  803ad4:	180f883a 	mov	r7,r3
  803ad8:	100d883a 	mov	r6,r2
  803adc:	08088240 	call	808824 <__divdf3>
  803ae0:	8c4003cc 	andi	r17,r17,15
  803ae4:	058000c4 	movi	r22,3
  803ae8:	1025883a 	mov	r18,r2
  803aec:	1827883a 	mov	r19,r3
  803af0:	88001126 	beq	r17,zero,803b38 <_dtoa_r+0x540>
  803af4:	04002074 	movhi	r16,129
  803af8:	84011b04 	addi	r16,r16,1132
  803afc:	8880004c 	andi	r2,r17,1
  803b00:	10000a26 	beq	r2,zero,803b2c <_dtoa_r+0x534>
  803b04:	80800017 	ldw	r2,0(r16)
  803b08:	80c00117 	ldw	r3,4(r16)
  803b0c:	a80b883a 	mov	r5,r21
  803b10:	a009883a 	mov	r4,r20
  803b14:	180f883a 	mov	r7,r3
  803b18:	100d883a 	mov	r6,r2
  803b1c:	08084240 	call	808424 <__muldf3>
  803b20:	b5800044 	addi	r22,r22,1
  803b24:	1029883a 	mov	r20,r2
  803b28:	182b883a 	mov	r21,r3
  803b2c:	8823d07a 	srai	r17,r17,1
  803b30:	84000204 	addi	r16,r16,8
  803b34:	883ff11e 	bne	r17,zero,803afc <_dtoa_r+0x504>
  803b38:	980b883a 	mov	r5,r19
  803b3c:	9009883a 	mov	r4,r18
  803b40:	a80f883a 	mov	r7,r21
  803b44:	a00d883a 	mov	r6,r20
  803b48:	08088240 	call	808824 <__divdf3>
  803b4c:	1025883a 	mov	r18,r2
  803b50:	1827883a 	mov	r19,r3
  803b54:	d8c00b17 	ldw	r3,44(sp)
  803b58:	18000926 	beq	r3,zero,803b80 <_dtoa_r+0x588>
  803b5c:	0005883a 	mov	r2,zero
  803b60:	00cffc34 	movhi	r3,16368
  803b64:	18c00004 	addi	r3,r3,0
  803b68:	180f883a 	mov	r7,r3
  803b6c:	9009883a 	mov	r4,r18
  803b70:	980b883a 	mov	r5,r19
  803b74:	100d883a 	mov	r6,r2
  803b78:	0808ca40 	call	808ca4 <__ltdf2>
  803b7c:	10037816 	blt	r2,zero,804960 <_dtoa_r+0x1368>
  803b80:	b009883a 	mov	r4,r22
  803b84:	0808d300 	call	808d30 <__floatsidf>
  803b88:	180b883a 	mov	r5,r3
  803b8c:	1009883a 	mov	r4,r2
  803b90:	900d883a 	mov	r6,r18
  803b94:	980f883a 	mov	r7,r19
  803b98:	08084240 	call	808424 <__muldf3>
  803b9c:	0011883a 	mov	r8,zero
  803ba0:	02500734 	movhi	r9,16412
  803ba4:	4a400004 	addi	r9,r9,0
  803ba8:	180b883a 	mov	r5,r3
  803bac:	480f883a 	mov	r7,r9
  803bb0:	1009883a 	mov	r4,r2
  803bb4:	400d883a 	mov	r6,r8
  803bb8:	08083400 	call	808340 <__adddf3>
  803bbc:	d8801115 	stw	r2,68(sp)
  803bc0:	00bf3034 	movhi	r2,64704
  803bc4:	10800004 	addi	r2,r2,0
  803bc8:	18a9883a 	add	r20,r3,r2
  803bcc:	d8800617 	ldw	r2,24(sp)
  803bd0:	dd001215 	stw	r20,72(sp)
  803bd4:	10024e1e 	bne	r2,zero,804510 <_dtoa_r+0xf18>
  803bd8:	00d00534 	movhi	r3,16404
  803bdc:	18c00004 	addi	r3,r3,0
  803be0:	980b883a 	mov	r5,r19
  803be4:	180f883a 	mov	r7,r3
  803be8:	9009883a 	mov	r4,r18
  803bec:	100d883a 	mov	r6,r2
  803bf0:	08083ac0 	call	8083ac <__subdf3>
  803bf4:	d9801117 	ldw	r6,68(sp)
  803bf8:	a00f883a 	mov	r7,r20
  803bfc:	1009883a 	mov	r4,r2
  803c00:	180b883a 	mov	r5,r3
  803c04:	1021883a 	mov	r16,r2
  803c08:	1823883a 	mov	r17,r3
  803c0c:	d8001615 	stw	zero,88(sp)
  803c10:	002f883a 	mov	r23,zero
  803c14:	0808b8c0 	call	808b8c <__gtdf2>
  803c18:	0080260e 	bge	zero,r2,803cb4 <_dtoa_r+0x6bc>
  803c1c:	d8800917 	ldw	r2,36(sp)
  803c20:	d8c01817 	ldw	r3,96(sp)
  803c24:	d9001817 	ldw	r4,96(sp)
  803c28:	10800044 	addi	r2,r2,1
  803c2c:	18c00044 	addi	r3,r3,1
  803c30:	d8800915 	stw	r2,36(sp)
  803c34:	d8c01715 	stw	r3,92(sp)
  803c38:	00800c44 	movi	r2,49
  803c3c:	20800005 	stb	r2,0(r4)
  803c40:	e009883a 	mov	r4,fp
  803c44:	b80b883a 	mov	r5,r23
  803c48:	0805a040 	call	805a04 <_Bfree>
  803c4c:	d9001617 	ldw	r4,88(sp)
  803c50:	20000926 	beq	r4,zero,803c78 <_dtoa_r+0x680>
  803c54:	d8801517 	ldw	r2,84(sp)
  803c58:	10000426 	beq	r2,zero,803c6c <_dtoa_r+0x674>
  803c5c:	11000326 	beq	r2,r4,803c6c <_dtoa_r+0x674>
  803c60:	100b883a 	mov	r5,r2
  803c64:	e009883a 	mov	r4,fp
  803c68:	0805a040 	call	805a04 <_Bfree>
  803c6c:	d9401617 	ldw	r5,88(sp)
  803c70:	e009883a 	mov	r4,fp
  803c74:	0805a040 	call	805a04 <_Bfree>
  803c78:	d9401417 	ldw	r5,80(sp)
  803c7c:	e009883a 	mov	r4,fp
  803c80:	0805a040 	call	805a04 <_Bfree>
  803c84:	d8c01717 	ldw	r3,92(sp)
  803c88:	18000005 	stb	zero,0(r3)
  803c8c:	d9000917 	ldw	r4,36(sp)
  803c90:	d8c02417 	ldw	r3,144(sp)
  803c94:	20800044 	addi	r2,r4,1
  803c98:	d9002617 	ldw	r4,152(sp)
  803c9c:	18800015 	stw	r2,0(r3)
  803ca0:	20000226 	beq	r4,zero,803cac <_dtoa_r+0x6b4>
  803ca4:	d8801717 	ldw	r2,92(sp)
  803ca8:	20800015 	stw	r2,0(r4)
  803cac:	d8801817 	ldw	r2,96(sp)
  803cb0:	003e7c06 	br	8036a4 <_dtoa_r+0xac>
  803cb4:	d9001117 	ldw	r4,68(sp)
  803cb8:	000d883a 	mov	r6,zero
  803cbc:	01e00034 	movhi	r7,32768
  803cc0:	39c00004 	addi	r7,r7,0
  803cc4:	2184f03a 	xor	r2,r4,r6
  803cc8:	d9001217 	ldw	r4,72(sp)
  803ccc:	800d883a 	mov	r6,r16
  803cd0:	21c6f03a 	xor	r3,r4,r7
  803cd4:	180b883a 	mov	r5,r3
  803cd8:	1009883a 	mov	r4,r2
  803cdc:	880f883a 	mov	r7,r17
  803ce0:	0808b8c0 	call	808b8c <__gtdf2>
  803ce4:	00808a16 	blt	zero,r2,803f10 <_dtoa_r+0x918>
  803ce8:	d9000f17 	ldw	r4,60(sp)
  803cec:	d8801017 	ldw	r2,64(sp)
  803cf0:	d8c00a17 	ldw	r3,40(sp)
  803cf4:	2025883a 	mov	r18,r4
  803cf8:	1027883a 	mov	r19,r2
  803cfc:	d9000717 	ldw	r4,28(sp)
  803d00:	d8801817 	ldw	r2,96(sp)
  803d04:	d8c00915 	stw	r3,36(sp)
  803d08:	d9000615 	stw	r4,24(sp)
  803d0c:	d8801715 	stw	r2,92(sp)
  803d10:	d8c00217 	ldw	r3,8(sp)
  803d14:	1800a716 	blt	r3,zero,803fb4 <_dtoa_r+0x9bc>
  803d18:	d9000917 	ldw	r4,36(sp)
  803d1c:	00800384 	movi	r2,14
  803d20:	1100a416 	blt	r2,r4,803fb4 <_dtoa_r+0x9bc>
  803d24:	200490fa 	slli	r2,r4,3
  803d28:	00c02074 	movhi	r3,129
  803d2c:	18c12504 	addi	r3,r3,1172
  803d30:	10c5883a 	add	r2,r2,r3
  803d34:	15000017 	ldw	r20,0(r2)
  803d38:	15400117 	ldw	r21,4(r2)
  803d3c:	d8802317 	ldw	r2,140(sp)
  803d40:	10006016 	blt	r2,zero,803ec4 <_dtoa_r+0x8cc>
  803d44:	05800044 	movi	r22,1
  803d48:	00001106 	br	803d90 <_dtoa_r+0x798>
  803d4c:	0005883a 	mov	r2,zero
  803d50:	00d00934 	movhi	r3,16420
  803d54:	18c00004 	addi	r3,r3,0
  803d58:	400d883a 	mov	r6,r8
  803d5c:	180b883a 	mov	r5,r3
  803d60:	480f883a 	mov	r7,r9
  803d64:	1009883a 	mov	r4,r2
  803d68:	08084240 	call	808424 <__muldf3>
  803d6c:	180b883a 	mov	r5,r3
  803d70:	000d883a 	mov	r6,zero
  803d74:	000f883a 	mov	r7,zero
  803d78:	1009883a 	mov	r4,r2
  803d7c:	1025883a 	mov	r18,r2
  803d80:	1827883a 	mov	r19,r3
  803d84:	0808a740 	call	808a74 <__eqdf2>
  803d88:	103fbb26 	beq	r2,zero,803c78 <_dtoa_r+0x680>
  803d8c:	b5800044 	addi	r22,r22,1
  803d90:	a00d883a 	mov	r6,r20
  803d94:	a80f883a 	mov	r7,r21
  803d98:	9009883a 	mov	r4,r18
  803d9c:	980b883a 	mov	r5,r19
  803da0:	08088240 	call	808824 <__divdf3>
  803da4:	180b883a 	mov	r5,r3
  803da8:	1009883a 	mov	r4,r2
  803dac:	0808e000 	call	808e00 <__fixdfsi>
  803db0:	1009883a 	mov	r4,r2
  803db4:	102f883a 	mov	r23,r2
  803db8:	0808d300 	call	808d30 <__floatsidf>
  803dbc:	180b883a 	mov	r5,r3
  803dc0:	1009883a 	mov	r4,r2
  803dc4:	a00d883a 	mov	r6,r20
  803dc8:	a80f883a 	mov	r7,r21
  803dcc:	08084240 	call	808424 <__muldf3>
  803dd0:	180f883a 	mov	r7,r3
  803dd4:	9009883a 	mov	r4,r18
  803dd8:	980b883a 	mov	r5,r19
  803ddc:	100d883a 	mov	r6,r2
  803de0:	08083ac0 	call	8083ac <__subdf3>
  803de4:	d9001717 	ldw	r4,92(sp)
  803de8:	1011883a 	mov	r8,r2
  803dec:	b8800c04 	addi	r2,r23,48
  803df0:	20800005 	stb	r2,0(r4)
  803df4:	d8800617 	ldw	r2,24(sp)
  803df8:	21000044 	addi	r4,r4,1
  803dfc:	1813883a 	mov	r9,r3
  803e00:	d9001715 	stw	r4,92(sp)
  803e04:	b0bfd11e 	bne	r22,r2,803d4c <_dtoa_r+0x754>
  803e08:	4009883a 	mov	r4,r8
  803e0c:	180b883a 	mov	r5,r3
  803e10:	400d883a 	mov	r6,r8
  803e14:	180f883a 	mov	r7,r3
  803e18:	08083400 	call	808340 <__adddf3>
  803e1c:	100d883a 	mov	r6,r2
  803e20:	a009883a 	mov	r4,r20
  803e24:	a80b883a 	mov	r5,r21
  803e28:	180f883a 	mov	r7,r3
  803e2c:	1021883a 	mov	r16,r2
  803e30:	1823883a 	mov	r17,r3
  803e34:	0808ca40 	call	808ca4 <__ltdf2>
  803e38:	10000816 	blt	r2,zero,803e5c <_dtoa_r+0x864>
  803e3c:	a80b883a 	mov	r5,r21
  803e40:	800d883a 	mov	r6,r16
  803e44:	880f883a 	mov	r7,r17
  803e48:	a009883a 	mov	r4,r20
  803e4c:	0808a740 	call	808a74 <__eqdf2>
  803e50:	103f891e 	bne	r2,zero,803c78 <_dtoa_r+0x680>
  803e54:	b880004c 	andi	r2,r23,1
  803e58:	103f8726 	beq	r2,zero,803c78 <_dtoa_r+0x680>
  803e5c:	d8c01717 	ldw	r3,92(sp)
  803e60:	00800e44 	movi	r2,57
  803e64:	18ffffc4 	addi	r3,r3,-1
  803e68:	d8c01715 	stw	r3,92(sp)
  803e6c:	18c00007 	ldb	r3,0(r3)
  803e70:	1882341e 	bne	r3,r2,804744 <_dtoa_r+0x114c>
  803e74:	d9001717 	ldw	r4,92(sp)
  803e78:	d8801817 	ldw	r2,96(sp)
  803e7c:	20822b26 	beq	r4,r2,80472c <_dtoa_r+0x1134>
  803e80:	213fffc4 	addi	r4,r4,-1
  803e84:	d9001715 	stw	r4,92(sp)
  803e88:	20800007 	ldb	r2,0(r4)
  803e8c:	003ff806 	br	803e70 <_dtoa_r+0x878>
  803e90:	1d85c83a 	sub	r2,r3,r22
  803e94:	90a0983a 	sll	r16,r18,r2
  803e98:	003e4906 	br	8037c0 <_dtoa_r+0x1c8>
  803e9c:	d8000c15 	stw	zero,48(sp)
  803ea0:	d9002317 	ldw	r4,140(sp)
  803ea4:	0102a70e 	bge	zero,r4,804944 <_dtoa_r+0x134c>
  803ea8:	dd802317 	ldw	r22,140(sp)
  803eac:	dd800815 	stw	r22,32(sp)
  803eb0:	dd800615 	stw	r22,24(sp)
  803eb4:	003edb06 	br	803a24 <_dtoa_r+0x42c>
  803eb8:	05800484 	movi	r22,18
  803ebc:	d8002315 	stw	zero,140(sp)
  803ec0:	003ed806 	br	803a24 <_dtoa_r+0x42c>
  803ec4:	d8c00617 	ldw	r3,24(sp)
  803ec8:	00ff9e16 	blt	zero,r3,803d44 <_dtoa_r+0x74c>
  803ecc:	d8001615 	stw	zero,88(sp)
  803ed0:	002f883a 	mov	r23,zero
  803ed4:	18000e16 	blt	r3,zero,803f10 <_dtoa_r+0x918>
  803ed8:	0005883a 	mov	r2,zero
  803edc:	00d00534 	movhi	r3,16404
  803ee0:	18c00004 	addi	r3,r3,0
  803ee4:	a80b883a 	mov	r5,r21
  803ee8:	180f883a 	mov	r7,r3
  803eec:	a009883a 	mov	r4,r20
  803ef0:	100d883a 	mov	r6,r2
  803ef4:	08084240 	call	808424 <__muldf3>
  803ef8:	180b883a 	mov	r5,r3
  803efc:	980f883a 	mov	r7,r19
  803f00:	1009883a 	mov	r4,r2
  803f04:	900d883a 	mov	r6,r18
  803f08:	0808c180 	call	808c18 <__gedf2>
  803f0c:	103f4316 	blt	r2,zero,803c1c <_dtoa_r+0x624>
  803f10:	d9002317 	ldw	r4,140(sp)
  803f14:	0108303a 	nor	r4,zero,r4
  803f18:	d9000915 	stw	r4,36(sp)
  803f1c:	003f4806 	br	803c40 <_dtoa_r+0x648>
  803f20:	d8800917 	ldw	r2,36(sp)
  803f24:	00a9c83a 	sub	r20,zero,r2
  803f28:	a03f0a26 	beq	r20,zero,803b54 <_dtoa_r+0x55c>
  803f2c:	a14003cc 	andi	r5,r20,15
  803f30:	280a90fa 	slli	r5,r5,3
  803f34:	01002074 	movhi	r4,129
  803f38:	21012504 	addi	r4,r4,1172
  803f3c:	a023d13a 	srai	r17,r20,4
  803f40:	290b883a 	add	r5,r5,r4
  803f44:	28800017 	ldw	r2,0(r5)
  803f48:	28c00117 	ldw	r3,4(r5)
  803f4c:	980f883a 	mov	r7,r19
  803f50:	900d883a 	mov	r6,r18
  803f54:	180b883a 	mov	r5,r3
  803f58:	1009883a 	mov	r4,r2
  803f5c:	08084240 	call	808424 <__muldf3>
  803f60:	1025883a 	mov	r18,r2
  803f64:	1827883a 	mov	r19,r3
  803f68:	883efa26 	beq	r17,zero,803b54 <_dtoa_r+0x55c>
  803f6c:	04002074 	movhi	r16,129
  803f70:	84011b04 	addi	r16,r16,1132
  803f74:	8880004c 	andi	r2,r17,1
  803f78:	10000a26 	beq	r2,zero,803fa4 <_dtoa_r+0x9ac>
  803f7c:	80800017 	ldw	r2,0(r16)
  803f80:	80c00117 	ldw	r3,4(r16)
  803f84:	980f883a 	mov	r7,r19
  803f88:	900d883a 	mov	r6,r18
  803f8c:	180b883a 	mov	r5,r3
  803f90:	1009883a 	mov	r4,r2
  803f94:	08084240 	call	808424 <__muldf3>
  803f98:	b5800044 	addi	r22,r22,1
  803f9c:	1025883a 	mov	r18,r2
  803fa0:	1827883a 	mov	r19,r3
  803fa4:	8823d07a 	srai	r17,r17,1
  803fa8:	84000204 	addi	r16,r16,8
  803fac:	883ff11e 	bne	r17,zero,803f74 <_dtoa_r+0x97c>
  803fb0:	003ee806 	br	803b54 <_dtoa_r+0x55c>
  803fb4:	d9000c17 	ldw	r4,48(sp)
  803fb8:	dd000417 	ldw	r20,16(sp)
  803fbc:	dc000517 	ldw	r16,20(sp)
  803fc0:	202b003a 	cmpeq	r21,r4,zero
  803fc4:	d8001515 	stw	zero,84(sp)
  803fc8:	d8001615 	stw	zero,88(sp)
  803fcc:	a800131e 	bne	r21,zero,80401c <_dtoa_r+0xa24>
  803fd0:	d9000317 	ldw	r4,12(sp)
  803fd4:	00800044 	movi	r2,1
  803fd8:	1101a216 	blt	r2,r4,804664 <_dtoa_r+0x106c>
  803fdc:	d8801317 	ldw	r2,76(sp)
  803fe0:	1d810cc4 	addi	r22,r3,1075
  803fe4:	1000031e 	bne	r2,zero,803ff4 <_dtoa_r+0x9fc>
  803fe8:	d8800117 	ldw	r2,4(sp)
  803fec:	00c00d84 	movi	r3,54
  803ff0:	18adc83a 	sub	r22,r3,r2
  803ff4:	e009883a 	mov	r4,fp
  803ff8:	01400044 	movi	r5,1
  803ffc:	0805d600 	call	805d60 <_i2b>
  804000:	d8801615 	stw	r2,88(sp)
  804004:	d9000d17 	ldw	r4,52(sp)
  804008:	d8800417 	ldw	r2,16(sp)
  80400c:	2589883a 	add	r4,r4,r22
  804010:	1585883a 	add	r2,r2,r22
  804014:	d9000d15 	stw	r4,52(sp)
  804018:	d8800415 	stw	r2,16(sp)
  80401c:	05000c0e 	bge	zero,r20,804050 <_dtoa_r+0xa58>
  804020:	d8c00d17 	ldw	r3,52(sp)
  804024:	00c00a0e 	bge	zero,r3,804050 <_dtoa_r+0xa58>
  804028:	182d883a 	mov	r22,r3
  80402c:	a0c0010e 	bge	r20,r3,804034 <_dtoa_r+0xa3c>
  804030:	a02d883a 	mov	r22,r20
  804034:	d9000d17 	ldw	r4,52(sp)
  804038:	d8800417 	ldw	r2,16(sp)
  80403c:	a5a9c83a 	sub	r20,r20,r22
  804040:	2589c83a 	sub	r4,r4,r22
  804044:	1585c83a 	sub	r2,r2,r22
  804048:	d9000d15 	stw	r4,52(sp)
  80404c:	d8800415 	stw	r2,16(sp)
  804050:	d8c00517 	ldw	r3,20(sp)
  804054:	00c0130e 	bge	zero,r3,8040a4 <_dtoa_r+0xaac>
  804058:	a801941e 	bne	r21,zero,8046ac <_dtoa_r+0x10b4>
  80405c:	04000e0e 	bge	zero,r16,804098 <_dtoa_r+0xaa0>
  804060:	d9401617 	ldw	r5,88(sp)
  804064:	e009883a 	mov	r4,fp
  804068:	800d883a 	mov	r6,r16
  80406c:	0805ff00 	call	805ff0 <_pow5mult>
  804070:	d9801417 	ldw	r6,80(sp)
  804074:	e009883a 	mov	r4,fp
  804078:	100b883a 	mov	r5,r2
  80407c:	d8801615 	stw	r2,88(sp)
  804080:	0805d9c0 	call	805d9c <_multiply>
  804084:	d9401417 	ldw	r5,80(sp)
  804088:	1023883a 	mov	r17,r2
  80408c:	e009883a 	mov	r4,fp
  804090:	0805a040 	call	805a04 <_Bfree>
  804094:	dc401415 	stw	r17,80(sp)
  804098:	d9000517 	ldw	r4,20(sp)
  80409c:	2423c83a 	sub	r17,r4,r16
  8040a0:	8801af1e 	bne	r17,zero,804760 <_dtoa_r+0x1168>
  8040a4:	04000044 	movi	r16,1
  8040a8:	e009883a 	mov	r4,fp
  8040ac:	800b883a 	mov	r5,r16
  8040b0:	0805d600 	call	805d60 <_i2b>
  8040b4:	102f883a 	mov	r23,r2
  8040b8:	d8800e17 	ldw	r2,56(sp)
  8040bc:	0080050e 	bge	zero,r2,8040d4 <_dtoa_r+0xadc>
  8040c0:	b80b883a 	mov	r5,r23
  8040c4:	e009883a 	mov	r4,fp
  8040c8:	100d883a 	mov	r6,r2
  8040cc:	0805ff00 	call	805ff0 <_pow5mult>
  8040d0:	102f883a 	mov	r23,r2
  8040d4:	d8c00317 	ldw	r3,12(sp)
  8040d8:	0023883a 	mov	r17,zero
  8040dc:	80c00e16 	blt	r16,r3,804118 <_dtoa_r+0xb20>
  8040e0:	90000d1e 	bne	r18,zero,804118 <_dtoa_r+0xb20>
  8040e4:	00800434 	movhi	r2,16
  8040e8:	10bfffc4 	addi	r2,r2,-1
  8040ec:	9884703a 	and	r2,r19,r2
  8040f0:	1000091e 	bne	r2,zero,804118 <_dtoa_r+0xb20>
  8040f4:	989ffc2c 	andhi	r2,r19,32752
  8040f8:	10000726 	beq	r2,zero,804118 <_dtoa_r+0xb20>
  8040fc:	d9000417 	ldw	r4,16(sp)
  804100:	d8800d17 	ldw	r2,52(sp)
  804104:	8023883a 	mov	r17,r16
  804108:	21000044 	addi	r4,r4,1
  80410c:	10800044 	addi	r2,r2,1
  804110:	d9000415 	stw	r4,16(sp)
  804114:	d8800d15 	stw	r2,52(sp)
  804118:	d8c00e17 	ldw	r3,56(sp)
  80411c:	1800f41e 	bne	r3,zero,8044f0 <_dtoa_r+0xef8>
  804120:	d8c00d17 	ldw	r3,52(sp)
  804124:	18800044 	addi	r2,r3,1
  804128:	158007cc 	andi	r22,r2,31
  80412c:	b0000226 	beq	r22,zero,804138 <_dtoa_r+0xb40>
  804130:	00800804 	movi	r2,32
  804134:	15adc83a 	sub	r22,r2,r22
  804138:	00800104 	movi	r2,4
  80413c:	1580b20e 	bge	r2,r22,804408 <_dtoa_r+0xe10>
  804140:	d9000d17 	ldw	r4,52(sp)
  804144:	d8800417 	ldw	r2,16(sp)
  804148:	b5bfff04 	addi	r22,r22,-4
  80414c:	2589883a 	add	r4,r4,r22
  804150:	1585883a 	add	r2,r2,r22
  804154:	d9000d15 	stw	r4,52(sp)
  804158:	d8800415 	stw	r2,16(sp)
  80415c:	a5a9883a 	add	r20,r20,r22
  804160:	d8800417 	ldw	r2,16(sp)
  804164:	0080050e 	bge	zero,r2,80417c <_dtoa_r+0xb84>
  804168:	d9401417 	ldw	r5,80(sp)
  80416c:	100d883a 	mov	r6,r2
  804170:	e009883a 	mov	r4,fp
  804174:	080611c0 	call	80611c <_lshift>
  804178:	d8801415 	stw	r2,80(sp)
  80417c:	d8c00d17 	ldw	r3,52(sp)
  804180:	00c0050e 	bge	zero,r3,804198 <_dtoa_r+0xba0>
  804184:	b80b883a 	mov	r5,r23
  804188:	180d883a 	mov	r6,r3
  80418c:	e009883a 	mov	r4,fp
  804190:	080611c0 	call	80611c <_lshift>
  804194:	102f883a 	mov	r23,r2
  804198:	d9000b17 	ldw	r4,44(sp)
  80419c:	2000c31e 	bne	r4,zero,8044ac <_dtoa_r+0xeb4>
  8041a0:	d9000617 	ldw	r4,24(sp)
  8041a4:	0101520e 	bge	zero,r4,8046f0 <_dtoa_r+0x10f8>
  8041a8:	05800044 	movi	r22,1
  8041ac:	a8004d1e 	bne	r21,zero,8042e4 <_dtoa_r+0xcec>
  8041b0:	0500050e 	bge	zero,r20,8041c8 <_dtoa_r+0xbd0>
  8041b4:	d9401617 	ldw	r5,88(sp)
  8041b8:	a00d883a 	mov	r6,r20
  8041bc:	e009883a 	mov	r4,fp
  8041c0:	080611c0 	call	80611c <_lshift>
  8041c4:	d8801615 	stw	r2,88(sp)
  8041c8:	d8801617 	ldw	r2,88(sp)
  8041cc:	d8801515 	stw	r2,84(sp)
  8041d0:	8801661e 	bne	r17,zero,80476c <_dtoa_r+0x1174>
  8041d4:	94c0004c 	andi	r19,r18,1
  8041d8:	05800044 	movi	r22,1
  8041dc:	05400e44 	movi	r21,57
  8041e0:	d9001417 	ldw	r4,80(sp)
  8041e4:	b80b883a 	mov	r5,r23
  8041e8:	05000044 	movi	r20,1
  8041ec:	08033cc0 	call	8033cc <quorem>
  8041f0:	d9001417 	ldw	r4,80(sp)
  8041f4:	d9401517 	ldw	r5,84(sp)
  8041f8:	14800c04 	addi	r18,r2,48
  8041fc:	08062540 	call	806254 <__mcmp>
  804200:	d9801617 	ldw	r6,88(sp)
  804204:	e009883a 	mov	r4,fp
  804208:	b80b883a 	mov	r5,r23
  80420c:	1023883a 	mov	r17,r2
  804210:	08062b80 	call	8062b8 <__mdiff>
  804214:	1021883a 	mov	r16,r2
  804218:	10800317 	ldw	r2,12(r2)
  80421c:	10006c26 	beq	r2,zero,8043d0 <_dtoa_r+0xdd8>
  804220:	800b883a 	mov	r5,r16
  804224:	e009883a 	mov	r4,fp
  804228:	0805a040 	call	805a04 <_Bfree>
  80422c:	a000031e 	bne	r20,zero,80423c <_dtoa_r+0xc44>
  804230:	d9000317 	ldw	r4,12(sp)
  804234:	2000011e 	bne	r4,zero,80423c <_dtoa_r+0xc44>
  804238:	98005d26 	beq	r19,zero,8043b0 <_dtoa_r+0xdb8>
  80423c:	88004a16 	blt	r17,zero,804368 <_dtoa_r+0xd70>
  804240:	8800031e 	bne	r17,zero,804250 <_dtoa_r+0xc58>
  804244:	d8c00317 	ldw	r3,12(sp)
  804248:	1800011e 	bne	r3,zero,804250 <_dtoa_r+0xc58>
  80424c:	98004626 	beq	r19,zero,804368 <_dtoa_r+0xd70>
  804250:	0501a916 	blt	zero,r20,8048f8 <_dtoa_r+0x1300>
  804254:	d9001717 	ldw	r4,92(sp)
  804258:	24800005 	stb	r18,0(r4)
  80425c:	d8800617 	ldw	r2,24(sp)
  804260:	21000044 	addi	r4,r4,1
  804264:	d9001715 	stw	r4,92(sp)
  804268:	b0802926 	beq	r22,r2,804310 <_dtoa_r+0xd18>
  80426c:	d9401417 	ldw	r5,80(sp)
  804270:	e009883a 	mov	r4,fp
  804274:	01800284 	movi	r6,10
  804278:	000f883a 	mov	r7,zero
  80427c:	0805a280 	call	805a28 <_multadd>
  804280:	d8c01517 	ldw	r3,84(sp)
  804284:	d9001617 	ldw	r4,88(sp)
  804288:	d8801415 	stw	r2,80(sp)
  80428c:	19005526 	beq	r3,r4,8043e4 <_dtoa_r+0xdec>
  804290:	d9401517 	ldw	r5,84(sp)
  804294:	e009883a 	mov	r4,fp
  804298:	01800284 	movi	r6,10
  80429c:	000f883a 	mov	r7,zero
  8042a0:	0805a280 	call	805a28 <_multadd>
  8042a4:	d9401617 	ldw	r5,88(sp)
  8042a8:	e009883a 	mov	r4,fp
  8042ac:	01800284 	movi	r6,10
  8042b0:	000f883a 	mov	r7,zero
  8042b4:	d8801515 	stw	r2,84(sp)
  8042b8:	b5800044 	addi	r22,r22,1
  8042bc:	0805a280 	call	805a28 <_multadd>
  8042c0:	d8801615 	stw	r2,88(sp)
  8042c4:	003fc606 	br	8041e0 <_dtoa_r+0xbe8>
  8042c8:	d9401417 	ldw	r5,80(sp)
  8042cc:	e009883a 	mov	r4,fp
  8042d0:	01800284 	movi	r6,10
  8042d4:	000f883a 	mov	r7,zero
  8042d8:	0805a280 	call	805a28 <_multadd>
  8042dc:	d8801415 	stw	r2,80(sp)
  8042e0:	b5800044 	addi	r22,r22,1
  8042e4:	d9001417 	ldw	r4,80(sp)
  8042e8:	b80b883a 	mov	r5,r23
  8042ec:	08033cc0 	call	8033cc <quorem>
  8042f0:	14800c04 	addi	r18,r2,48
  8042f4:	d8801717 	ldw	r2,92(sp)
  8042f8:	14800005 	stb	r18,0(r2)
  8042fc:	d8801717 	ldw	r2,92(sp)
  804300:	d8c00617 	ldw	r3,24(sp)
  804304:	10800044 	addi	r2,r2,1
  804308:	d8801715 	stw	r2,92(sp)
  80430c:	b0ffee16 	blt	r22,r3,8042c8 <_dtoa_r+0xcd0>
  804310:	d9401417 	ldw	r5,80(sp)
  804314:	e009883a 	mov	r4,fp
  804318:	01800044 	movi	r6,1
  80431c:	080611c0 	call	80611c <_lshift>
  804320:	1009883a 	mov	r4,r2
  804324:	b80b883a 	mov	r5,r23
  804328:	d8801415 	stw	r2,80(sp)
  80432c:	08062540 	call	806254 <__mcmp>
  804330:	0081770e 	bge	zero,r2,804910 <_dtoa_r+0x1318>
  804334:	d9001717 	ldw	r4,92(sp)
  804338:	00800e44 	movi	r2,57
  80433c:	213fffc4 	addi	r4,r4,-1
  804340:	d9001715 	stw	r4,92(sp)
  804344:	20c00007 	ldb	r3,0(r4)
  804348:	1880391e 	bne	r3,r2,804430 <_dtoa_r+0xe38>
  80434c:	d8801717 	ldw	r2,92(sp)
  804350:	d9001817 	ldw	r4,96(sp)
  804354:	113e3126 	beq	r2,r4,803c1c <_dtoa_r+0x624>
  804358:	10bfffc4 	addi	r2,r2,-1
  80435c:	d8801715 	stw	r2,92(sp)
  804360:	10800007 	ldb	r2,0(r2)
  804364:	003ff806 	br	804348 <_dtoa_r+0xd50>
  804368:	05000c0e 	bge	zero,r20,80439c <_dtoa_r+0xda4>
  80436c:	d9401417 	ldw	r5,80(sp)
  804370:	e009883a 	mov	r4,fp
  804374:	01800044 	movi	r6,1
  804378:	080611c0 	call	80611c <_lshift>
  80437c:	1009883a 	mov	r4,r2
  804380:	b80b883a 	mov	r5,r23
  804384:	d8801415 	stw	r2,80(sp)
  804388:	08062540 	call	806254 <__mcmp>
  80438c:	00818a0e 	bge	zero,r2,8049b8 <_dtoa_r+0x13c0>
  804390:	94800044 	addi	r18,r18,1
  804394:	00800e84 	movi	r2,58
  804398:	90815826 	beq	r18,r2,8048fc <_dtoa_r+0x1304>
  80439c:	d9001717 	ldw	r4,92(sp)
  8043a0:	24800005 	stb	r18,0(r4)
  8043a4:	21000044 	addi	r4,r4,1
  8043a8:	d9001715 	stw	r4,92(sp)
  8043ac:	003e2406 	br	803c40 <_dtoa_r+0x648>
  8043b0:	95415226 	beq	r18,r21,8048fc <_dtoa_r+0x1304>
  8043b4:	0440010e 	bge	zero,r17,8043bc <_dtoa_r+0xdc4>
  8043b8:	94800044 	addi	r18,r18,1
  8043bc:	d8801717 	ldw	r2,92(sp)
  8043c0:	14800005 	stb	r18,0(r2)
  8043c4:	10800044 	addi	r2,r2,1
  8043c8:	d8801715 	stw	r2,92(sp)
  8043cc:	003e1c06 	br	803c40 <_dtoa_r+0x648>
  8043d0:	d9001417 	ldw	r4,80(sp)
  8043d4:	800b883a 	mov	r5,r16
  8043d8:	08062540 	call	806254 <__mcmp>
  8043dc:	1029883a 	mov	r20,r2
  8043e0:	003f8f06 	br	804220 <_dtoa_r+0xc28>
  8043e4:	200b883a 	mov	r5,r4
  8043e8:	01800284 	movi	r6,10
  8043ec:	e009883a 	mov	r4,fp
  8043f0:	000f883a 	mov	r7,zero
  8043f4:	0805a280 	call	805a28 <_multadd>
  8043f8:	b5800044 	addi	r22,r22,1
  8043fc:	d8801615 	stw	r2,88(sp)
  804400:	d8801515 	stw	r2,84(sp)
  804404:	003f7606 	br	8041e0 <_dtoa_r+0xbe8>
  804408:	008000c4 	movi	r2,3
  80440c:	15bf5416 	blt	r2,r22,804160 <_dtoa_r+0xb68>
  804410:	d8c00d17 	ldw	r3,52(sp)
  804414:	d9000417 	ldw	r4,16(sp)
  804418:	b5800704 	addi	r22,r22,28
  80441c:	1d87883a 	add	r3,r3,r22
  804420:	2589883a 	add	r4,r4,r22
  804424:	d8c00d15 	stw	r3,52(sp)
  804428:	d9000415 	stw	r4,16(sp)
  80442c:	003f4b06 	br	80415c <_dtoa_r+0xb64>
  804430:	d8c01717 	ldw	r3,92(sp)
  804434:	18800003 	ldbu	r2,0(r3)
  804438:	19000044 	addi	r4,r3,1
  80443c:	d9001715 	stw	r4,92(sp)
  804440:	10800044 	addi	r2,r2,1
  804444:	18800005 	stb	r2,0(r3)
  804448:	003dfd06 	br	803c40 <_dtoa_r+0x648>
  80444c:	d8800417 	ldw	r2,16(sp)
  804450:	d8c00917 	ldw	r3,36(sp)
  804454:	d8000e15 	stw	zero,56(sp)
  804458:	10c5c83a 	sub	r2,r2,r3
  80445c:	00c9c83a 	sub	r4,zero,r3
  804460:	d8800415 	stw	r2,16(sp)
  804464:	d9000515 	stw	r4,20(sp)
  804468:	003d3b06 	br	803958 <_dtoa_r+0x360>
  80446c:	0463c83a 	sub	r17,zero,r17
  804470:	dc400415 	stw	r17,16(sp)
  804474:	d8000d15 	stw	zero,52(sp)
  804478:	003d3006 	br	80393c <_dtoa_r+0x344>
  80447c:	d9000917 	ldw	r4,36(sp)
  804480:	0808d300 	call	808d30 <__floatsidf>
  804484:	180b883a 	mov	r5,r3
  804488:	800d883a 	mov	r6,r16
  80448c:	880f883a 	mov	r7,r17
  804490:	1009883a 	mov	r4,r2
  804494:	0808b000 	call	808b00 <__nedf2>
  804498:	103d0e26 	beq	r2,zero,8038d4 <_dtoa_r+0x2dc>
  80449c:	d8800917 	ldw	r2,36(sp)
  8044a0:	10bfffc4 	addi	r2,r2,-1
  8044a4:	d8800915 	stw	r2,36(sp)
  8044a8:	003d0a06 	br	8038d4 <_dtoa_r+0x2dc>
  8044ac:	d9001417 	ldw	r4,80(sp)
  8044b0:	b80b883a 	mov	r5,r23
  8044b4:	08062540 	call	806254 <__mcmp>
  8044b8:	103f390e 	bge	r2,zero,8041a0 <_dtoa_r+0xba8>
  8044bc:	d9401417 	ldw	r5,80(sp)
  8044c0:	e009883a 	mov	r4,fp
  8044c4:	01800284 	movi	r6,10
  8044c8:	000f883a 	mov	r7,zero
  8044cc:	0805a280 	call	805a28 <_multadd>
  8044d0:	d8801415 	stw	r2,80(sp)
  8044d4:	d8800917 	ldw	r2,36(sp)
  8044d8:	10bfffc4 	addi	r2,r2,-1
  8044dc:	d8800915 	stw	r2,36(sp)
  8044e0:	a8013926 	beq	r21,zero,8049c8 <_dtoa_r+0x13d0>
  8044e4:	d8c00817 	ldw	r3,32(sp)
  8044e8:	d8c00615 	stw	r3,24(sp)
  8044ec:	003f2c06 	br	8041a0 <_dtoa_r+0xba8>
  8044f0:	b8800417 	ldw	r2,16(r23)
  8044f4:	100490ba 	slli	r2,r2,2
  8044f8:	15c5883a 	add	r2,r2,r23
  8044fc:	11000417 	ldw	r4,16(r2)
  804500:	0805c480 	call	805c48 <_hi0bits>
  804504:	d9000d17 	ldw	r4,52(sp)
  804508:	2085c83a 	sub	r2,r4,r2
  80450c:	003f0606 	br	804128 <_dtoa_r+0xb30>
  804510:	d8800c17 	ldw	r2,48(sp)
  804514:	1000a626 	beq	r2,zero,8047b0 <_dtoa_r+0x11b8>
  804518:	d8c00617 	ldw	r3,24(sp)
  80451c:	01002074 	movhi	r4,129
  804520:	21012304 	addi	r4,r4,1164
  804524:	0005883a 	mov	r2,zero
  804528:	180c90fa 	slli	r6,r3,3
  80452c:	00cff834 	movhi	r3,16352
  804530:	18c00004 	addi	r3,r3,0
  804534:	180b883a 	mov	r5,r3
  804538:	310d883a 	add	r6,r6,r4
  80453c:	32400117 	ldw	r9,4(r6)
  804540:	32000017 	ldw	r8,0(r6)
  804544:	1009883a 	mov	r4,r2
  804548:	480f883a 	mov	r7,r9
  80454c:	400d883a 	mov	r6,r8
  804550:	08088240 	call	808824 <__divdf3>
  804554:	d9801117 	ldw	r6,68(sp)
  804558:	180b883a 	mov	r5,r3
  80455c:	a00f883a 	mov	r7,r20
  804560:	1009883a 	mov	r4,r2
  804564:	08083ac0 	call	8083ac <__subdf3>
  804568:	002d883a 	mov	r22,zero
  80456c:	d8801115 	stw	r2,68(sp)
  804570:	d8c01215 	stw	r3,72(sp)
  804574:	00001106 	br	8045bc <_dtoa_r+0xfc4>
  804578:	d9c01217 	ldw	r7,72(sp)
  80457c:	d9801117 	ldw	r6,68(sp)
  804580:	04500934 	movhi	r17,16420
  804584:	8c400004 	addi	r17,r17,0
  804588:	0021883a 	mov	r16,zero
  80458c:	8009883a 	mov	r4,r16
  804590:	880b883a 	mov	r5,r17
  804594:	08084240 	call	808424 <__muldf3>
  804598:	0009883a 	mov	r4,zero
  80459c:	880b883a 	mov	r5,r17
  8045a0:	a00d883a 	mov	r6,r20
  8045a4:	a80f883a 	mov	r7,r21
  8045a8:	d8801115 	stw	r2,68(sp)
  8045ac:	d8c01215 	stw	r3,72(sp)
  8045b0:	08084240 	call	808424 <__muldf3>
  8045b4:	1025883a 	mov	r18,r2
  8045b8:	1827883a 	mov	r19,r3
  8045bc:	980b883a 	mov	r5,r19
  8045c0:	9009883a 	mov	r4,r18
  8045c4:	0808e000 	call	808e00 <__fixdfsi>
  8045c8:	1009883a 	mov	r4,r2
  8045cc:	102f883a 	mov	r23,r2
  8045d0:	0808d300 	call	808d30 <__floatsidf>
  8045d4:	980b883a 	mov	r5,r19
  8045d8:	180f883a 	mov	r7,r3
  8045dc:	9009883a 	mov	r4,r18
  8045e0:	100d883a 	mov	r6,r2
  8045e4:	08083ac0 	call	8083ac <__subdf3>
  8045e8:	182b883a 	mov	r21,r3
  8045ec:	d8c01717 	ldw	r3,92(sp)
  8045f0:	1029883a 	mov	r20,r2
  8045f4:	b8800c04 	addi	r2,r23,48
  8045f8:	18800005 	stb	r2,0(r3)
  8045fc:	d9801117 	ldw	r6,68(sp)
  804600:	d9c01217 	ldw	r7,72(sp)
  804604:	18c00044 	addi	r3,r3,1
  804608:	a009883a 	mov	r4,r20
  80460c:	a80b883a 	mov	r5,r21
  804610:	d8c01715 	stw	r3,92(sp)
  804614:	0808ca40 	call	808ca4 <__ltdf2>
  804618:	103d9716 	blt	r2,zero,803c78 <_dtoa_r+0x680>
  80461c:	0005883a 	mov	r2,zero
  804620:	00cffc34 	movhi	r3,16368
  804624:	18c00004 	addi	r3,r3,0
  804628:	180b883a 	mov	r5,r3
  80462c:	1009883a 	mov	r4,r2
  804630:	a00d883a 	mov	r6,r20
  804634:	a80f883a 	mov	r7,r21
  804638:	08083ac0 	call	8083ac <__subdf3>
  80463c:	d9801117 	ldw	r6,68(sp)
  804640:	d9c01217 	ldw	r7,72(sp)
  804644:	180b883a 	mov	r5,r3
  804648:	1009883a 	mov	r4,r2
  80464c:	0808ca40 	call	808ca4 <__ltdf2>
  804650:	103e0216 	blt	r2,zero,803e5c <_dtoa_r+0x864>
  804654:	d9000617 	ldw	r4,24(sp)
  804658:	b5800044 	addi	r22,r22,1
  80465c:	b13fc616 	blt	r22,r4,804578 <_dtoa_r+0xf80>
  804660:	003da106 	br	803ce8 <_dtoa_r+0x6f0>
  804664:	d8c00617 	ldw	r3,24(sp)
  804668:	d9000517 	ldw	r4,20(sp)
  80466c:	1c7fffc4 	addi	r17,r3,-1
  804670:	2461c83a 	sub	r16,r4,r17
  804674:	2440070e 	bge	r4,r17,804694 <_dtoa_r+0x109c>
  804678:	d8800e17 	ldw	r2,56(sp)
  80467c:	8923c83a 	sub	r17,r17,r4
  804680:	2449883a 	add	r4,r4,r17
  804684:	1445883a 	add	r2,r2,r17
  804688:	d9000515 	stw	r4,20(sp)
  80468c:	d8800e15 	stw	r2,56(sp)
  804690:	0021883a 	mov	r16,zero
  804694:	dd800617 	ldw	r22,24(sp)
  804698:	b03e560e 	bge	r22,zero,803ff4 <_dtoa_r+0x9fc>
  80469c:	d8c00417 	ldw	r3,16(sp)
  8046a0:	1da9c83a 	sub	r20,r3,r22
  8046a4:	002d883a 	mov	r22,zero
  8046a8:	003e5206 	br	803ff4 <_dtoa_r+0x9fc>
  8046ac:	d9401417 	ldw	r5,80(sp)
  8046b0:	d9800517 	ldw	r6,20(sp)
  8046b4:	e009883a 	mov	r4,fp
  8046b8:	0805ff00 	call	805ff0 <_pow5mult>
  8046bc:	d8801415 	stw	r2,80(sp)
  8046c0:	003e7806 	br	8040a4 <_dtoa_r+0xaac>
  8046c4:	0005883a 	mov	r2,zero
  8046c8:	00d07c34 	movhi	r3,16880
  8046cc:	18c00004 	addi	r3,r3,0
  8046d0:	480b883a 	mov	r5,r9
  8046d4:	4009883a 	mov	r4,r8
  8046d8:	180f883a 	mov	r7,r3
  8046dc:	100d883a 	mov	r6,r2
  8046e0:	08083400 	call	808340 <__adddf3>
  8046e4:	1011883a 	mov	r8,r2
  8046e8:	1813883a 	mov	r9,r3
  8046ec:	003c3906 	br	8037d4 <_dtoa_r+0x1dc>
  8046f0:	d8c00317 	ldw	r3,12(sp)
  8046f4:	00800084 	movi	r2,2
  8046f8:	10feab0e 	bge	r2,r3,8041a8 <_dtoa_r+0xbb0>
  8046fc:	203e0416 	blt	r4,zero,803f10 <_dtoa_r+0x918>
  804700:	b80b883a 	mov	r5,r23
  804704:	e009883a 	mov	r4,fp
  804708:	01800144 	movi	r6,5
  80470c:	000f883a 	mov	r7,zero
  804710:	0805a280 	call	805a28 <_multadd>
  804714:	d9001417 	ldw	r4,80(sp)
  804718:	100b883a 	mov	r5,r2
  80471c:	102f883a 	mov	r23,r2
  804720:	08062540 	call	806254 <__mcmp>
  804724:	00bd3d16 	blt	zero,r2,803c1c <_dtoa_r+0x624>
  804728:	003df906 	br	803f10 <_dtoa_r+0x918>
  80472c:	d8800917 	ldw	r2,36(sp)
  804730:	d8c01817 	ldw	r3,96(sp)
  804734:	10800044 	addi	r2,r2,1
  804738:	d8800915 	stw	r2,36(sp)
  80473c:	00800c04 	movi	r2,48
  804740:	18800005 	stb	r2,0(r3)
  804744:	d8c01717 	ldw	r3,92(sp)
  804748:	18800003 	ldbu	r2,0(r3)
  80474c:	19000044 	addi	r4,r3,1
  804750:	d9001715 	stw	r4,92(sp)
  804754:	10800044 	addi	r2,r2,1
  804758:	18800005 	stb	r2,0(r3)
  80475c:	003d4606 	br	803c78 <_dtoa_r+0x680>
  804760:	d9401417 	ldw	r5,80(sp)
  804764:	880d883a 	mov	r6,r17
  804768:	003fd206 	br	8046b4 <_dtoa_r+0x10bc>
  80476c:	11400117 	ldw	r5,4(r2)
  804770:	e009883a 	mov	r4,fp
  804774:	08059540 	call	805954 <_Balloc>
  804778:	d8c01517 	ldw	r3,84(sp)
  80477c:	11000304 	addi	r4,r2,12
  804780:	d8801615 	stw	r2,88(sp)
  804784:	19800417 	ldw	r6,16(r3)
  804788:	19400304 	addi	r5,r3,12
  80478c:	300c90ba 	slli	r6,r6,2
  804790:	31800204 	addi	r6,r6,8
  804794:	08056f40 	call	8056f4 <memcpy>
  804798:	d9401617 	ldw	r5,88(sp)
  80479c:	e009883a 	mov	r4,fp
  8047a0:	01800044 	movi	r6,1
  8047a4:	080611c0 	call	80611c <_lshift>
  8047a8:	d8801615 	stw	r2,88(sp)
  8047ac:	003e8906 	br	8041d4 <_dtoa_r+0xbdc>
  8047b0:	d8c00617 	ldw	r3,24(sp)
  8047b4:	01002074 	movhi	r4,129
  8047b8:	21012304 	addi	r4,r4,1164
  8047bc:	d9801117 	ldw	r6,68(sp)
  8047c0:	180a90fa 	slli	r5,r3,3
  8047c4:	a00f883a 	mov	r7,r20
  8047c8:	05800044 	movi	r22,1
  8047cc:	290b883a 	add	r5,r5,r4
  8047d0:	28800017 	ldw	r2,0(r5)
  8047d4:	28c00117 	ldw	r3,4(r5)
  8047d8:	1009883a 	mov	r4,r2
  8047dc:	180b883a 	mov	r5,r3
  8047e0:	08084240 	call	808424 <__muldf3>
  8047e4:	d8801115 	stw	r2,68(sp)
  8047e8:	d8c01215 	stw	r3,72(sp)
  8047ec:	00000b06 	br	80481c <_dtoa_r+0x1224>
  8047f0:	0005883a 	mov	r2,zero
  8047f4:	00d00934 	movhi	r3,16420
  8047f8:	18c00004 	addi	r3,r3,0
  8047fc:	800d883a 	mov	r6,r16
  804800:	180b883a 	mov	r5,r3
  804804:	880f883a 	mov	r7,r17
  804808:	1009883a 	mov	r4,r2
  80480c:	08084240 	call	808424 <__muldf3>
  804810:	1025883a 	mov	r18,r2
  804814:	b5800044 	addi	r22,r22,1
  804818:	1827883a 	mov	r19,r3
  80481c:	980b883a 	mov	r5,r19
  804820:	9009883a 	mov	r4,r18
  804824:	0808e000 	call	808e00 <__fixdfsi>
  804828:	1009883a 	mov	r4,r2
  80482c:	102f883a 	mov	r23,r2
  804830:	0808d300 	call	808d30 <__floatsidf>
  804834:	980b883a 	mov	r5,r19
  804838:	9009883a 	mov	r4,r18
  80483c:	180f883a 	mov	r7,r3
  804840:	100d883a 	mov	r6,r2
  804844:	08083ac0 	call	8083ac <__subdf3>
  804848:	1823883a 	mov	r17,r3
  80484c:	d8c01717 	ldw	r3,92(sp)
  804850:	1021883a 	mov	r16,r2
  804854:	b8800c04 	addi	r2,r23,48
  804858:	18800005 	stb	r2,0(r3)
  80485c:	d9000617 	ldw	r4,24(sp)
  804860:	18c00044 	addi	r3,r3,1
  804864:	d8c01715 	stw	r3,92(sp)
  804868:	b13fe11e 	bne	r22,r4,8047f0 <_dtoa_r+0x11f8>
  80486c:	d9801117 	ldw	r6,68(sp)
  804870:	d9c01217 	ldw	r7,72(sp)
  804874:	0029883a 	mov	r20,zero
  804878:	054ff834 	movhi	r21,16352
  80487c:	ad400004 	addi	r21,r21,0
  804880:	a009883a 	mov	r4,r20
  804884:	a80b883a 	mov	r5,r21
  804888:	08083400 	call	808340 <__adddf3>
  80488c:	180b883a 	mov	r5,r3
  804890:	1009883a 	mov	r4,r2
  804894:	800d883a 	mov	r6,r16
  804898:	880f883a 	mov	r7,r17
  80489c:	0808ca40 	call	808ca4 <__ltdf2>
  8048a0:	103d6e16 	blt	r2,zero,803e5c <_dtoa_r+0x864>
  8048a4:	d9c01217 	ldw	r7,72(sp)
  8048a8:	d9801117 	ldw	r6,68(sp)
  8048ac:	0009883a 	mov	r4,zero
  8048b0:	a80b883a 	mov	r5,r21
  8048b4:	08083ac0 	call	8083ac <__subdf3>
  8048b8:	180b883a 	mov	r5,r3
  8048bc:	800d883a 	mov	r6,r16
  8048c0:	880f883a 	mov	r7,r17
  8048c4:	1009883a 	mov	r4,r2
  8048c8:	0808b8c0 	call	808b8c <__gtdf2>
  8048cc:	00bd060e 	bge	zero,r2,803ce8 <_dtoa_r+0x6f0>
  8048d0:	00c00c04 	movi	r3,48
  8048d4:	d8801717 	ldw	r2,92(sp)
  8048d8:	10bfffc4 	addi	r2,r2,-1
  8048dc:	d8801715 	stw	r2,92(sp)
  8048e0:	10800007 	ldb	r2,0(r2)
  8048e4:	10fffb26 	beq	r2,r3,8048d4 <_dtoa_r+0x12dc>
  8048e8:	d8c01717 	ldw	r3,92(sp)
  8048ec:	18c00044 	addi	r3,r3,1
  8048f0:	d8c01715 	stw	r3,92(sp)
  8048f4:	003ce006 	br	803c78 <_dtoa_r+0x680>
  8048f8:	9540151e 	bne	r18,r21,804950 <_dtoa_r+0x1358>
  8048fc:	d8801717 	ldw	r2,92(sp)
  804900:	15400005 	stb	r21,0(r2)
  804904:	10800044 	addi	r2,r2,1
  804908:	d8801715 	stw	r2,92(sp)
  80490c:	003e8906 	br	804334 <_dtoa_r+0xd3c>
  804910:	1000021e 	bne	r2,zero,80491c <_dtoa_r+0x1324>
  804914:	9080004c 	andi	r2,r18,1
  804918:	103e861e 	bne	r2,zero,804334 <_dtoa_r+0xd3c>
  80491c:	00c00c04 	movi	r3,48
  804920:	d8801717 	ldw	r2,92(sp)
  804924:	10bfffc4 	addi	r2,r2,-1
  804928:	d8801715 	stw	r2,92(sp)
  80492c:	10800007 	ldb	r2,0(r2)
  804930:	10fffb26 	beq	r2,r3,804920 <_dtoa_r+0x1328>
  804934:	d8c01717 	ldw	r3,92(sp)
  804938:	18c00044 	addi	r3,r3,1
  80493c:	d8c01715 	stw	r3,92(sp)
  804940:	003cbf06 	br	803c40 <_dtoa_r+0x648>
  804944:	00800044 	movi	r2,1
  804948:	d8802315 	stw	r2,140(sp)
  80494c:	003d5606 	br	803ea8 <_dtoa_r+0x8b0>
  804950:	d8c01717 	ldw	r3,92(sp)
  804954:	90800044 	addi	r2,r18,1
  804958:	18800005 	stb	r2,0(r3)
  80495c:	003ff606 	br	804938 <_dtoa_r+0x1340>
  804960:	d9000617 	ldw	r4,24(sp)
  804964:	013c860e 	bge	zero,r4,803b80 <_dtoa_r+0x588>
  804968:	d8800817 	ldw	r2,32(sp)
  80496c:	00bcde0e 	bge	zero,r2,803ce8 <_dtoa_r+0x6f0>
  804970:	0005883a 	mov	r2,zero
  804974:	00d00934 	movhi	r3,16420
  804978:	18c00004 	addi	r3,r3,0
  80497c:	980f883a 	mov	r7,r19
  804980:	180b883a 	mov	r5,r3
  804984:	900d883a 	mov	r6,r18
  804988:	1009883a 	mov	r4,r2
  80498c:	08084240 	call	808424 <__muldf3>
  804990:	180b883a 	mov	r5,r3
  804994:	d8c00917 	ldw	r3,36(sp)
  804998:	d9000817 	ldw	r4,32(sp)
  80499c:	1025883a 	mov	r18,r2
  8049a0:	18ffffc4 	addi	r3,r3,-1
  8049a4:	2827883a 	mov	r19,r5
  8049a8:	b5800044 	addi	r22,r22,1
  8049ac:	d8c00915 	stw	r3,36(sp)
  8049b0:	d9000615 	stw	r4,24(sp)
  8049b4:	003c7206 	br	803b80 <_dtoa_r+0x588>
  8049b8:	103e781e 	bne	r2,zero,80439c <_dtoa_r+0xda4>
  8049bc:	9080004c 	andi	r2,r18,1
  8049c0:	103e7626 	beq	r2,zero,80439c <_dtoa_r+0xda4>
  8049c4:	003e7206 	br	804390 <_dtoa_r+0xd98>
  8049c8:	d9401617 	ldw	r5,88(sp)
  8049cc:	e009883a 	mov	r4,fp
  8049d0:	01800284 	movi	r6,10
  8049d4:	000f883a 	mov	r7,zero
  8049d8:	0805a280 	call	805a28 <_multadd>
  8049dc:	d8801615 	stw	r2,88(sp)
  8049e0:	003ec006 	br	8044e4 <_dtoa_r+0xeec>

008049e4 <fflush>:
  8049e4:	defffc04 	addi	sp,sp,-16
  8049e8:	dc400115 	stw	r17,4(sp)
  8049ec:	dfc00315 	stw	ra,12(sp)
  8049f0:	dc000215 	stw	r16,8(sp)
  8049f4:	dc800015 	stw	r18,0(sp)
  8049f8:	2023883a 	mov	r17,r4
  8049fc:	20002826 	beq	r4,zero,804aa0 <fflush+0xbc>
  804a00:	d1200a17 	ldw	r4,-32728(gp)
  804a04:	20800e17 	ldw	r2,56(r4)
  804a08:	10002326 	beq	r2,zero,804a98 <fflush+0xb4>
  804a0c:	88c0030f 	ldh	r3,12(r17)
  804a10:	1880020c 	andi	r2,r3,8
  804a14:	10001826 	beq	r2,zero,804a78 <fflush+0x94>
  804a18:	8c800417 	ldw	r18,16(r17)
  804a1c:	90001626 	beq	r18,zero,804a78 <fflush+0x94>
  804a20:	88800017 	ldw	r2,0(r17)
  804a24:	18c000cc 	andi	r3,r3,3
  804a28:	8c800015 	stw	r18,0(r17)
  804a2c:	14a1c83a 	sub	r16,r2,r18
  804a30:	0005883a 	mov	r2,zero
  804a34:	1800011e 	bne	r3,zero,804a3c <fflush+0x58>
  804a38:	88800517 	ldw	r2,20(r17)
  804a3c:	88800215 	stw	r2,8(r17)
  804a40:	04000d0e 	bge	zero,r16,804a78 <fflush+0x94>
  804a44:	88c00917 	ldw	r3,36(r17)
  804a48:	89000717 	ldw	r4,28(r17)
  804a4c:	900b883a 	mov	r5,r18
  804a50:	800d883a 	mov	r6,r16
  804a54:	183ee83a 	callr	r3
  804a58:	80a1c83a 	sub	r16,r16,r2
  804a5c:	90a5883a 	add	r18,r18,r2
  804a60:	00bff716 	blt	zero,r2,804a40 <fflush+0x5c>
  804a64:	8880030b 	ldhu	r2,12(r17)
  804a68:	00ffffc4 	movi	r3,-1
  804a6c:	10801014 	ori	r2,r2,64
  804a70:	8880030d 	sth	r2,12(r17)
  804a74:	00000106 	br	804a7c <fflush+0x98>
  804a78:	0007883a 	mov	r3,zero
  804a7c:	1805883a 	mov	r2,r3
  804a80:	dfc00317 	ldw	ra,12(sp)
  804a84:	dc000217 	ldw	r16,8(sp)
  804a88:	dc400117 	ldw	r17,4(sp)
  804a8c:	dc800017 	ldw	r18,0(sp)
  804a90:	dec00404 	addi	sp,sp,16
  804a94:	f800283a 	ret
  804a98:	0804b480 	call	804b48 <__sinit>
  804a9c:	003fdb06 	br	804a0c <fflush+0x28>
  804aa0:	d1200a17 	ldw	r4,-32728(gp)
  804aa4:	01402034 	movhi	r5,128
  804aa8:	29527904 	addi	r5,r5,18916
  804aac:	02002034 	movhi	r8,128
  804ab0:	4214d104 	addi	r8,r8,21316
  804ab4:	dfc00317 	ldw	ra,12(sp)
  804ab8:	dc000217 	ldw	r16,8(sp)
  804abc:	dc400117 	ldw	r17,4(sp)
  804ac0:	dc800017 	ldw	r18,0(sp)
  804ac4:	dec00404 	addi	sp,sp,16
  804ac8:	4000683a 	jmp	r8

00804acc <std>:
  804acc:	00802034 	movhi	r2,128
  804ad0:	109bfc04 	addi	r2,r2,28656
  804ad4:	20800b15 	stw	r2,44(r4)
  804ad8:	00802034 	movhi	r2,128
  804adc:	109bbe04 	addi	r2,r2,28408
  804ae0:	20800915 	stw	r2,36(r4)
  804ae4:	00c02034 	movhi	r3,128
  804ae8:	18dba204 	addi	r3,r3,28296
  804aec:	00802034 	movhi	r2,128
  804af0:	109bde04 	addi	r2,r2,28536
  804af4:	2140030d 	sth	r5,12(r4)
  804af8:	2180038d 	sth	r6,14(r4)
  804afc:	20c00815 	stw	r3,32(r4)
  804b00:	20800a15 	stw	r2,40(r4)
  804b04:	20000015 	stw	zero,0(r4)
  804b08:	20000115 	stw	zero,4(r4)
  804b0c:	20000215 	stw	zero,8(r4)
  804b10:	20000415 	stw	zero,16(r4)
  804b14:	20000515 	stw	zero,20(r4)
  804b18:	20000615 	stw	zero,24(r4)
  804b1c:	21000715 	stw	r4,28(r4)
  804b20:	f800283a 	ret

00804b24 <_cleanup_r>:
  804b24:	01402034 	movhi	r5,128
  804b28:	29527904 	addi	r5,r5,18916
  804b2c:	02002034 	movhi	r8,128
  804b30:	4214d104 	addi	r8,r8,21316
  804b34:	4000683a 	jmp	r8

00804b38 <_cleanup>:
  804b38:	d1200a17 	ldw	r4,-32728(gp)
  804b3c:	02002034 	movhi	r8,128
  804b40:	4212c904 	addi	r8,r8,19236
  804b44:	4000683a 	jmp	r8

00804b48 <__sinit>:
  804b48:	defffc04 	addi	sp,sp,-16
  804b4c:	dfc00315 	stw	ra,12(sp)
  804b50:	dc400215 	stw	r17,8(sp)
  804b54:	dcc00115 	stw	r19,4(sp)
  804b58:	dd400015 	stw	r21,0(sp)
  804b5c:	2023883a 	mov	r17,r4
  804b60:	21000117 	ldw	r4,4(r4)
  804b64:	00802034 	movhi	r2,128
  804b68:	1092c904 	addi	r2,r2,19236
  804b6c:	00c000c4 	movi	r3,3
  804b70:	05400044 	movi	r21,1
  804b74:	89409a04 	addi	r5,r17,616
  804b78:	88800f15 	stw	r2,60(r17)
  804b7c:	88c09815 	stw	r3,608(r17)
  804b80:	89409915 	stw	r5,612(r17)
  804b84:	880f883a 	mov	r7,r17
  804b88:	8d400e15 	stw	r21,56(r17)
  804b8c:	88009715 	stw	zero,604(r17)
  804b90:	01400104 	movi	r5,4
  804b94:	000d883a 	mov	r6,zero
  804b98:	0804acc0 	call	804acc <std>
  804b9c:	89000217 	ldw	r4,8(r17)
  804ba0:	04c00284 	movi	r19,10
  804ba4:	a80d883a 	mov	r6,r21
  804ba8:	980b883a 	mov	r5,r19
  804bac:	880f883a 	mov	r7,r17
  804bb0:	0804acc0 	call	804acc <std>
  804bb4:	89000317 	ldw	r4,12(r17)
  804bb8:	980b883a 	mov	r5,r19
  804bbc:	880f883a 	mov	r7,r17
  804bc0:	01800084 	movi	r6,2
  804bc4:	02002034 	movhi	r8,128
  804bc8:	4212b304 	addi	r8,r8,19148
  804bcc:	dfc00317 	ldw	ra,12(sp)
  804bd0:	dc400217 	ldw	r17,8(sp)
  804bd4:	dcc00117 	ldw	r19,4(sp)
  804bd8:	dd400017 	ldw	r21,0(sp)
  804bdc:	dec00404 	addi	sp,sp,16
  804be0:	4000683a 	jmp	r8

00804be4 <_malloc_trim_r>:
  804be4:	defffb04 	addi	sp,sp,-20
  804be8:	dcc00015 	stw	r19,0(sp)
  804bec:	04c02074 	movhi	r19,129
  804bf0:	9cc1c704 	addi	r19,r19,1820
  804bf4:	dc000315 	stw	r16,12(sp)
  804bf8:	dc400215 	stw	r17,8(sp)
  804bfc:	dc800115 	stw	r18,4(sp)
  804c00:	2823883a 	mov	r17,r5
  804c04:	2021883a 	mov	r16,r4
  804c08:	dfc00415 	stw	ra,16(sp)
  804c0c:	0809b440 	call	809b44 <__malloc_lock>
  804c10:	98800217 	ldw	r2,8(r19)
  804c14:	8009883a 	mov	r4,r16
  804c18:	000b883a 	mov	r5,zero
  804c1c:	10c00117 	ldw	r3,4(r2)
  804c20:	00bfff04 	movi	r2,-4
  804c24:	18a4703a 	and	r18,r3,r2
  804c28:	9463c83a 	sub	r17,r18,r17
  804c2c:	8c43fbc4 	addi	r17,r17,4079
  804c30:	8822d33a 	srli	r17,r17,12
  804c34:	00840004 	movi	r2,4096
  804c38:	8c7fffc4 	addi	r17,r17,-1
  804c3c:	8822933a 	slli	r17,r17,12
  804c40:	88800616 	blt	r17,r2,804c5c <_malloc_trim_r+0x78>
  804c44:	0800ee00 	call	800ee0 <_sbrk_r>
  804c48:	98c00217 	ldw	r3,8(r19)
  804c4c:	8009883a 	mov	r4,r16
  804c50:	044bc83a 	sub	r5,zero,r17
  804c54:	1c87883a 	add	r3,r3,r18
  804c58:	18800926 	beq	r3,r2,804c80 <_malloc_trim_r+0x9c>
  804c5c:	0809b600 	call	809b60 <__malloc_unlock>
  804c60:	0005883a 	mov	r2,zero
  804c64:	dfc00417 	ldw	ra,16(sp)
  804c68:	dc000317 	ldw	r16,12(sp)
  804c6c:	dc400217 	ldw	r17,8(sp)
  804c70:	dc800117 	ldw	r18,4(sp)
  804c74:	dcc00017 	ldw	r19,0(sp)
  804c78:	dec00504 	addi	sp,sp,20
  804c7c:	f800283a 	ret
  804c80:	8009883a 	mov	r4,r16
  804c84:	0800ee00 	call	800ee0 <_sbrk_r>
  804c88:	944dc83a 	sub	r6,r18,r17
  804c8c:	00ffffc4 	movi	r3,-1
  804c90:	8009883a 	mov	r4,r16
  804c94:	000b883a 	mov	r5,zero
  804c98:	01c02074 	movhi	r7,129
  804c9c:	39c1bd04 	addi	r7,r7,1780
  804ca0:	31800054 	ori	r6,r6,1
  804ca4:	10c00926 	beq	r2,r3,804ccc <_malloc_trim_r+0xe8>
  804ca8:	38800017 	ldw	r2,0(r7)
  804cac:	98c00217 	ldw	r3,8(r19)
  804cb0:	8009883a 	mov	r4,r16
  804cb4:	1445c83a 	sub	r2,r2,r17
  804cb8:	38800015 	stw	r2,0(r7)
  804cbc:	19800115 	stw	r6,4(r3)
  804cc0:	0809b600 	call	809b60 <__malloc_unlock>
  804cc4:	00800044 	movi	r2,1
  804cc8:	003fe606 	br	804c64 <_malloc_trim_r+0x80>
  804ccc:	0800ee00 	call	800ee0 <_sbrk_r>
  804cd0:	99400217 	ldw	r5,8(r19)
  804cd4:	100d883a 	mov	r6,r2
  804cd8:	8009883a 	mov	r4,r16
  804cdc:	1165c83a 	sub	r18,r2,r5
  804ce0:	008003c4 	movi	r2,15
  804ce4:	90c00054 	ori	r3,r18,1
  804ce8:	14bfdc0e 	bge	r2,r18,804c5c <_malloc_trim_r+0x78>
  804cec:	28c00115 	stw	r3,4(r5)
  804cf0:	d0e00717 	ldw	r3,-32740(gp)
  804cf4:	00802074 	movhi	r2,129
  804cf8:	1081bd04 	addi	r2,r2,1780
  804cfc:	30c7c83a 	sub	r3,r6,r3
  804d00:	10c00015 	stw	r3,0(r2)
  804d04:	003fd506 	br	804c5c <_malloc_trim_r+0x78>

00804d08 <_free_r>:
  804d08:	defffd04 	addi	sp,sp,-12
  804d0c:	dc000115 	stw	r16,4(sp)
  804d10:	dc400015 	stw	r17,0(sp)
  804d14:	dfc00215 	stw	ra,8(sp)
  804d18:	2821883a 	mov	r16,r5
  804d1c:	2023883a 	mov	r17,r4
  804d20:	28003226 	beq	r5,zero,804dec <_free_r+0xe4>
  804d24:	0809b440 	call	809b44 <__malloc_lock>
  804d28:	82bffe04 	addi	r10,r16,-8
  804d2c:	51400117 	ldw	r5,4(r10)
  804d30:	00bfff84 	movi	r2,-2
  804d34:	03002074 	movhi	r12,129
  804d38:	6301c704 	addi	r12,r12,1820
  804d3c:	2892703a 	and	r9,r5,r2
  804d40:	524d883a 	add	r6,r10,r9
  804d44:	30c00117 	ldw	r3,4(r6)
  804d48:	61000217 	ldw	r4,8(r12)
  804d4c:	00bfff04 	movi	r2,-4
  804d50:	1896703a 	and	r11,r3,r2
  804d54:	21804e26 	beq	r4,r6,804e90 <_free_r+0x188>
  804d58:	2880004c 	andi	r2,r5,1
  804d5c:	32c00115 	stw	r11,4(r6)
  804d60:	000b883a 	mov	r5,zero
  804d64:	1000091e 	bne	r2,zero,804d8c <_free_r+0x84>
  804d68:	50c00017 	ldw	r3,0(r10)
  804d6c:	60800204 	addi	r2,r12,8
  804d70:	50d5c83a 	sub	r10,r10,r3
  804d74:	51000217 	ldw	r4,8(r10)
  804d78:	48d3883a 	add	r9,r9,r3
  804d7c:	20807426 	beq	r4,r2,804f50 <_free_r+0x248>
  804d80:	52000317 	ldw	r8,12(r10)
  804d84:	41000215 	stw	r4,8(r8)
  804d88:	22000315 	stw	r8,12(r4)
  804d8c:	32c7883a 	add	r3,r6,r11
  804d90:	18800117 	ldw	r2,4(r3)
  804d94:	2808c03a 	cmpne	r4,r5,zero
  804d98:	1080004c 	andi	r2,r2,1
  804d9c:	1000061e 	bne	r2,zero,804db8 <_free_r+0xb0>
  804da0:	4ad3883a 	add	r9,r9,r11
  804da4:	20001626 	beq	r4,zero,804e00 <_free_r+0xf8>
  804da8:	30c00217 	ldw	r3,8(r6)
  804dac:	32000317 	ldw	r8,12(r6)
  804db0:	40c00215 	stw	r3,8(r8)
  804db4:	1a000315 	stw	r8,12(r3)
  804db8:	48800054 	ori	r2,r9,1
  804dbc:	5247883a 	add	r3,r10,r9
  804dc0:	50800115 	stw	r2,4(r10)
  804dc4:	1a400015 	stw	r9,0(r3)
  804dc8:	20001726 	beq	r4,zero,804e28 <_free_r+0x120>
  804dcc:	8809883a 	mov	r4,r17
  804dd0:	02002074 	movhi	r8,129
  804dd4:	4226d804 	addi	r8,r8,-25760
  804dd8:	dfc00217 	ldw	ra,8(sp)
  804ddc:	dc000117 	ldw	r16,4(sp)
  804de0:	dc400017 	ldw	r17,0(sp)
  804de4:	dec00304 	addi	sp,sp,12
  804de8:	4000683a 	jmp	r8
  804dec:	dfc00217 	ldw	ra,8(sp)
  804df0:	dc000117 	ldw	r16,4(sp)
  804df4:	dc400017 	ldw	r17,0(sp)
  804df8:	dec00304 	addi	sp,sp,12
  804dfc:	f800283a 	ret
  804e00:	30c00217 	ldw	r3,8(r6)
  804e04:	00802074 	movhi	r2,129
  804e08:	1081c904 	addi	r2,r2,1828
  804e0c:	18bfe71e 	bne	r3,r2,804dac <_free_r+0xa4>
  804e10:	1a800315 	stw	r10,12(r3)
  804e14:	1a800215 	stw	r10,8(r3)
  804e18:	01000044 	movi	r4,1
  804e1c:	50c00215 	stw	r3,8(r10)
  804e20:	50c00315 	stw	r3,12(r10)
  804e24:	003fe406 	br	804db8 <_free_r+0xb0>
  804e28:	00807fc4 	movi	r2,511
  804e2c:	12402b36 	bltu	r2,r9,804edc <_free_r+0x1d4>
  804e30:	4806d0fa 	srli	r3,r9,3
  804e34:	01802074 	movhi	r6,129
  804e38:	3181c704 	addi	r6,r6,1820
  804e3c:	00800044 	movi	r2,1
  804e40:	180890fa 	slli	r4,r3,3
  804e44:	1807d0ba 	srai	r3,r3,2
  804e48:	31400117 	ldw	r5,4(r6)
  804e4c:	2191883a 	add	r8,r4,r6
  804e50:	41c00217 	ldw	r7,8(r8)
  804e54:	10c4983a 	sll	r2,r2,r3
  804e58:	52000315 	stw	r8,12(r10)
  804e5c:	51c00215 	stw	r7,8(r10)
  804e60:	288ab03a 	or	r5,r5,r2
  804e64:	3a800315 	stw	r10,12(r7)
  804e68:	31400115 	stw	r5,4(r6)
  804e6c:	42800215 	stw	r10,8(r8)
  804e70:	8809883a 	mov	r4,r17
  804e74:	02002074 	movhi	r8,129
  804e78:	4226d804 	addi	r8,r8,-25760
  804e7c:	dfc00217 	ldw	ra,8(sp)
  804e80:	dc000117 	ldw	r16,4(sp)
  804e84:	dc400017 	ldw	r17,0(sp)
  804e88:	dec00304 	addi	sp,sp,12
  804e8c:	4000683a 	jmp	r8
  804e90:	2880004c 	andi	r2,r5,1
  804e94:	4ad3883a 	add	r9,r9,r11
  804e98:	1000071e 	bne	r2,zero,804eb8 <_free_r+0x1b0>
  804e9c:	50c00017 	ldw	r3,0(r10)
  804ea0:	50d5c83a 	sub	r10,r10,r3
  804ea4:	52000317 	ldw	r8,12(r10)
  804ea8:	51c00217 	ldw	r7,8(r10)
  804eac:	48d3883a 	add	r9,r9,r3
  804eb0:	41c00215 	stw	r7,8(r8)
  804eb4:	3a000315 	stw	r8,12(r7)
  804eb8:	d0a00917 	ldw	r2,-32732(gp)
  804ebc:	48c00054 	ori	r3,r9,1
  804ec0:	62800215 	stw	r10,8(r12)
  804ec4:	50c00115 	stw	r3,4(r10)
  804ec8:	48bfc036 	bltu	r9,r2,804dcc <_free_r+0xc4>
  804ecc:	d1600817 	ldw	r5,-32736(gp)
  804ed0:	8809883a 	mov	r4,r17
  804ed4:	0804be40 	call	804be4 <_malloc_trim_r>
  804ed8:	003fbc06 	br	804dcc <_free_r+0xc4>
  804edc:	4808d27a 	srli	r4,r9,9
  804ee0:	4806d0fa 	srli	r3,r9,3
  804ee4:	2000151e 	bne	r4,zero,804f3c <_free_r+0x234>
  804ee8:	180490fa 	slli	r2,r3,3
  804eec:	01402074 	movhi	r5,129
  804ef0:	2941c704 	addi	r5,r5,1820
  804ef4:	1311883a 	add	r8,r2,r12
  804ef8:	41c00217 	ldw	r7,8(r8)
  804efc:	3a001e26 	beq	r7,r8,804f78 <_free_r+0x270>
  804f00:	38800117 	ldw	r2,4(r7)
  804f04:	00ffff04 	movi	r3,-4
  804f08:	10c4703a 	and	r2,r2,r3
  804f0c:	4880052e 	bgeu	r9,r2,804f24 <_free_r+0x21c>
  804f10:	39c00217 	ldw	r7,8(r7)
  804f14:	3a000326 	beq	r7,r8,804f24 <_free_r+0x21c>
  804f18:	38800117 	ldw	r2,4(r7)
  804f1c:	10c4703a 	and	r2,r2,r3
  804f20:	48bffb36 	bltu	r9,r2,804f10 <_free_r+0x208>
  804f24:	3a000317 	ldw	r8,12(r7)
  804f28:	52000315 	stw	r8,12(r10)
  804f2c:	51c00215 	stw	r7,8(r10)
  804f30:	3a800315 	stw	r10,12(r7)
  804f34:	42800215 	stw	r10,8(r8)
  804f38:	003fcd06 	br	804e70 <_free_r+0x168>
  804f3c:	00800104 	movi	r2,4
  804f40:	11000536 	bltu	r2,r4,804f58 <_free_r+0x250>
  804f44:	4804d1ba 	srli	r2,r9,6
  804f48:	10c00e04 	addi	r3,r2,56
  804f4c:	003fe606 	br	804ee8 <_free_r+0x1e0>
  804f50:	01400044 	movi	r5,1
  804f54:	003f8d06 	br	804d8c <_free_r+0x84>
  804f58:	00800504 	movi	r2,20
  804f5c:	20c016c4 	addi	r3,r4,91
  804f60:	113fe12e 	bgeu	r2,r4,804ee8 <_free_r+0x1e0>
  804f64:	00801504 	movi	r2,84
  804f68:	11000a36 	bltu	r2,r4,804f94 <_free_r+0x28c>
  804f6c:	4804d33a 	srli	r2,r9,12
  804f70:	10c01b84 	addi	r3,r2,110
  804f74:	003fdc06 	br	804ee8 <_free_r+0x1e0>
  804f78:	1805d0ba 	srai	r2,r3,2
  804f7c:	00c00044 	movi	r3,1
  804f80:	29000117 	ldw	r4,4(r5)
  804f84:	1886983a 	sll	r3,r3,r2
  804f88:	20c8b03a 	or	r4,r4,r3
  804f8c:	29000115 	stw	r4,4(r5)
  804f90:	003fe506 	br	804f28 <_free_r+0x220>
  804f94:	00805504 	movi	r2,340
  804f98:	11000336 	bltu	r2,r4,804fa8 <_free_r+0x2a0>
  804f9c:	4804d3fa 	srli	r2,r9,15
  804fa0:	10c01dc4 	addi	r3,r2,119
  804fa4:	003fd006 	br	804ee8 <_free_r+0x1e0>
  804fa8:	00815504 	movi	r2,1364
  804fac:	00c01f84 	movi	r3,126
  804fb0:	113fcd36 	bltu	r2,r4,804ee8 <_free_r+0x1e0>
  804fb4:	4804d4ba 	srli	r2,r9,18
  804fb8:	10c01f04 	addi	r3,r2,124
  804fbc:	003fca06 	br	804ee8 <_free_r+0x1e0>

00804fc0 <__sfvwrite>:
  804fc0:	defff704 	addi	sp,sp,-36
  804fc4:	dd000315 	stw	r20,12(sp)
  804fc8:	dd400215 	stw	r21,8(sp)
  804fcc:	dfc00815 	stw	ra,32(sp)
  804fd0:	dc000715 	stw	r16,28(sp)
  804fd4:	dc400615 	stw	r17,24(sp)
  804fd8:	dc800515 	stw	r18,20(sp)
  804fdc:	dcc00415 	stw	r19,16(sp)
  804fe0:	dd800115 	stw	r22,4(sp)
  804fe4:	ddc00015 	stw	r23,0(sp)
  804fe8:	2c000217 	ldw	r16,8(r5)
  804fec:	282b883a 	mov	r21,r5
  804ff0:	2029883a 	mov	r20,r4
  804ff4:	0007883a 	mov	r3,zero
  804ff8:	80002426 	beq	r16,zero,80508c <__sfvwrite+0xcc>
  804ffc:	20c0030b 	ldhu	r3,12(r4)
  805000:	1880020c 	andi	r2,r3,8
  805004:	10000226 	beq	r2,zero,805010 <__sfvwrite+0x50>
  805008:	20800417 	ldw	r2,16(r4)
  80500c:	1000041e 	bne	r2,zero,805020 <__sfvwrite+0x60>
  805010:	08032c00 	call	8032c0 <__swsetup>
  805014:	00ffffc4 	movi	r3,-1
  805018:	10001c1e 	bne	r2,zero,80508c <__sfvwrite+0xcc>
  80501c:	a0c0030b 	ldhu	r3,12(r20)
  805020:	193fffcc 	andi	r4,r3,65535
  805024:	2080008c 	andi	r2,r4,2
  805028:	ac800017 	ldw	r18,0(r21)
  80502c:	0021883a 	mov	r16,zero
  805030:	10002226 	beq	r2,zero,8050bc <__sfvwrite+0xfc>
  805034:	8000041e 	bne	r16,zero,805048 <__sfvwrite+0x88>
  805038:	94000117 	ldw	r16,4(r18)
  80503c:	94c00017 	ldw	r19,0(r18)
  805040:	94800204 	addi	r18,r18,8
  805044:	803ffc26 	beq	r16,zero,805038 <__sfvwrite+0x78>
  805048:	00810004 	movi	r2,1024
  80504c:	a1000717 	ldw	r4,28(r20)
  805050:	800d883a 	mov	r6,r16
  805054:	1400012e 	bgeu	r2,r16,80505c <__sfvwrite+0x9c>
  805058:	100d883a 	mov	r6,r2
  80505c:	a0c00917 	ldw	r3,36(r20)
  805060:	980b883a 	mov	r5,r19
  805064:	183ee83a 	callr	r3
  805068:	1023883a 	mov	r17,r2
  80506c:	00806b0e 	bge	zero,r2,80521c <__sfvwrite+0x25c>
  805070:	a8800217 	ldw	r2,8(r21)
  805074:	9c67883a 	add	r19,r19,r17
  805078:	8461c83a 	sub	r16,r16,r17
  80507c:	1445c83a 	sub	r2,r2,r17
  805080:	a8800215 	stw	r2,8(r21)
  805084:	103feb1e 	bne	r2,zero,805034 <__sfvwrite+0x74>
  805088:	0007883a 	mov	r3,zero
  80508c:	1805883a 	mov	r2,r3
  805090:	dfc00817 	ldw	ra,32(sp)
  805094:	dc000717 	ldw	r16,28(sp)
  805098:	dc400617 	ldw	r17,24(sp)
  80509c:	dc800517 	ldw	r18,20(sp)
  8050a0:	dcc00417 	ldw	r19,16(sp)
  8050a4:	dd000317 	ldw	r20,12(sp)
  8050a8:	dd400217 	ldw	r21,8(sp)
  8050ac:	dd800117 	ldw	r22,4(sp)
  8050b0:	ddc00017 	ldw	r23,0(sp)
  8050b4:	dec00904 	addi	sp,sp,36
  8050b8:	f800283a 	ret
  8050bc:	2080004c 	andi	r2,r4,1
  8050c0:	002f883a 	mov	r23,zero
  8050c4:	1000461e 	bne	r2,zero,8051e0 <__sfvwrite+0x220>
  8050c8:	8000041e 	bne	r16,zero,8050dc <__sfvwrite+0x11c>
  8050cc:	94000117 	ldw	r16,4(r18)
  8050d0:	94c00017 	ldw	r19,0(r18)
  8050d4:	94800204 	addi	r18,r18,8
  8050d8:	803ffc26 	beq	r16,zero,8050cc <__sfvwrite+0x10c>
  8050dc:	18ffffcc 	andi	r3,r3,65535
  8050e0:	1880800c 	andi	r2,r3,512
  8050e4:	a4400217 	ldw	r17,8(r20)
  8050e8:	10006226 	beq	r2,zero,805274 <__sfvwrite+0x2b4>
  8050ec:	8c00022e 	bgeu	r17,r16,8050f8 <__sfvwrite+0x138>
  8050f0:	1880200c 	andi	r2,r3,128
  8050f4:	10004e1e 	bne	r2,zero,805230 <__sfvwrite+0x270>
  8050f8:	8440012e 	bgeu	r16,r17,805100 <__sfvwrite+0x140>
  8050fc:	8023883a 	mov	r17,r16
  805100:	a1000017 	ldw	r4,0(r20)
  805104:	880d883a 	mov	r6,r17
  805108:	980b883a 	mov	r5,r19
  80510c:	08057b00 	call	8057b0 <memmove>
  805110:	a0c00217 	ldw	r3,8(r20)
  805114:	a0800017 	ldw	r2,0(r20)
  805118:	1c47c83a 	sub	r3,r3,r17
  80511c:	1445883a 	add	r2,r2,r17
  805120:	8023883a 	mov	r17,r16
  805124:	a0c00215 	stw	r3,8(r20)
  805128:	a0800015 	stw	r2,0(r20)
  80512c:	a8800217 	ldw	r2,8(r21)
  805130:	9c67883a 	add	r19,r19,r17
  805134:	8461c83a 	sub	r16,r16,r17
  805138:	1445c83a 	sub	r2,r2,r17
  80513c:	a8800215 	stw	r2,8(r21)
  805140:	103fd126 	beq	r2,zero,805088 <__sfvwrite+0xc8>
  805144:	a0c0030b 	ldhu	r3,12(r20)
  805148:	003fdf06 	br	8050c8 <__sfvwrite+0x108>
  80514c:	b804c03a 	cmpne	r2,r23,zero
  805150:	1000091e 	bne	r2,zero,805178 <__sfvwrite+0x1b8>
  805154:	9809883a 	mov	r4,r19
  805158:	01400284 	movi	r5,10
  80515c:	800d883a 	mov	r6,r16
  805160:	08056280 	call	805628 <memchr>
  805164:	85800044 	addi	r22,r16,1
  805168:	10000226 	beq	r2,zero,805174 <__sfvwrite+0x1b4>
  80516c:	14c5c83a 	sub	r2,r2,r19
  805170:	15800044 	addi	r22,r2,1
  805174:	05c00044 	movi	r23,1
  805178:	b00b883a 	mov	r5,r22
  80517c:	8580012e 	bgeu	r16,r22,805184 <__sfvwrite+0x1c4>
  805180:	800b883a 	mov	r5,r16
  805184:	a0c00217 	ldw	r3,8(r20)
  805188:	a1c00517 	ldw	r7,20(r20)
  80518c:	a1000017 	ldw	r4,0(r20)
  805190:	a0800417 	ldw	r2,16(r20)
  805194:	19e3883a 	add	r17,r3,r7
  805198:	1100012e 	bgeu	r2,r4,8051a0 <__sfvwrite+0x1e0>
  80519c:	89401616 	blt	r17,r5,8051f8 <__sfvwrite+0x238>
  8051a0:	29c04c16 	blt	r5,r7,8052d4 <__sfvwrite+0x314>
  8051a4:	a0c00917 	ldw	r3,36(r20)
  8051a8:	a1000717 	ldw	r4,28(r20)
  8051ac:	380d883a 	mov	r6,r7
  8051b0:	980b883a 	mov	r5,r19
  8051b4:	183ee83a 	callr	r3
  8051b8:	1023883a 	mov	r17,r2
  8051bc:	0080170e 	bge	zero,r2,80521c <__sfvwrite+0x25c>
  8051c0:	b46dc83a 	sub	r22,r22,r17
  8051c4:	b0005026 	beq	r22,zero,805308 <__sfvwrite+0x348>
  8051c8:	a8800217 	ldw	r2,8(r21)
  8051cc:	9c67883a 	add	r19,r19,r17
  8051d0:	8461c83a 	sub	r16,r16,r17
  8051d4:	1445c83a 	sub	r2,r2,r17
  8051d8:	a8800215 	stw	r2,8(r21)
  8051dc:	103faa26 	beq	r2,zero,805088 <__sfvwrite+0xc8>
  8051e0:	803fda1e 	bne	r16,zero,80514c <__sfvwrite+0x18c>
  8051e4:	94000117 	ldw	r16,4(r18)
  8051e8:	94c00017 	ldw	r19,0(r18)
  8051ec:	94800204 	addi	r18,r18,8
  8051f0:	803ffc26 	beq	r16,zero,8051e4 <__sfvwrite+0x224>
  8051f4:	003fd706 	br	805154 <__sfvwrite+0x194>
  8051f8:	980b883a 	mov	r5,r19
  8051fc:	880d883a 	mov	r6,r17
  805200:	08057b00 	call	8057b0 <memmove>
  805204:	a0c00017 	ldw	r3,0(r20)
  805208:	a009883a 	mov	r4,r20
  80520c:	1c47883a 	add	r3,r3,r17
  805210:	a0c00015 	stw	r3,0(r20)
  805214:	08049e40 	call	8049e4 <fflush>
  805218:	103fe926 	beq	r2,zero,8051c0 <__sfvwrite+0x200>
  80521c:	a080030b 	ldhu	r2,12(r20)
  805220:	00ffffc4 	movi	r3,-1
  805224:	10801014 	ori	r2,r2,64
  805228:	a080030d 	sth	r2,12(r20)
  80522c:	003f9706 	br	80508c <__sfvwrite+0xcc>
  805230:	a0800417 	ldw	r2,16(r20)
  805234:	a0c00017 	ldw	r3,0(r20)
  805238:	d1200a17 	ldw	r4,-32728(gp)
  80523c:	100b883a 	mov	r5,r2
  805240:	18a3c83a 	sub	r17,r3,r2
  805244:	8c2d883a 	add	r22,r17,r16
  805248:	b00d883a 	mov	r6,r22
  80524c:	08068c00 	call	8068c0 <_realloc_r>
  805250:	1009883a 	mov	r4,r2
  805254:	103ff126 	beq	r2,zero,80521c <__sfvwrite+0x25c>
  805258:	1445883a 	add	r2,r2,r17
  80525c:	8023883a 	mov	r17,r16
  805260:	a0800015 	stw	r2,0(r20)
  805264:	a5800515 	stw	r22,20(r20)
  805268:	a1000415 	stw	r4,16(r20)
  80526c:	a4000215 	stw	r16,8(r20)
  805270:	003fa106 	br	8050f8 <__sfvwrite+0x138>
  805274:	a1000017 	ldw	r4,0(r20)
  805278:	a0800417 	ldw	r2,16(r20)
  80527c:	1100012e 	bgeu	r2,r4,805284 <__sfvwrite+0x2c4>
  805280:	8c002636 	bltu	r17,r16,80531c <__sfvwrite+0x35c>
  805284:	a4400517 	ldw	r17,20(r20)
  805288:	84400836 	bltu	r16,r17,8052ac <__sfvwrite+0x2ec>
  80528c:	a0c00917 	ldw	r3,36(r20)
  805290:	a1000717 	ldw	r4,28(r20)
  805294:	880d883a 	mov	r6,r17
  805298:	980b883a 	mov	r5,r19
  80529c:	183ee83a 	callr	r3
  8052a0:	1023883a 	mov	r17,r2
  8052a4:	00bfa116 	blt	zero,r2,80512c <__sfvwrite+0x16c>
  8052a8:	003fdc06 	br	80521c <__sfvwrite+0x25c>
  8052ac:	a1000017 	ldw	r4,0(r20)
  8052b0:	980b883a 	mov	r5,r19
  8052b4:	800d883a 	mov	r6,r16
  8052b8:	08057b00 	call	8057b0 <memmove>
  8052bc:	a0c00217 	ldw	r3,8(r20)
  8052c0:	a0800017 	ldw	r2,0(r20)
  8052c4:	8023883a 	mov	r17,r16
  8052c8:	1c07c83a 	sub	r3,r3,r16
  8052cc:	1405883a 	add	r2,r2,r16
  8052d0:	003f9406 	br	805124 <__sfvwrite+0x164>
  8052d4:	a1000017 	ldw	r4,0(r20)
  8052d8:	2823883a 	mov	r17,r5
  8052dc:	880d883a 	mov	r6,r17
  8052e0:	980b883a 	mov	r5,r19
  8052e4:	08057b00 	call	8057b0 <memmove>
  8052e8:	a0c00217 	ldw	r3,8(r20)
  8052ec:	a0800017 	ldw	r2,0(r20)
  8052f0:	b46dc83a 	sub	r22,r22,r17
  8052f4:	1c47c83a 	sub	r3,r3,r17
  8052f8:	1445883a 	add	r2,r2,r17
  8052fc:	a0c00215 	stw	r3,8(r20)
  805300:	a0800015 	stw	r2,0(r20)
  805304:	b03fb01e 	bne	r22,zero,8051c8 <__sfvwrite+0x208>
  805308:	a009883a 	mov	r4,r20
  80530c:	08049e40 	call	8049e4 <fflush>
  805310:	103fc21e 	bne	r2,zero,80521c <__sfvwrite+0x25c>
  805314:	002f883a 	mov	r23,zero
  805318:	003fab06 	br	8051c8 <__sfvwrite+0x208>
  80531c:	980b883a 	mov	r5,r19
  805320:	880d883a 	mov	r6,r17
  805324:	08057b00 	call	8057b0 <memmove>
  805328:	a0c00017 	ldw	r3,0(r20)
  80532c:	a009883a 	mov	r4,r20
  805330:	1c47883a 	add	r3,r3,r17
  805334:	a0c00015 	stw	r3,0(r20)
  805338:	08049e40 	call	8049e4 <fflush>
  80533c:	103f7b26 	beq	r2,zero,80512c <__sfvwrite+0x16c>
  805340:	003fb606 	br	80521c <__sfvwrite+0x25c>

00805344 <_fwalk>:
  805344:	d0a00a17 	ldw	r2,-32728(gp)
  805348:	defffa04 	addi	sp,sp,-24
  80534c:	dcc00115 	stw	r19,4(sp)
  805350:	dd000015 	stw	r20,0(sp)
  805354:	dfc00515 	stw	ra,20(sp)
  805358:	dc000415 	stw	r16,16(sp)
  80535c:	dc400315 	stw	r17,12(sp)
  805360:	dc800215 	stw	r18,8(sp)
  805364:	2829883a 	mov	r20,r5
  805368:	0027883a 	mov	r19,zero
  80536c:	20801126 	beq	r4,r2,8053b4 <_fwalk+0x70>
  805370:	24809704 	addi	r18,r4,604
  805374:	90000f26 	beq	r18,zero,8053b4 <_fwalk+0x70>
  805378:	94400117 	ldw	r17,4(r18)
  80537c:	94000217 	ldw	r16,8(r18)
  805380:	8c7fffc4 	addi	r17,r17,-1
  805384:	88000816 	blt	r17,zero,8053a8 <_fwalk+0x64>
  805388:	8080030f 	ldh	r2,12(r16)
  80538c:	8009883a 	mov	r4,r16
  805390:	8c7fffc4 	addi	r17,r17,-1
  805394:	84001704 	addi	r16,r16,92
  805398:	103ffa26 	beq	r2,zero,805384 <_fwalk+0x40>
  80539c:	a03ee83a 	callr	r20
  8053a0:	98a6b03a 	or	r19,r19,r2
  8053a4:	883ff80e 	bge	r17,zero,805388 <_fwalk+0x44>
  8053a8:	94800017 	ldw	r18,0(r18)
  8053ac:	903ff21e 	bne	r18,zero,805378 <_fwalk+0x34>
  8053b0:	d0a00a17 	ldw	r2,-32728(gp)
  8053b4:	14809704 	addi	r18,r2,604
  8053b8:	90000e26 	beq	r18,zero,8053f4 <_fwalk+0xb0>
  8053bc:	94400117 	ldw	r17,4(r18)
  8053c0:	94000217 	ldw	r16,8(r18)
  8053c4:	8c7fffc4 	addi	r17,r17,-1
  8053c8:	88000816 	blt	r17,zero,8053ec <_fwalk+0xa8>
  8053cc:	8080030f 	ldh	r2,12(r16)
  8053d0:	8009883a 	mov	r4,r16
  8053d4:	8c7fffc4 	addi	r17,r17,-1
  8053d8:	84001704 	addi	r16,r16,92
  8053dc:	103ffa26 	beq	r2,zero,8053c8 <_fwalk+0x84>
  8053e0:	a03ee83a 	callr	r20
  8053e4:	98a6b03a 	or	r19,r19,r2
  8053e8:	883ff80e 	bge	r17,zero,8053cc <_fwalk+0x88>
  8053ec:	94800017 	ldw	r18,0(r18)
  8053f0:	903ff21e 	bne	r18,zero,8053bc <_fwalk+0x78>
  8053f4:	9805883a 	mov	r2,r19
  8053f8:	dfc00517 	ldw	ra,20(sp)
  8053fc:	dc000417 	ldw	r16,16(sp)
  805400:	dc400317 	ldw	r17,12(sp)
  805404:	dc800217 	ldw	r18,8(sp)
  805408:	dcc00117 	ldw	r19,4(sp)
  80540c:	dd000017 	ldw	r20,0(sp)
  805410:	dec00604 	addi	sp,sp,24
  805414:	f800283a 	ret

00805418 <_setlocale_r>:
  805418:	defffc04 	addi	sp,sp,-16
  80541c:	dc000215 	stw	r16,8(sp)
  805420:	dc400115 	stw	r17,4(sp)
  805424:	dc800015 	stw	r18,0(sp)
  805428:	2023883a 	mov	r17,r4
  80542c:	2825883a 	mov	r18,r5
  805430:	dfc00315 	stw	ra,12(sp)
  805434:	3021883a 	mov	r16,r6
  805438:	3009883a 	mov	r4,r6
  80543c:	01402074 	movhi	r5,129
  805440:	29410104 	addi	r5,r5,1028
  805444:	30000726 	beq	r6,zero,805464 <_setlocale_r+0x4c>
  805448:	08070040 	call	807004 <strcmp>
  80544c:	8009883a 	mov	r4,r16
  805450:	01402074 	movhi	r5,129
  805454:	2940e904 	addi	r5,r5,932
  805458:	10000b1e 	bne	r2,zero,805488 <_setlocale_r+0x70>
  80545c:	8c000d15 	stw	r16,52(r17)
  805460:	8c800c15 	stw	r18,48(r17)
  805464:	00c02074 	movhi	r3,129
  805468:	18c10104 	addi	r3,r3,1028
  80546c:	1805883a 	mov	r2,r3
  805470:	dfc00317 	ldw	ra,12(sp)
  805474:	dc000217 	ldw	r16,8(sp)
  805478:	dc400117 	ldw	r17,4(sp)
  80547c:	dc800017 	ldw	r18,0(sp)
  805480:	dec00404 	addi	sp,sp,16
  805484:	f800283a 	ret
  805488:	08070040 	call	807004 <strcmp>
  80548c:	0007883a 	mov	r3,zero
  805490:	103ff61e 	bne	r2,zero,80546c <_setlocale_r+0x54>
  805494:	8c000d15 	stw	r16,52(r17)
  805498:	8c800c15 	stw	r18,48(r17)
  80549c:	003ff106 	br	805464 <_setlocale_r+0x4c>

008054a0 <__locale_charset>:
  8054a0:	d0a00f17 	ldw	r2,-32708(gp)
  8054a4:	f800283a 	ret

008054a8 <_localeconv_r>:
  8054a8:	00802074 	movhi	r2,129
  8054ac:	10810504 	addi	r2,r2,1044
  8054b0:	f800283a 	ret

008054b4 <setlocale>:
  8054b4:	2007883a 	mov	r3,r4
  8054b8:	d1200a17 	ldw	r4,-32728(gp)
  8054bc:	280d883a 	mov	r6,r5
  8054c0:	02002034 	movhi	r8,128
  8054c4:	42150604 	addi	r8,r8,21528
  8054c8:	180b883a 	mov	r5,r3
  8054cc:	4000683a 	jmp	r8

008054d0 <localeconv>:
  8054d0:	d1200a17 	ldw	r4,-32728(gp)
  8054d4:	02002034 	movhi	r8,128
  8054d8:	42152a04 	addi	r8,r8,21672
  8054dc:	4000683a 	jmp	r8

008054e0 <__smakebuf>:
  8054e0:	deffee04 	addi	sp,sp,-72
  8054e4:	dc001015 	stw	r16,64(sp)
  8054e8:	dfc01115 	stw	ra,68(sp)
  8054ec:	dc400f15 	stw	r17,60(sp)
  8054f0:	20c0030b 	ldhu	r3,12(r4)
  8054f4:	2021883a 	mov	r16,r4
  8054f8:	1880008c 	andi	r2,r3,2
  8054fc:	10000a26 	beq	r2,zero,805528 <__smakebuf+0x48>
  805500:	20c010c4 	addi	r3,r4,67
  805504:	00800044 	movi	r2,1
  805508:	20800515 	stw	r2,20(r4)
  80550c:	20c00415 	stw	r3,16(r4)
  805510:	20c00015 	stw	r3,0(r4)
  805514:	dfc01117 	ldw	ra,68(sp)
  805518:	dc001017 	ldw	r16,64(sp)
  80551c:	dc400f17 	ldw	r17,60(sp)
  805520:	dec01204 	addi	sp,sp,72
  805524:	f800283a 	ret
  805528:	2140038f 	ldh	r5,14(r4)
  80552c:	28001f16 	blt	r5,zero,8055ac <__smakebuf+0xcc>
  805530:	d1200a17 	ldw	r4,-32728(gp)
  805534:	d80d883a 	mov	r6,sp
  805538:	080729c0 	call	80729c <_fstat_r>
  80553c:	10001a16 	blt	r2,zero,8055a8 <__smakebuf+0xc8>
  805540:	d8800117 	ldw	r2,4(sp)
  805544:	00e00014 	movui	r3,32768
  805548:	04410004 	movi	r17,1024
  80554c:	10bc000c 	andi	r2,r2,61440
  805550:	11080020 	cmpeqi	r4,r2,8192
  805554:	10c02c26 	beq	r2,r3,805608 <__smakebuf+0x128>
  805558:	8080030b 	ldhu	r2,12(r16)
  80555c:	10820014 	ori	r2,r2,2048
  805560:	8080030d 	sth	r2,12(r16)
  805564:	20001426 	beq	r4,zero,8055b8 <__smakebuf+0xd8>
  805568:	8100038f 	ldh	r4,14(r16)
  80556c:	08097b00 	call	8097b0 <isatty>
  805570:	10001126 	beq	r2,zero,8055b8 <__smakebuf+0xd8>
  805574:	8080030b 	ldhu	r2,12(r16)
  805578:	810010c4 	addi	r4,r16,67
  80557c:	00c00044 	movi	r3,1
  805580:	10800094 	ori	r2,r2,2
  805584:	80c00515 	stw	r3,20(r16)
  805588:	8080030d 	sth	r2,12(r16)
  80558c:	81000415 	stw	r4,16(r16)
  805590:	81000015 	stw	r4,0(r16)
  805594:	dfc01117 	ldw	ra,68(sp)
  805598:	dc001017 	ldw	r16,64(sp)
  80559c:	dc400f17 	ldw	r17,60(sp)
  8055a0:	dec01204 	addi	sp,sp,72
  8055a4:	f800283a 	ret
  8055a8:	80c0030b 	ldhu	r3,12(r16)
  8055ac:	18820014 	ori	r2,r3,2048
  8055b0:	04410004 	movi	r17,1024
  8055b4:	8080030d 	sth	r2,12(r16)
  8055b8:	d1200a17 	ldw	r4,-32728(gp)
  8055bc:	01410004 	movi	r5,1024
  8055c0:	08007f40 	call	8007f4 <_malloc_r>
  8055c4:	100b883a 	mov	r5,r2
  8055c8:	103fea26 	beq	r2,zero,805574 <__smakebuf+0x94>
  8055cc:	8080030b 	ldhu	r2,12(r16)
  8055d0:	d0e00a17 	ldw	r3,-32728(gp)
  8055d4:	01002034 	movhi	r4,128
  8055d8:	2112c904 	addi	r4,r4,19236
  8055dc:	10802014 	ori	r2,r2,128
  8055e0:	19000f15 	stw	r4,60(r3)
  8055e4:	84400515 	stw	r17,20(r16)
  8055e8:	8080030d 	sth	r2,12(r16)
  8055ec:	81400415 	stw	r5,16(r16)
  8055f0:	81400015 	stw	r5,0(r16)
  8055f4:	dfc01117 	ldw	ra,68(sp)
  8055f8:	dc001017 	ldw	r16,64(sp)
  8055fc:	dc400f17 	ldw	r17,60(sp)
  805600:	dec01204 	addi	sp,sp,72
  805604:	f800283a 	ret
  805608:	80c00a17 	ldw	r3,40(r16)
  80560c:	00802034 	movhi	r2,128
  805610:	109bde04 	addi	r2,r2,28536
  805614:	18bfd01e 	bne	r3,r2,805558 <__smakebuf+0x78>
  805618:	8080030b 	ldhu	r2,12(r16)
  80561c:	84401315 	stw	r17,76(r16)
  805620:	1444b03a 	or	r2,r2,r17
  805624:	003fce06 	br	805560 <__smakebuf+0x80>

00805628 <memchr>:
  805628:	020000c4 	movi	r8,3
  80562c:	29403fcc 	andi	r5,r5,255
  805630:	4180022e 	bgeu	r8,r6,80563c <memchr+0x14>
  805634:	2204703a 	and	r2,r4,r8
  805638:	10000b26 	beq	r2,zero,805668 <memchr+0x40>
  80563c:	31bfffc4 	addi	r6,r6,-1
  805640:	00bfffc4 	movi	r2,-1
  805644:	30800626 	beq	r6,r2,805660 <memchr+0x38>
  805648:	1007883a 	mov	r3,r2
  80564c:	20800003 	ldbu	r2,0(r4)
  805650:	31bfffc4 	addi	r6,r6,-1
  805654:	11402526 	beq	r2,r5,8056ec <memchr+0xc4>
  805658:	21000044 	addi	r4,r4,1
  80565c:	30fffb1e 	bne	r6,r3,80564c <memchr+0x24>
  805660:	0005883a 	mov	r2,zero
  805664:	f800283a 	ret
  805668:	200f883a 	mov	r7,r4
  80566c:	0013883a 	mov	r9,zero
  805670:	0007883a 	mov	r3,zero
  805674:	4804923a 	slli	r2,r9,8
  805678:	18c00044 	addi	r3,r3,1
  80567c:	1153883a 	add	r9,r2,r5
  805680:	40fffc2e 	bgeu	r8,r3,805674 <memchr+0x4c>
  805684:	028000c4 	movi	r10,3
  805688:	5180162e 	bgeu	r10,r6,8056e4 <memchr+0xbc>
  80568c:	033fbff4 	movhi	r12,65279
  805690:	633fbfc4 	addi	r12,r12,-257
  805694:	02e02074 	movhi	r11,32897
  805698:	5ae02004 	addi	r11,r11,-32640
  80569c:	38800017 	ldw	r2,0(r7)
  8056a0:	1244f03a 	xor	r2,r2,r9
  8056a4:	0086303a 	nor	r3,zero,r2
  8056a8:	1305883a 	add	r2,r2,r12
  8056ac:	10c4703a 	and	r2,r2,r3
  8056b0:	12c4703a 	and	r2,r2,r11
  8056b4:	10000826 	beq	r2,zero,8056d8 <memchr+0xb0>
  8056b8:	3809883a 	mov	r4,r7
  8056bc:	0007883a 	mov	r3,zero
  8056c0:	020000c4 	movi	r8,3
  8056c4:	20800003 	ldbu	r2,0(r4)
  8056c8:	18c00044 	addi	r3,r3,1
  8056cc:	11400726 	beq	r2,r5,8056ec <memchr+0xc4>
  8056d0:	21000044 	addi	r4,r4,1
  8056d4:	40fffb2e 	bgeu	r8,r3,8056c4 <memchr+0x9c>
  8056d8:	31bfff04 	addi	r6,r6,-4
  8056dc:	39c00104 	addi	r7,r7,4
  8056e0:	51bfee36 	bltu	r10,r6,80569c <memchr+0x74>
  8056e4:	3809883a 	mov	r4,r7
  8056e8:	003fd406 	br	80563c <memchr+0x14>
  8056ec:	2005883a 	mov	r2,r4
  8056f0:	f800283a 	ret

008056f4 <memcpy>:
  8056f4:	020003c4 	movi	r8,15
  8056f8:	2007883a 	mov	r3,r4
  8056fc:	4180032e 	bgeu	r8,r6,80570c <memcpy+0x18>
  805700:	2904b03a 	or	r2,r5,r4
  805704:	108000cc 	andi	r2,r2,3
  805708:	10000c26 	beq	r2,zero,80573c <memcpy+0x48>
  80570c:	31bfffc4 	addi	r6,r6,-1
  805710:	00bfffc4 	movi	r2,-1
  805714:	30800726 	beq	r6,r2,805734 <memcpy+0x40>
  805718:	100f883a 	mov	r7,r2
  80571c:	28800003 	ldbu	r2,0(r5)
  805720:	31bfffc4 	addi	r6,r6,-1
  805724:	29400044 	addi	r5,r5,1
  805728:	18800005 	stb	r2,0(r3)
  80572c:	18c00044 	addi	r3,r3,1
  805730:	31fffa1e 	bne	r6,r7,80571c <memcpy+0x28>
  805734:	2005883a 	mov	r2,r4
  805738:	f800283a 	ret
  80573c:	200f883a 	mov	r7,r4
  805740:	28800017 	ldw	r2,0(r5)
  805744:	29400104 	addi	r5,r5,4
  805748:	31bffc04 	addi	r6,r6,-16
  80574c:	38800015 	stw	r2,0(r7)
  805750:	28c00017 	ldw	r3,0(r5)
  805754:	39c00104 	addi	r7,r7,4
  805758:	29400104 	addi	r5,r5,4
  80575c:	38c00015 	stw	r3,0(r7)
  805760:	28800017 	ldw	r2,0(r5)
  805764:	39c00104 	addi	r7,r7,4
  805768:	29400104 	addi	r5,r5,4
  80576c:	38800015 	stw	r2,0(r7)
  805770:	28c00017 	ldw	r3,0(r5)
  805774:	39c00104 	addi	r7,r7,4
  805778:	29400104 	addi	r5,r5,4
  80577c:	38c00015 	stw	r3,0(r7)
  805780:	39c00104 	addi	r7,r7,4
  805784:	41bfee36 	bltu	r8,r6,805740 <memcpy+0x4c>
  805788:	00c000c4 	movi	r3,3
  80578c:	1980062e 	bgeu	r3,r6,8057a8 <memcpy+0xb4>
  805790:	28800017 	ldw	r2,0(r5)
  805794:	31bfff04 	addi	r6,r6,-4
  805798:	29400104 	addi	r5,r5,4
  80579c:	38800015 	stw	r2,0(r7)
  8057a0:	39c00104 	addi	r7,r7,4
  8057a4:	19bffa36 	bltu	r3,r6,805790 <memcpy+0x9c>
  8057a8:	3807883a 	mov	r3,r7
  8057ac:	003fd706 	br	80570c <memcpy+0x18>

008057b0 <memmove>:
  8057b0:	2811883a 	mov	r8,r5
  8057b4:	2007883a 	mov	r3,r4
  8057b8:	300f883a 	mov	r7,r6
  8057bc:	29000f2e 	bgeu	r5,r4,8057fc <memmove+0x4c>
  8057c0:	2985883a 	add	r2,r5,r6
  8057c4:	20800d2e 	bgeu	r4,r2,8057fc <memmove+0x4c>
  8057c8:	2187883a 	add	r3,r4,r6
  8057cc:	31ffffc4 	addi	r7,r6,-1
  8057d0:	01bfffc4 	movi	r6,-1
  8057d4:	100b883a 	mov	r5,r2
  8057d8:	39800626 	beq	r7,r6,8057f4 <memmove+0x44>
  8057dc:	297fffc4 	addi	r5,r5,-1
  8057e0:	28800003 	ldbu	r2,0(r5)
  8057e4:	18ffffc4 	addi	r3,r3,-1
  8057e8:	39ffffc4 	addi	r7,r7,-1
  8057ec:	18800005 	stb	r2,0(r3)
  8057f0:	39bffa1e 	bne	r7,r6,8057dc <memmove+0x2c>
  8057f4:	2005883a 	mov	r2,r4
  8057f8:	f800283a 	ret
  8057fc:	024003c4 	movi	r9,15
  805800:	49800c36 	bltu	r9,r6,805834 <memmove+0x84>
  805804:	39ffffc4 	addi	r7,r7,-1
  805808:	00bfffc4 	movi	r2,-1
  80580c:	38bff926 	beq	r7,r2,8057f4 <memmove+0x44>
  805810:	100d883a 	mov	r6,r2
  805814:	28800003 	ldbu	r2,0(r5)
  805818:	39ffffc4 	addi	r7,r7,-1
  80581c:	29400044 	addi	r5,r5,1
  805820:	18800005 	stb	r2,0(r3)
  805824:	18c00044 	addi	r3,r3,1
  805828:	39bffa1e 	bne	r7,r6,805814 <memmove+0x64>
  80582c:	2005883a 	mov	r2,r4
  805830:	f800283a 	ret
  805834:	4104b03a 	or	r2,r8,r4
  805838:	108000cc 	andi	r2,r2,3
  80583c:	103ff11e 	bne	r2,zero,805804 <memmove+0x54>
  805840:	400b883a 	mov	r5,r8
  805844:	200d883a 	mov	r6,r4
  805848:	28800017 	ldw	r2,0(r5)
  80584c:	29400104 	addi	r5,r5,4
  805850:	39fffc04 	addi	r7,r7,-16
  805854:	30800015 	stw	r2,0(r6)
  805858:	28c00017 	ldw	r3,0(r5)
  80585c:	31800104 	addi	r6,r6,4
  805860:	29400104 	addi	r5,r5,4
  805864:	30c00015 	stw	r3,0(r6)
  805868:	28800017 	ldw	r2,0(r5)
  80586c:	31800104 	addi	r6,r6,4
  805870:	29400104 	addi	r5,r5,4
  805874:	30800015 	stw	r2,0(r6)
  805878:	28c00017 	ldw	r3,0(r5)
  80587c:	31800104 	addi	r6,r6,4
  805880:	29400104 	addi	r5,r5,4
  805884:	30c00015 	stw	r3,0(r6)
  805888:	31800104 	addi	r6,r6,4
  80588c:	49ffee36 	bltu	r9,r7,805848 <memmove+0x98>
  805890:	00c000c4 	movi	r3,3
  805894:	19c0062e 	bgeu	r3,r7,8058b0 <memmove+0x100>
  805898:	28800017 	ldw	r2,0(r5)
  80589c:	39ffff04 	addi	r7,r7,-4
  8058a0:	29400104 	addi	r5,r5,4
  8058a4:	30800015 	stw	r2,0(r6)
  8058a8:	31800104 	addi	r6,r6,4
  8058ac:	19fffa36 	bltu	r3,r7,805898 <memmove+0xe8>
  8058b0:	3007883a 	mov	r3,r6
  8058b4:	003fd306 	br	805804 <memmove+0x54>

008058b8 <memset>:
  8058b8:	008000c4 	movi	r2,3
  8058bc:	29403fcc 	andi	r5,r5,255
  8058c0:	2007883a 	mov	r3,r4
  8058c4:	11801a2e 	bgeu	r2,r6,805930 <memset+0x78>
  8058c8:	2084703a 	and	r2,r4,r2
  8058cc:	1000181e 	bne	r2,zero,805930 <memset+0x78>
  8058d0:	2806923a 	slli	r3,r5,8
  8058d4:	200f883a 	mov	r7,r4
  8058d8:	1946b03a 	or	r3,r3,r5
  8058dc:	1804943a 	slli	r2,r3,16
  8058e0:	1886b03a 	or	r3,r3,r2
  8058e4:	008003c4 	movi	r2,15
  8058e8:	11800a2e 	bgeu	r2,r6,805914 <memset+0x5c>
  8058ec:	38c00015 	stw	r3,0(r7)
  8058f0:	39c00104 	addi	r7,r7,4
  8058f4:	38c00015 	stw	r3,0(r7)
  8058f8:	39c00104 	addi	r7,r7,4
  8058fc:	38c00015 	stw	r3,0(r7)
  805900:	39c00104 	addi	r7,r7,4
  805904:	38c00015 	stw	r3,0(r7)
  805908:	31bffc04 	addi	r6,r6,-16
  80590c:	39c00104 	addi	r7,r7,4
  805910:	11bff636 	bltu	r2,r6,8058ec <memset+0x34>
  805914:	008000c4 	movi	r2,3
  805918:	1180042e 	bgeu	r2,r6,80592c <memset+0x74>
  80591c:	38c00015 	stw	r3,0(r7)
  805920:	31bfff04 	addi	r6,r6,-4
  805924:	39c00104 	addi	r7,r7,4
  805928:	11bffc36 	bltu	r2,r6,80591c <memset+0x64>
  80592c:	3807883a 	mov	r3,r7
  805930:	31bfffc4 	addi	r6,r6,-1
  805934:	00bfffc4 	movi	r2,-1
  805938:	30800426 	beq	r6,r2,80594c <memset+0x94>
  80593c:	19400005 	stb	r5,0(r3)
  805940:	31bfffc4 	addi	r6,r6,-1
  805944:	18c00044 	addi	r3,r3,1
  805948:	30bffc1e 	bne	r6,r2,80593c <memset+0x84>
  80594c:	2005883a 	mov	r2,r4
  805950:	f800283a 	ret

00805954 <_Balloc>:
  805954:	defffc04 	addi	sp,sp,-16
  805958:	dc000215 	stw	r16,8(sp)
  80595c:	dc400115 	stw	r17,4(sp)
  805960:	dfc00315 	stw	ra,12(sp)
  805964:	dc800015 	stw	r18,0(sp)
  805968:	20c01317 	ldw	r3,76(r4)
  80596c:	2823883a 	mov	r17,r5
  805970:	2021883a 	mov	r16,r4
  805974:	01800404 	movi	r6,16
  805978:	01400104 	movi	r5,4
  80597c:	18001426 	beq	r3,zero,8059d0 <_Balloc+0x7c>
  805980:	01400044 	movi	r5,1
  805984:	880490ba 	slli	r2,r17,2
  805988:	2c64983a 	sll	r18,r5,r17
  80598c:	8009883a 	mov	r4,r16
  805990:	10cf883a 	add	r7,r2,r3
  805994:	900c90ba 	slli	r6,r18,2
  805998:	38c00017 	ldw	r3,0(r7)
  80599c:	31800504 	addi	r6,r6,20
  8059a0:	18001126 	beq	r3,zero,8059e8 <_Balloc+0x94>
  8059a4:	18800017 	ldw	r2,0(r3)
  8059a8:	38800015 	stw	r2,0(r7)
  8059ac:	18000415 	stw	zero,16(r3)
  8059b0:	18000315 	stw	zero,12(r3)
  8059b4:	1805883a 	mov	r2,r3
  8059b8:	dfc00317 	ldw	ra,12(sp)
  8059bc:	dc000217 	ldw	r16,8(sp)
  8059c0:	dc400117 	ldw	r17,4(sp)
  8059c4:	dc800017 	ldw	r18,0(sp)
  8059c8:	dec00404 	addi	sp,sp,16
  8059cc:	f800283a 	ret
  8059d0:	080717c0 	call	80717c <_calloc_r>
  8059d4:	1007883a 	mov	r3,r2
  8059d8:	80801315 	stw	r2,76(r16)
  8059dc:	0005883a 	mov	r2,zero
  8059e0:	183fe71e 	bne	r3,zero,805980 <_Balloc+0x2c>
  8059e4:	003ff406 	br	8059b8 <_Balloc+0x64>
  8059e8:	080717c0 	call	80717c <_calloc_r>
  8059ec:	1007883a 	mov	r3,r2
  8059f0:	0005883a 	mov	r2,zero
  8059f4:	183ff026 	beq	r3,zero,8059b8 <_Balloc+0x64>
  8059f8:	1c400115 	stw	r17,4(r3)
  8059fc:	1c800215 	stw	r18,8(r3)
  805a00:	003fea06 	br	8059ac <_Balloc+0x58>

00805a04 <_Bfree>:
  805a04:	28000726 	beq	r5,zero,805a24 <_Bfree+0x20>
  805a08:	28800117 	ldw	r2,4(r5)
  805a0c:	21001317 	ldw	r4,76(r4)
  805a10:	100490ba 	slli	r2,r2,2
  805a14:	1105883a 	add	r2,r2,r4
  805a18:	10c00017 	ldw	r3,0(r2)
  805a1c:	28c00015 	stw	r3,0(r5)
  805a20:	11400015 	stw	r5,0(r2)
  805a24:	f800283a 	ret

00805a28 <_multadd>:
  805a28:	defff604 	addi	sp,sp,-40
  805a2c:	df000815 	stw	fp,32(sp)
  805a30:	dc800515 	stw	r18,20(sp)
  805a34:	dcc00415 	stw	r19,16(sp)
  805a38:	dd000315 	stw	r20,12(sp)
  805a3c:	dd400215 	stw	r21,8(sp)
  805a40:	ddc00015 	stw	r23,0(sp)
  805a44:	dfc00915 	stw	ra,36(sp)
  805a48:	dc000715 	stw	r16,28(sp)
  805a4c:	dc400615 	stw	r17,24(sp)
  805a50:	dd800115 	stw	r22,4(sp)
  805a54:	2d800417 	ldw	r22,16(r5)
  805a58:	282f883a 	mov	r23,r5
  805a5c:	2039883a 	mov	fp,r4
  805a60:	302b883a 	mov	r21,r6
  805a64:	3829883a 	mov	r20,r7
  805a68:	2c800504 	addi	r18,r5,20
  805a6c:	0027883a 	mov	r19,zero
  805a70:	94400017 	ldw	r17,0(r18)
  805a74:	a80b883a 	mov	r5,r21
  805a78:	9cc00044 	addi	r19,r19,1
  805a7c:	893fffcc 	andi	r4,r17,65535
  805a80:	08007a40 	call	8007a4 <__mulsi3>
  805a84:	8808d43a 	srli	r4,r17,16
  805a88:	1521883a 	add	r16,r2,r20
  805a8c:	a80b883a 	mov	r5,r21
  805a90:	08007a40 	call	8007a4 <__mulsi3>
  805a94:	8008d43a 	srli	r4,r16,16
  805a98:	843fffcc 	andi	r16,r16,65535
  805a9c:	1105883a 	add	r2,r2,r4
  805aa0:	1006943a 	slli	r3,r2,16
  805aa4:	1028d43a 	srli	r20,r2,16
  805aa8:	1c07883a 	add	r3,r3,r16
  805aac:	90c00015 	stw	r3,0(r18)
  805ab0:	94800104 	addi	r18,r18,4
  805ab4:	9dbfee16 	blt	r19,r22,805a70 <_multadd+0x48>
  805ab8:	a0000726 	beq	r20,zero,805ad8 <_multadd+0xb0>
  805abc:	b8800217 	ldw	r2,8(r23)
  805ac0:	b080120e 	bge	r22,r2,805b0c <_multadd+0xe4>
  805ac4:	b00490ba 	slli	r2,r22,2
  805ac8:	b5800044 	addi	r22,r22,1
  805acc:	bd800415 	stw	r22,16(r23)
  805ad0:	15c5883a 	add	r2,r2,r23
  805ad4:	15000515 	stw	r20,20(r2)
  805ad8:	b805883a 	mov	r2,r23
  805adc:	dfc00917 	ldw	ra,36(sp)
  805ae0:	df000817 	ldw	fp,32(sp)
  805ae4:	dc000717 	ldw	r16,28(sp)
  805ae8:	dc400617 	ldw	r17,24(sp)
  805aec:	dc800517 	ldw	r18,20(sp)
  805af0:	dcc00417 	ldw	r19,16(sp)
  805af4:	dd000317 	ldw	r20,12(sp)
  805af8:	dd400217 	ldw	r21,8(sp)
  805afc:	dd800117 	ldw	r22,4(sp)
  805b00:	ddc00017 	ldw	r23,0(sp)
  805b04:	dec00a04 	addi	sp,sp,40
  805b08:	f800283a 	ret
  805b0c:	b9400117 	ldw	r5,4(r23)
  805b10:	e009883a 	mov	r4,fp
  805b14:	29400044 	addi	r5,r5,1
  805b18:	08059540 	call	805954 <_Balloc>
  805b1c:	b9800417 	ldw	r6,16(r23)
  805b20:	b9400304 	addi	r5,r23,12
  805b24:	11000304 	addi	r4,r2,12
  805b28:	300c90ba 	slli	r6,r6,2
  805b2c:	1023883a 	mov	r17,r2
  805b30:	31800204 	addi	r6,r6,8
  805b34:	08056f40 	call	8056f4 <memcpy>
  805b38:	b80b883a 	mov	r5,r23
  805b3c:	e009883a 	mov	r4,fp
  805b40:	0805a040 	call	805a04 <_Bfree>
  805b44:	882f883a 	mov	r23,r17
  805b48:	003fde06 	br	805ac4 <_multadd+0x9c>

00805b4c <_s2b>:
  805b4c:	defffa04 	addi	sp,sp,-24
  805b50:	dc000415 	stw	r16,16(sp)
  805b54:	dc800215 	stw	r18,8(sp)
  805b58:	2821883a 	mov	r16,r5
  805b5c:	2025883a 	mov	r18,r4
  805b60:	01400244 	movi	r5,9
  805b64:	39000204 	addi	r4,r7,8
  805b68:	dcc00115 	stw	r19,4(sp)
  805b6c:	dd000015 	stw	r20,0(sp)
  805b70:	dfc00515 	stw	ra,20(sp)
  805b74:	dc400315 	stw	r17,12(sp)
  805b78:	3827883a 	mov	r19,r7
  805b7c:	3029883a 	mov	r20,r6
  805b80:	08006e80 	call	8006e8 <__divsi3>
  805b84:	00c00044 	movi	r3,1
  805b88:	000b883a 	mov	r5,zero
  805b8c:	1880030e 	bge	r3,r2,805b9c <_s2b+0x50>
  805b90:	18c7883a 	add	r3,r3,r3
  805b94:	29400044 	addi	r5,r5,1
  805b98:	18bffd16 	blt	r3,r2,805b90 <_s2b+0x44>
  805b9c:	9009883a 	mov	r4,r18
  805ba0:	08059540 	call	805954 <_Balloc>
  805ba4:	1009883a 	mov	r4,r2
  805ba8:	d8800617 	ldw	r2,24(sp)
  805bac:	00c00044 	movi	r3,1
  805bb0:	04400244 	movi	r17,9
  805bb4:	20800515 	stw	r2,20(r4)
  805bb8:	20c00415 	stw	r3,16(r4)
  805bbc:	8d00170e 	bge	r17,r20,805c1c <_s2b+0xd0>
  805bc0:	8461883a 	add	r16,r16,r17
  805bc4:	81c00007 	ldb	r7,0(r16)
  805bc8:	200b883a 	mov	r5,r4
  805bcc:	01800284 	movi	r6,10
  805bd0:	9009883a 	mov	r4,r18
  805bd4:	39fff404 	addi	r7,r7,-48
  805bd8:	0805a280 	call	805a28 <_multadd>
  805bdc:	8c400044 	addi	r17,r17,1
  805be0:	1009883a 	mov	r4,r2
  805be4:	84000044 	addi	r16,r16,1
  805be8:	8d3ff616 	blt	r17,r20,805bc4 <_s2b+0x78>
  805bec:	84000044 	addi	r16,r16,1
  805bf0:	8cc00c0e 	bge	r17,r19,805c24 <_s2b+0xd8>
  805bf4:	81c00007 	ldb	r7,0(r16)
  805bf8:	200b883a 	mov	r5,r4
  805bfc:	01800284 	movi	r6,10
  805c00:	9009883a 	mov	r4,r18
  805c04:	39fff404 	addi	r7,r7,-48
  805c08:	0805a280 	call	805a28 <_multadd>
  805c0c:	1009883a 	mov	r4,r2
  805c10:	8c400044 	addi	r17,r17,1
  805c14:	84000044 	addi	r16,r16,1
  805c18:	003ff506 	br	805bf0 <_s2b+0xa4>
  805c1c:	84000284 	addi	r16,r16,10
  805c20:	8cfff416 	blt	r17,r19,805bf4 <_s2b+0xa8>
  805c24:	2005883a 	mov	r2,r4
  805c28:	dfc00517 	ldw	ra,20(sp)
  805c2c:	dc000417 	ldw	r16,16(sp)
  805c30:	dc400317 	ldw	r17,12(sp)
  805c34:	dc800217 	ldw	r18,8(sp)
  805c38:	dcc00117 	ldw	r19,4(sp)
  805c3c:	dd000017 	ldw	r20,0(sp)
  805c40:	dec00604 	addi	sp,sp,24
  805c44:	f800283a 	ret

00805c48 <_hi0bits>:
  805c48:	20bfffec 	andhi	r2,r4,65535
  805c4c:	0007883a 	mov	r3,zero
  805c50:	1000021e 	bne	r2,zero,805c5c <_hi0bits+0x14>
  805c54:	2008943a 	slli	r4,r4,16
  805c58:	00c00404 	movi	r3,16
  805c5c:	20bfc02c 	andhi	r2,r4,65280
  805c60:	1000021e 	bne	r2,zero,805c6c <_hi0bits+0x24>
  805c64:	2008923a 	slli	r4,r4,8
  805c68:	18c00204 	addi	r3,r3,8
  805c6c:	20bc002c 	andhi	r2,r4,61440
  805c70:	1000021e 	bne	r2,zero,805c7c <_hi0bits+0x34>
  805c74:	2008913a 	slli	r4,r4,4
  805c78:	18c00104 	addi	r3,r3,4
  805c7c:	20b0002c 	andhi	r2,r4,49152
  805c80:	1000021e 	bne	r2,zero,805c8c <_hi0bits+0x44>
  805c84:	200890ba 	slli	r4,r4,2
  805c88:	18c00084 	addi	r3,r3,2
  805c8c:	20000416 	blt	r4,zero,805ca0 <_hi0bits+0x58>
  805c90:	2090002c 	andhi	r2,r4,16384
  805c94:	18c00044 	addi	r3,r3,1
  805c98:	01000804 	movi	r4,32
  805c9c:	10000126 	beq	r2,zero,805ca4 <_hi0bits+0x5c>
  805ca0:	1809883a 	mov	r4,r3
  805ca4:	2005883a 	mov	r2,r4
  805ca8:	f800283a 	ret

00805cac <_lo0bits>:
  805cac:	20c00017 	ldw	r3,0(r4)
  805cb0:	188001cc 	andi	r2,r3,7
  805cb4:	10000a26 	beq	r2,zero,805ce0 <_lo0bits+0x34>
  805cb8:	1880004c 	andi	r2,r3,1
  805cbc:	000b883a 	mov	r5,zero
  805cc0:	1000051e 	bne	r2,zero,805cd8 <_lo0bits+0x2c>
  805cc4:	1880008c 	andi	r2,r3,2
  805cc8:	10002126 	beq	r2,zero,805d50 <_lo0bits+0xa4>
  805ccc:	1804d07a 	srli	r2,r3,1
  805cd0:	01400044 	movi	r5,1
  805cd4:	20800015 	stw	r2,0(r4)
  805cd8:	2805883a 	mov	r2,r5
  805cdc:	f800283a 	ret
  805ce0:	18bfffcc 	andi	r2,r3,65535
  805ce4:	000d883a 	mov	r6,zero
  805ce8:	10001626 	beq	r2,zero,805d44 <_lo0bits+0x98>
  805cec:	18803fcc 	andi	r2,r3,255
  805cf0:	1000021e 	bne	r2,zero,805cfc <_lo0bits+0x50>
  805cf4:	1806d23a 	srli	r3,r3,8
  805cf8:	31800204 	addi	r6,r6,8
  805cfc:	188003cc 	andi	r2,r3,15
  805d00:	1000021e 	bne	r2,zero,805d0c <_lo0bits+0x60>
  805d04:	1806d13a 	srli	r3,r3,4
  805d08:	31800104 	addi	r6,r6,4
  805d0c:	188000cc 	andi	r2,r3,3
  805d10:	1000021e 	bne	r2,zero,805d1c <_lo0bits+0x70>
  805d14:	1806d0ba 	srli	r3,r3,2
  805d18:	31800084 	addi	r6,r6,2
  805d1c:	1880004c 	andi	r2,r3,1
  805d20:	1000041e 	bne	r2,zero,805d34 <_lo0bits+0x88>
  805d24:	1806d07a 	srli	r3,r3,1
  805d28:	31800044 	addi	r6,r6,1
  805d2c:	01400804 	movi	r5,32
  805d30:	183fe926 	beq	r3,zero,805cd8 <_lo0bits+0x2c>
  805d34:	300b883a 	mov	r5,r6
  805d38:	2805883a 	mov	r2,r5
  805d3c:	20c00015 	stw	r3,0(r4)
  805d40:	f800283a 	ret
  805d44:	1806d43a 	srli	r3,r3,16
  805d48:	01800404 	movi	r6,16
  805d4c:	003fe706 	br	805cec <_lo0bits+0x40>
  805d50:	1804d0ba 	srli	r2,r3,2
  805d54:	01400084 	movi	r5,2
  805d58:	20800015 	stw	r2,0(r4)
  805d5c:	003fde06 	br	805cd8 <_lo0bits+0x2c>

00805d60 <_i2b>:
  805d60:	defffd04 	addi	sp,sp,-12
  805d64:	dc000115 	stw	r16,4(sp)
  805d68:	04000044 	movi	r16,1
  805d6c:	dc800015 	stw	r18,0(sp)
  805d70:	2825883a 	mov	r18,r5
  805d74:	800b883a 	mov	r5,r16
  805d78:	dfc00215 	stw	ra,8(sp)
  805d7c:	08059540 	call	805954 <_Balloc>
  805d80:	14000415 	stw	r16,16(r2)
  805d84:	14800515 	stw	r18,20(r2)
  805d88:	dfc00217 	ldw	ra,8(sp)
  805d8c:	dc000117 	ldw	r16,4(sp)
  805d90:	dc800017 	ldw	r18,0(sp)
  805d94:	dec00304 	addi	sp,sp,12
  805d98:	f800283a 	ret

00805d9c <_multiply>:
  805d9c:	deffee04 	addi	sp,sp,-72
  805da0:	dc000f15 	stw	r16,60(sp)
  805da4:	dfc01115 	stw	ra,68(sp)
  805da8:	df001015 	stw	fp,64(sp)
  805dac:	dc400e15 	stw	r17,56(sp)
  805db0:	dc800d15 	stw	r18,52(sp)
  805db4:	dcc00c15 	stw	r19,48(sp)
  805db8:	dd000b15 	stw	r20,44(sp)
  805dbc:	dd400a15 	stw	r21,40(sp)
  805dc0:	dd800915 	stw	r22,36(sp)
  805dc4:	ddc00815 	stw	r23,32(sp)
  805dc8:	2c800417 	ldw	r18,16(r5)
  805dcc:	34400417 	ldw	r17,16(r6)
  805dd0:	2821883a 	mov	r16,r5
  805dd4:	9440050e 	bge	r18,r17,805dec <_multiply+0x50>
  805dd8:	8825883a 	mov	r18,r17
  805ddc:	2c400417 	ldw	r17,16(r5)
  805de0:	3021883a 	mov	r16,r6
  805de4:	d9400015 	stw	r5,0(sp)
  805de8:	280d883a 	mov	r6,r5
  805dec:	80800217 	ldw	r2,8(r16)
  805df0:	9447883a 	add	r3,r18,r17
  805df4:	d8c00115 	stw	r3,4(sp)
  805df8:	81400117 	ldw	r5,4(r16)
  805dfc:	10c0010e 	bge	r2,r3,805e04 <_multiply+0x68>
  805e00:	29400044 	addi	r5,r5,1
  805e04:	d9800715 	stw	r6,28(sp)
  805e08:	08059540 	call	805954 <_Balloc>
  805e0c:	d8800015 	stw	r2,0(sp)
  805e10:	d8800117 	ldw	r2,4(sp)
  805e14:	d8c00017 	ldw	r3,0(sp)
  805e18:	d9800717 	ldw	r6,28(sp)
  805e1c:	100490ba 	slli	r2,r2,2
  805e20:	18c00504 	addi	r3,r3,20
  805e24:	d8c00615 	stw	r3,24(sp)
  805e28:	d8800515 	stw	r2,20(sp)
  805e2c:	10c5883a 	add	r2,r2,r3
  805e30:	1827883a 	mov	r19,r3
  805e34:	d8800215 	stw	r2,8(sp)
  805e38:	1880042e 	bgeu	r3,r2,805e4c <_multiply+0xb0>
  805e3c:	d8c00217 	ldw	r3,8(sp)
  805e40:	98000015 	stw	zero,0(r19)
  805e44:	9cc00104 	addi	r19,r19,4
  805e48:	98fffc36 	bltu	r19,r3,805e3c <_multiply+0xa0>
  805e4c:	880490ba 	slli	r2,r17,2
  805e50:	900690ba 	slli	r3,r18,2
  805e54:	35c00504 	addi	r23,r6,20
  805e58:	15c5883a 	add	r2,r2,r23
  805e5c:	84000504 	addi	r16,r16,20
  805e60:	d8800315 	stw	r2,12(sp)
  805e64:	1c39883a 	add	fp,r3,r16
  805e68:	d8800617 	ldw	r2,24(sp)
  805e6c:	d8c00317 	ldw	r3,12(sp)
  805e70:	dc000215 	stw	r16,8(sp)
  805e74:	d8800415 	stw	r2,16(sp)
  805e78:	b8c0402e 	bgeu	r23,r3,805f7c <_multiply+0x1e0>
  805e7c:	b8800017 	ldw	r2,0(r23)
  805e80:	15bfffcc 	andi	r22,r2,65535
  805e84:	b0001a26 	beq	r22,zero,805ef0 <_multiply+0x154>
  805e88:	dcc00217 	ldw	r19,8(sp)
  805e8c:	dc800417 	ldw	r18,16(sp)
  805e90:	002b883a 	mov	r21,zero
  805e94:	9c400017 	ldw	r17,0(r19)
  805e98:	b00b883a 	mov	r5,r22
  805e9c:	9cc00104 	addi	r19,r19,4
  805ea0:	893fffcc 	andi	r4,r17,65535
  805ea4:	08007a40 	call	8007a4 <__mulsi3>
  805ea8:	94000017 	ldw	r16,0(r18)
  805eac:	8808d43a 	srli	r4,r17,16
  805eb0:	b00b883a 	mov	r5,r22
  805eb4:	80ffffcc 	andi	r3,r16,65535
  805eb8:	10c5883a 	add	r2,r2,r3
  805ebc:	1563883a 	add	r17,r2,r21
  805ec0:	8020d43a 	srli	r16,r16,16
  805ec4:	882ad43a 	srli	r21,r17,16
  805ec8:	08007a40 	call	8007a4 <__mulsi3>
  805ecc:	1405883a 	add	r2,r2,r16
  805ed0:	9440000d 	sth	r17,0(r18)
  805ed4:	1563883a 	add	r17,r2,r21
  805ed8:	9440008d 	sth	r17,2(r18)
  805edc:	882ad43a 	srli	r21,r17,16
  805ee0:	94800104 	addi	r18,r18,4
  805ee4:	9f3feb36 	bltu	r19,fp,805e94 <_multiply+0xf8>
  805ee8:	95400015 	stw	r21,0(r18)
  805eec:	b8800017 	ldw	r2,0(r23)
  805ef0:	102cd43a 	srli	r22,r2,16
  805ef4:	b0001b26 	beq	r22,zero,805f64 <_multiply+0x1c8>
  805ef8:	dc800417 	ldw	r18,16(sp)
  805efc:	dcc00217 	ldw	r19,8(sp)
  805f00:	002b883a 	mov	r21,zero
  805f04:	94400017 	ldw	r17,0(r18)
  805f08:	8829883a 	mov	r20,r17
  805f0c:	9c000017 	ldw	r16,0(r19)
  805f10:	b00b883a 	mov	r5,r22
  805f14:	9cc00104 	addi	r19,r19,4
  805f18:	813fffcc 	andi	r4,r16,65535
  805f1c:	08007a40 	call	8007a4 <__mulsi3>
  805f20:	a006d43a 	srli	r3,r20,16
  805f24:	8008d43a 	srli	r4,r16,16
  805f28:	9440000d 	sth	r17,0(r18)
  805f2c:	10c5883a 	add	r2,r2,r3
  805f30:	1563883a 	add	r17,r2,r21
  805f34:	9440008d 	sth	r17,2(r18)
  805f38:	b00b883a 	mov	r5,r22
  805f3c:	94800104 	addi	r18,r18,4
  805f40:	08007a40 	call	8007a4 <__mulsi3>
  805f44:	95000017 	ldw	r20,0(r18)
  805f48:	882ad43a 	srli	r21,r17,16
  805f4c:	a0ffffcc 	andi	r3,r20,65535
  805f50:	10c5883a 	add	r2,r2,r3
  805f54:	1563883a 	add	r17,r2,r21
  805f58:	882ad43a 	srli	r21,r17,16
  805f5c:	9f3feb36 	bltu	r19,fp,805f0c <_multiply+0x170>
  805f60:	94400015 	stw	r17,0(r18)
  805f64:	d8800417 	ldw	r2,16(sp)
  805f68:	bdc00104 	addi	r23,r23,4
  805f6c:	10800104 	addi	r2,r2,4
  805f70:	d8800415 	stw	r2,16(sp)
  805f74:	d8c00317 	ldw	r3,12(sp)
  805f78:	b8ffc036 	bltu	r23,r3,805e7c <_multiply+0xe0>
  805f7c:	d8800517 	ldw	r2,20(sp)
  805f80:	d8c00617 	ldw	r3,24(sp)
  805f84:	10e5883a 	add	r18,r2,r3
  805f88:	d8800117 	ldw	r2,4(sp)
  805f8c:	0080080e 	bge	zero,r2,805fb0 <_multiply+0x214>
  805f90:	94bfff04 	addi	r18,r18,-4
  805f94:	90800017 	ldw	r2,0(r18)
  805f98:	1000051e 	bne	r2,zero,805fb0 <_multiply+0x214>
  805f9c:	d8c00117 	ldw	r3,4(sp)
  805fa0:	94bfff04 	addi	r18,r18,-4
  805fa4:	18ffffc4 	addi	r3,r3,-1
  805fa8:	d8c00115 	stw	r3,4(sp)
  805fac:	00fff916 	blt	zero,r3,805f94 <_multiply+0x1f8>
  805fb0:	d8800117 	ldw	r2,4(sp)
  805fb4:	d8c00017 	ldw	r3,0(sp)
  805fb8:	18800415 	stw	r2,16(r3)
  805fbc:	1805883a 	mov	r2,r3
  805fc0:	dfc01117 	ldw	ra,68(sp)
  805fc4:	df001017 	ldw	fp,64(sp)
  805fc8:	dc000f17 	ldw	r16,60(sp)
  805fcc:	dc400e17 	ldw	r17,56(sp)
  805fd0:	dc800d17 	ldw	r18,52(sp)
  805fd4:	dcc00c17 	ldw	r19,48(sp)
  805fd8:	dd000b17 	ldw	r20,44(sp)
  805fdc:	dd400a17 	ldw	r21,40(sp)
  805fe0:	dd800917 	ldw	r22,36(sp)
  805fe4:	ddc00817 	ldw	r23,32(sp)
  805fe8:	dec01204 	addi	sp,sp,72
  805fec:	f800283a 	ret

00805ff0 <_pow5mult>:
  805ff0:	defffa04 	addi	sp,sp,-24
  805ff4:	308000cc 	andi	r2,r6,3
  805ff8:	dc800215 	stw	r18,8(sp)
  805ffc:	dcc00115 	stw	r19,4(sp)
  806000:	dd000015 	stw	r20,0(sp)
  806004:	dfc00515 	stw	ra,20(sp)
  806008:	dc000415 	stw	r16,16(sp)
  80600c:	dc400315 	stw	r17,12(sp)
  806010:	3025883a 	mov	r18,r6
  806014:	2027883a 	mov	r19,r4
  806018:	2829883a 	mov	r20,r5
  80601c:	10002a1e 	bne	r2,zero,8060c8 <_pow5mult+0xd8>
  806020:	9025d0ba 	srai	r18,r18,2
  806024:	90001f26 	beq	r18,zero,8060a4 <_pow5mult+0xb4>
  806028:	9c001217 	ldw	r16,72(r19)
  80602c:	80003426 	beq	r16,zero,806100 <_pow5mult+0x110>
  806030:	9080004c 	andi	r2,r18,1
  806034:	800d883a 	mov	r6,r16
  806038:	9809883a 	mov	r4,r19
  80603c:	a00b883a 	mov	r5,r20
  806040:	9025d07a 	srai	r18,r18,1
  806044:	10000d1e 	bne	r2,zero,80607c <_pow5mult+0x8c>
  806048:	800b883a 	mov	r5,r16
  80604c:	800d883a 	mov	r6,r16
  806050:	9809883a 	mov	r4,r19
  806054:	90001326 	beq	r18,zero,8060a4 <_pow5mult+0xb4>
  806058:	80800017 	ldw	r2,0(r16)
  80605c:	10002326 	beq	r2,zero,8060ec <_pow5mult+0xfc>
  806060:	1021883a 	mov	r16,r2
  806064:	9080004c 	andi	r2,r18,1
  806068:	800d883a 	mov	r6,r16
  80606c:	9809883a 	mov	r4,r19
  806070:	a00b883a 	mov	r5,r20
  806074:	9025d07a 	srai	r18,r18,1
  806078:	103ff326 	beq	r2,zero,806048 <_pow5mult+0x58>
  80607c:	0805d9c0 	call	805d9c <_multiply>
  806080:	a00b883a 	mov	r5,r20
  806084:	9809883a 	mov	r4,r19
  806088:	1023883a 	mov	r17,r2
  80608c:	0805a040 	call	805a04 <_Bfree>
  806090:	8829883a 	mov	r20,r17
  806094:	800b883a 	mov	r5,r16
  806098:	800d883a 	mov	r6,r16
  80609c:	9809883a 	mov	r4,r19
  8060a0:	903fed1e 	bne	r18,zero,806058 <_pow5mult+0x68>
  8060a4:	a005883a 	mov	r2,r20
  8060a8:	dfc00517 	ldw	ra,20(sp)
  8060ac:	dc000417 	ldw	r16,16(sp)
  8060b0:	dc400317 	ldw	r17,12(sp)
  8060b4:	dc800217 	ldw	r18,8(sp)
  8060b8:	dcc00117 	ldw	r19,4(sp)
  8060bc:	dd000017 	ldw	r20,0(sp)
  8060c0:	dec00604 	addi	sp,sp,24
  8060c4:	f800283a 	ret
  8060c8:	100490ba 	slli	r2,r2,2
  8060cc:	00c02074 	movhi	r3,129
  8060d0:	18c15604 	addi	r3,r3,1368
  8060d4:	000f883a 	mov	r7,zero
  8060d8:	10c5883a 	add	r2,r2,r3
  8060dc:	11800017 	ldw	r6,0(r2)
  8060e0:	0805a280 	call	805a28 <_multadd>
  8060e4:	1029883a 	mov	r20,r2
  8060e8:	003fcd06 	br	806020 <_pow5mult+0x30>
  8060ec:	0805d9c0 	call	805d9c <_multiply>
  8060f0:	80800015 	stw	r2,0(r16)
  8060f4:	1021883a 	mov	r16,r2
  8060f8:	10000015 	stw	zero,0(r2)
  8060fc:	003fd906 	br	806064 <_pow5mult+0x74>
  806100:	9809883a 	mov	r4,r19
  806104:	01409c44 	movi	r5,625
  806108:	0805d600 	call	805d60 <_i2b>
  80610c:	98801215 	stw	r2,72(r19)
  806110:	1021883a 	mov	r16,r2
  806114:	10000015 	stw	zero,0(r2)
  806118:	003fc506 	br	806030 <_pow5mult+0x40>

0080611c <_lshift>:
  80611c:	defff904 	addi	sp,sp,-28
  806120:	dc000515 	stw	r16,20(sp)
  806124:	dc400415 	stw	r17,16(sp)
  806128:	dc800315 	stw	r18,12(sp)
  80612c:	dcc00215 	stw	r19,8(sp)
  806130:	dd400015 	stw	r21,0(sp)
  806134:	dfc00615 	stw	ra,24(sp)
  806138:	dd000115 	stw	r20,4(sp)
  80613c:	28800417 	ldw	r2,16(r5)
  806140:	3021d17a 	srai	r16,r6,5
  806144:	28c00217 	ldw	r3,8(r5)
  806148:	2827883a 	mov	r19,r5
  80614c:	1405883a 	add	r2,r2,r16
  806150:	14800044 	addi	r18,r2,1
  806154:	3023883a 	mov	r17,r6
  806158:	202b883a 	mov	r21,r4
  80615c:	29400117 	ldw	r5,4(r5)
  806160:	1c80030e 	bge	r3,r18,806170 <_lshift+0x54>
  806164:	18c7883a 	add	r3,r3,r3
  806168:	29400044 	addi	r5,r5,1
  80616c:	1cbffd16 	blt	r3,r18,806164 <_lshift+0x48>
  806170:	a809883a 	mov	r4,r21
  806174:	08059540 	call	805954 <_Balloc>
  806178:	1029883a 	mov	r20,r2
  80617c:	11800504 	addi	r6,r2,20
  806180:	0007883a 	mov	r3,zero
  806184:	0400040e 	bge	zero,r16,806198 <_lshift+0x7c>
  806188:	18c00044 	addi	r3,r3,1
  80618c:	30000015 	stw	zero,0(r6)
  806190:	31800104 	addi	r6,r6,4
  806194:	1c3ffc16 	blt	r3,r16,806188 <_lshift+0x6c>
  806198:	98800417 	ldw	r2,16(r19)
  80619c:	99000504 	addi	r4,r19,20
  8061a0:	8c4007cc 	andi	r17,r17,31
  8061a4:	100490ba 	slli	r2,r2,2
  8061a8:	110f883a 	add	r7,r2,r4
  8061ac:	88001e26 	beq	r17,zero,806228 <_lshift+0x10c>
  8061b0:	00800804 	movi	r2,32
  8061b4:	144bc83a 	sub	r5,r2,r17
  8061b8:	0007883a 	mov	r3,zero
  8061bc:	20800017 	ldw	r2,0(r4)
  8061c0:	1444983a 	sll	r2,r2,r17
  8061c4:	10c4b03a 	or	r2,r2,r3
  8061c8:	30800015 	stw	r2,0(r6)
  8061cc:	20c00017 	ldw	r3,0(r4)
  8061d0:	21000104 	addi	r4,r4,4
  8061d4:	31800104 	addi	r6,r6,4
  8061d8:	1946d83a 	srl	r3,r3,r5
  8061dc:	21fff736 	bltu	r4,r7,8061bc <_lshift+0xa0>
  8061e0:	30c00015 	stw	r3,0(r6)
  8061e4:	18000126 	beq	r3,zero,8061ec <_lshift+0xd0>
  8061e8:	94800044 	addi	r18,r18,1
  8061ec:	90bfffc4 	addi	r2,r18,-1
  8061f0:	a0800415 	stw	r2,16(r20)
  8061f4:	a809883a 	mov	r4,r21
  8061f8:	980b883a 	mov	r5,r19
  8061fc:	0805a040 	call	805a04 <_Bfree>
  806200:	a005883a 	mov	r2,r20
  806204:	dfc00617 	ldw	ra,24(sp)
  806208:	dc000517 	ldw	r16,20(sp)
  80620c:	dc400417 	ldw	r17,16(sp)
  806210:	dc800317 	ldw	r18,12(sp)
  806214:	dcc00217 	ldw	r19,8(sp)
  806218:	dd000117 	ldw	r20,4(sp)
  80621c:	dd400017 	ldw	r21,0(sp)
  806220:	dec00704 	addi	sp,sp,28
  806224:	f800283a 	ret
  806228:	20800017 	ldw	r2,0(r4)
  80622c:	21000104 	addi	r4,r4,4
  806230:	30800015 	stw	r2,0(r6)
  806234:	31800104 	addi	r6,r6,4
  806238:	21ffec2e 	bgeu	r4,r7,8061ec <_lshift+0xd0>
  80623c:	20800017 	ldw	r2,0(r4)
  806240:	21000104 	addi	r4,r4,4
  806244:	30800015 	stw	r2,0(r6)
  806248:	31800104 	addi	r6,r6,4
  80624c:	21fff636 	bltu	r4,r7,806228 <_lshift+0x10c>
  806250:	003fe606 	br	8061ec <_lshift+0xd0>

00806254 <__mcmp>:
  806254:	20800417 	ldw	r2,16(r4)
  806258:	28c00417 	ldw	r3,16(r5)
  80625c:	10c5c83a 	sub	r2,r2,r3
  806260:	100d883a 	mov	r6,r2
  806264:	10000c1e 	bne	r2,zero,806298 <__mcmp+0x44>
  806268:	180690ba 	slli	r3,r3,2
  80626c:	21000504 	addi	r4,r4,20
  806270:	28800504 	addi	r2,r5,20
  806274:	1885883a 	add	r2,r3,r2
  806278:	1907883a 	add	r3,r3,r4
  80627c:	18ffff04 	addi	r3,r3,-4
  806280:	10bfff04 	addi	r2,r2,-4
  806284:	19800017 	ldw	r6,0(r3)
  806288:	11400017 	ldw	r5,0(r2)
  80628c:	3140041e 	bne	r6,r5,8062a0 <__mcmp+0x4c>
  806290:	20fffa36 	bltu	r4,r3,80627c <__mcmp+0x28>
  806294:	000d883a 	mov	r6,zero
  806298:	3005883a 	mov	r2,r6
  80629c:	f800283a 	ret
  8062a0:	00bfffc4 	movi	r2,-1
  8062a4:	31400136 	bltu	r6,r5,8062ac <__mcmp+0x58>
  8062a8:	00800044 	movi	r2,1
  8062ac:	100d883a 	mov	r6,r2
  8062b0:	3005883a 	mov	r2,r6
  8062b4:	f800283a 	ret

008062b8 <__mdiff>:
  8062b8:	defffb04 	addi	sp,sp,-20
  8062bc:	dc400215 	stw	r17,8(sp)
  8062c0:	2823883a 	mov	r17,r5
  8062c4:	dcc00015 	stw	r19,0(sp)
  8062c8:	300b883a 	mov	r5,r6
  8062cc:	2027883a 	mov	r19,r4
  8062d0:	8809883a 	mov	r4,r17
  8062d4:	dc800115 	stw	r18,4(sp)
  8062d8:	dfc00415 	stw	ra,16(sp)
  8062dc:	dc000315 	stw	r16,12(sp)
  8062e0:	3025883a 	mov	r18,r6
  8062e4:	08062540 	call	806254 <__mcmp>
  8062e8:	10004026 	beq	r2,zero,8063ec <__mdiff+0x134>
  8062ec:	10004e16 	blt	r2,zero,806428 <__mdiff+0x170>
  8062f0:	0021883a 	mov	r16,zero
  8062f4:	89400117 	ldw	r5,4(r17)
  8062f8:	9809883a 	mov	r4,r19
  8062fc:	08059540 	call	805954 <_Balloc>
  806300:	1019883a 	mov	r12,r2
  806304:	8a800417 	ldw	r10,16(r17)
  806308:	90800417 	ldw	r2,16(r18)
  80630c:	8a000504 	addi	r8,r17,20
  806310:	500690ba 	slli	r3,r10,2
  806314:	100490ba 	slli	r2,r2,2
  806318:	91800504 	addi	r6,r18,20
  80631c:	64000315 	stw	r16,12(r12)
  806320:	1a1b883a 	add	r13,r3,r8
  806324:	1197883a 	add	r11,r2,r6
  806328:	61c00504 	addi	r7,r12,20
  80632c:	0013883a 	mov	r9,zero
  806330:	41000017 	ldw	r4,0(r8)
  806334:	31400017 	ldw	r5,0(r6)
  806338:	31800104 	addi	r6,r6,4
  80633c:	20bfffcc 	andi	r2,r4,65535
  806340:	28ffffcc 	andi	r3,r5,65535
  806344:	10c5c83a 	sub	r2,r2,r3
  806348:	1245883a 	add	r2,r2,r9
  80634c:	2008d43a 	srli	r4,r4,16
  806350:	280ad43a 	srli	r5,r5,16
  806354:	1013d43a 	srai	r9,r2,16
  806358:	3880000d 	sth	r2,0(r7)
  80635c:	2149c83a 	sub	r4,r4,r5
  806360:	2247883a 	add	r3,r4,r9
  806364:	38c0008d 	sth	r3,2(r7)
  806368:	42000104 	addi	r8,r8,4
  80636c:	39c00104 	addi	r7,r7,4
  806370:	1813d43a 	srai	r9,r3,16
  806374:	32ffee36 	bltu	r6,r11,806330 <__mdiff+0x78>
  806378:	43400c2e 	bgeu	r8,r13,8063ac <__mdiff+0xf4>
  80637c:	40c00017 	ldw	r3,0(r8)
  806380:	42000104 	addi	r8,r8,4
  806384:	18bfffcc 	andi	r2,r3,65535
  806388:	1245883a 	add	r2,r2,r9
  80638c:	1013d43a 	srai	r9,r2,16
  806390:	1806d43a 	srli	r3,r3,16
  806394:	3880000d 	sth	r2,0(r7)
  806398:	1a47883a 	add	r3,r3,r9
  80639c:	38c0008d 	sth	r3,2(r7)
  8063a0:	1813d43a 	srai	r9,r3,16
  8063a4:	39c00104 	addi	r7,r7,4
  8063a8:	437ff436 	bltu	r8,r13,80637c <__mdiff+0xc4>
  8063ac:	39ffff04 	addi	r7,r7,-4
  8063b0:	38800017 	ldw	r2,0(r7)
  8063b4:	1000041e 	bne	r2,zero,8063c8 <__mdiff+0x110>
  8063b8:	39ffff04 	addi	r7,r7,-4
  8063bc:	38800017 	ldw	r2,0(r7)
  8063c0:	52bfffc4 	addi	r10,r10,-1
  8063c4:	103ffc26 	beq	r2,zero,8063b8 <__mdiff+0x100>
  8063c8:	6005883a 	mov	r2,r12
  8063cc:	62800415 	stw	r10,16(r12)
  8063d0:	dfc00417 	ldw	ra,16(sp)
  8063d4:	dc000317 	ldw	r16,12(sp)
  8063d8:	dc400217 	ldw	r17,8(sp)
  8063dc:	dc800117 	ldw	r18,4(sp)
  8063e0:	dcc00017 	ldw	r19,0(sp)
  8063e4:	dec00504 	addi	sp,sp,20
  8063e8:	f800283a 	ret
  8063ec:	9809883a 	mov	r4,r19
  8063f0:	000b883a 	mov	r5,zero
  8063f4:	08059540 	call	805954 <_Balloc>
  8063f8:	1019883a 	mov	r12,r2
  8063fc:	00800044 	movi	r2,1
  806400:	60800415 	stw	r2,16(r12)
  806404:	6005883a 	mov	r2,r12
  806408:	60000515 	stw	zero,20(r12)
  80640c:	dfc00417 	ldw	ra,16(sp)
  806410:	dc000317 	ldw	r16,12(sp)
  806414:	dc400217 	ldw	r17,8(sp)
  806418:	dc800117 	ldw	r18,4(sp)
  80641c:	dcc00017 	ldw	r19,0(sp)
  806420:	dec00504 	addi	sp,sp,20
  806424:	f800283a 	ret
  806428:	8819883a 	mov	r12,r17
  80642c:	04000044 	movi	r16,1
  806430:	9023883a 	mov	r17,r18
  806434:	6025883a 	mov	r18,r12
  806438:	003fae06 	br	8062f4 <__mdiff+0x3c>

0080643c <_ulp>:
  80643c:	295ffc2c 	andhi	r5,r5,32752
  806440:	013f3034 	movhi	r4,64704
  806444:	21000004 	addi	r4,r4,0
  806448:	290b883a 	add	r5,r5,r4
  80644c:	0145c83a 	sub	r2,zero,r5
  806450:	000d883a 	mov	r6,zero
  806454:	280f883a 	mov	r7,r5
  806458:	0140030e 	bge	zero,r5,806468 <_ulp+0x2c>
  80645c:	3005883a 	mov	r2,r6
  806460:	3807883a 	mov	r3,r7
  806464:	f800283a 	ret
  806468:	100bd53a 	srai	r5,r2,20
  80646c:	008004c4 	movi	r2,19
  806470:	01000044 	movi	r4,1
  806474:	11400c0e 	bge	r2,r5,8064a8 <_ulp+0x6c>
  806478:	008007c4 	movi	r2,31
  80647c:	297ffb04 	addi	r5,r5,-20
  806480:	1147c83a 	sub	r3,r2,r5
  806484:	00800784 	movi	r2,30
  806488:	000f883a 	mov	r7,zero
  80648c:	11400216 	blt	r2,r5,806498 <_ulp+0x5c>
  806490:	00800044 	movi	r2,1
  806494:	10c8983a 	sll	r4,r2,r3
  806498:	200d883a 	mov	r6,r4
  80649c:	3005883a 	mov	r2,r6
  8064a0:	3807883a 	mov	r3,r7
  8064a4:	f800283a 	ret
  8064a8:	00800234 	movhi	r2,8
  8064ac:	10800004 	addi	r2,r2,0
  8064b0:	114fd83a 	sra	r7,r2,r5
  8064b4:	000d883a 	mov	r6,zero
  8064b8:	3005883a 	mov	r2,r6
  8064bc:	3807883a 	mov	r3,r7
  8064c0:	f800283a 	ret

008064c4 <_b2d>:
  8064c4:	defff904 	addi	sp,sp,-28
  8064c8:	dc000515 	stw	r16,20(sp)
  8064cc:	dc400415 	stw	r17,16(sp)
  8064d0:	dd400015 	stw	r21,0(sp)
  8064d4:	dfc00615 	stw	ra,24(sp)
  8064d8:	dc800315 	stw	r18,12(sp)
  8064dc:	dcc00215 	stw	r19,8(sp)
  8064e0:	dd000115 	stw	r20,4(sp)
  8064e4:	20800417 	ldw	r2,16(r4)
  8064e8:	25400504 	addi	r21,r4,20
  8064ec:	2823883a 	mov	r17,r5
  8064f0:	100490ba 	slli	r2,r2,2
  8064f4:	1561883a 	add	r16,r2,r21
  8064f8:	843fff04 	addi	r16,r16,-4
  8064fc:	85000017 	ldw	r20,0(r16)
  806500:	a009883a 	mov	r4,r20
  806504:	0805c480 	call	805c48 <_hi0bits>
  806508:	100b883a 	mov	r5,r2
  80650c:	00800804 	movi	r2,32
  806510:	1145c83a 	sub	r2,r2,r5
  806514:	00c00284 	movi	r3,10
  806518:	88800015 	stw	r2,0(r17)
  80651c:	1940240e 	bge	r3,r5,8065b0 <_b2d+0xec>
  806520:	0009883a 	mov	r4,zero
  806524:	ac001136 	bltu	r21,r16,80656c <_b2d+0xa8>
  806528:	297ffd44 	addi	r5,r5,-11
  80652c:	28001326 	beq	r5,zero,80657c <_b2d+0xb8>
  806530:	00800804 	movi	r2,32
  806534:	1145c83a 	sub	r2,r2,r5
  806538:	a146983a 	sll	r3,r20,r5
  80653c:	2084d83a 	srl	r2,r4,r2
  806540:	0029883a 	mov	r20,zero
  806544:	1886b03a 	or	r3,r3,r2
  806548:	1ccffc34 	orhi	r19,r3,16368
  80654c:	ac00012e 	bgeu	r21,r16,806554 <_b2d+0x90>
  806550:	853fff17 	ldw	r20,-4(r16)
  806554:	00800804 	movi	r2,32
  806558:	1145c83a 	sub	r2,r2,r5
  80655c:	a084d83a 	srl	r2,r20,r2
  806560:	2146983a 	sll	r3,r4,r5
  806564:	18a4b03a 	or	r18,r3,r2
  806568:	00000606 	br	806584 <_b2d+0xc0>
  80656c:	843fff04 	addi	r16,r16,-4
  806570:	297ffd44 	addi	r5,r5,-11
  806574:	81000017 	ldw	r4,0(r16)
  806578:	283fed1e 	bne	r5,zero,806530 <_b2d+0x6c>
  80657c:	a4cffc34 	orhi	r19,r20,16368
  806580:	2025883a 	mov	r18,r4
  806584:	9005883a 	mov	r2,r18
  806588:	9807883a 	mov	r3,r19
  80658c:	dfc00617 	ldw	ra,24(sp)
  806590:	dc000517 	ldw	r16,20(sp)
  806594:	dc400417 	ldw	r17,16(sp)
  806598:	dc800317 	ldw	r18,12(sp)
  80659c:	dcc00217 	ldw	r19,8(sp)
  8065a0:	dd000117 	ldw	r20,4(sp)
  8065a4:	dd400017 	ldw	r21,0(sp)
  8065a8:	dec00704 	addi	sp,sp,28
  8065ac:	f800283a 	ret
  8065b0:	008002c4 	movi	r2,11
  8065b4:	1145c83a 	sub	r2,r2,r5
  8065b8:	a084d83a 	srl	r2,r20,r2
  8065bc:	0009883a 	mov	r4,zero
  8065c0:	14cffc34 	orhi	r19,r2,16368
  8065c4:	ac00012e 	bgeu	r21,r16,8065cc <_b2d+0x108>
  8065c8:	813fff17 	ldw	r4,-4(r16)
  8065cc:	00c002c4 	movi	r3,11
  8065d0:	1947c83a 	sub	r3,r3,r5
  8065d4:	28800544 	addi	r2,r5,21
  8065d8:	a084983a 	sll	r2,r20,r2
  8065dc:	20c6d83a 	srl	r3,r4,r3
  8065e0:	18a4b03a 	or	r18,r3,r2
  8065e4:	003fe706 	br	806584 <_b2d+0xc0>

008065e8 <_d2b>:
  8065e8:	defff404 	addi	sp,sp,-48
  8065ec:	dd000515 	stw	r20,20(sp)
  8065f0:	05000044 	movi	r20,1
  8065f4:	dc000915 	stw	r16,36(sp)
  8065f8:	2821883a 	mov	r16,r5
  8065fc:	a00b883a 	mov	r5,r20
  806600:	df000a15 	stw	fp,40(sp)
  806604:	dc400815 	stw	r17,32(sp)
  806608:	dc800715 	stw	r18,28(sp)
  80660c:	3023883a 	mov	r17,r6
  806610:	dcc00615 	stw	r19,24(sp)
  806614:	dd400415 	stw	r21,16(sp)
  806618:	dd800315 	stw	r22,12(sp)
  80661c:	ddc00215 	stw	r23,8(sp)
  806620:	dfc00b15 	stw	ra,44(sp)
  806624:	382f883a 	mov	r23,r7
  806628:	df000c17 	ldw	fp,48(sp)
  80662c:	08059540 	call	805954 <_Balloc>
  806630:	1027883a 	mov	r19,r2
  806634:	00e00034 	movhi	r3,32768
  806638:	18ffffc4 	addi	r3,r3,-1
  80663c:	00800434 	movhi	r2,16
  806640:	10bfffc4 	addi	r2,r2,-1
  806644:	8888703a 	and	r4,r17,r2
  806648:	1c62703a 	and	r17,r3,r17
  80664c:	882cd53a 	srli	r22,r17,20
  806650:	9c800504 	addi	r18,r19,20
  806654:	b02b003a 	cmpeq	r21,r22,zero
  806658:	a800011e 	bne	r21,zero,806660 <_d2b+0x78>
  80665c:	21000434 	orhi	r4,r4,16
  806660:	d9000115 	stw	r4,4(sp)
  806664:	80002226 	beq	r16,zero,8066f0 <_d2b+0x108>
  806668:	d809883a 	mov	r4,sp
  80666c:	dc000015 	stw	r16,0(sp)
  806670:	0805cac0 	call	805cac <_lo0bits>
  806674:	100d883a 	mov	r6,r2
  806678:	10002f1e 	bne	r2,zero,806738 <_d2b+0x150>
  80667c:	d8800017 	ldw	r2,0(sp)
  806680:	90800015 	stw	r2,0(r18)
  806684:	d9000117 	ldw	r4,4(sp)
  806688:	2005003a 	cmpeq	r2,r4,zero
  80668c:	00c00084 	movi	r3,2
  806690:	1885c83a 	sub	r2,r3,r2
  806694:	100b883a 	mov	r5,r2
  806698:	91000115 	stw	r4,4(r18)
  80669c:	98800415 	stw	r2,16(r19)
  8066a0:	a8001b1e 	bne	r21,zero,806710 <_d2b+0x128>
  8066a4:	b185883a 	add	r2,r22,r6
  8066a8:	10bef344 	addi	r2,r2,-1075
  8066ac:	00c00d44 	movi	r3,53
  8066b0:	b8800015 	stw	r2,0(r23)
  8066b4:	1987c83a 	sub	r3,r3,r6
  8066b8:	e0c00015 	stw	r3,0(fp)
  8066bc:	9805883a 	mov	r2,r19
  8066c0:	dfc00b17 	ldw	ra,44(sp)
  8066c4:	df000a17 	ldw	fp,40(sp)
  8066c8:	dc000917 	ldw	r16,36(sp)
  8066cc:	dc400817 	ldw	r17,32(sp)
  8066d0:	dc800717 	ldw	r18,28(sp)
  8066d4:	dcc00617 	ldw	r19,24(sp)
  8066d8:	dd000517 	ldw	r20,20(sp)
  8066dc:	dd400417 	ldw	r21,16(sp)
  8066e0:	dd800317 	ldw	r22,12(sp)
  8066e4:	ddc00217 	ldw	r23,8(sp)
  8066e8:	dec00c04 	addi	sp,sp,48
  8066ec:	f800283a 	ret
  8066f0:	d9000104 	addi	r4,sp,4
  8066f4:	0805cac0 	call	805cac <_lo0bits>
  8066f8:	d8c00117 	ldw	r3,4(sp)
  8066fc:	9d000415 	stw	r20,16(r19)
  806700:	a00b883a 	mov	r5,r20
  806704:	90c00015 	stw	r3,0(r18)
  806708:	11800804 	addi	r6,r2,32
  80670c:	a83fe526 	beq	r21,zero,8066a4 <_d2b+0xbc>
  806710:	280490ba 	slli	r2,r5,2
  806714:	30fef384 	addi	r3,r6,-1074
  806718:	2820917a 	slli	r16,r5,5
  80671c:	1485883a 	add	r2,r2,r18
  806720:	113fff17 	ldw	r4,-4(r2)
  806724:	b8c00015 	stw	r3,0(r23)
  806728:	0805c480 	call	805c48 <_hi0bits>
  80672c:	80a1c83a 	sub	r16,r16,r2
  806730:	e4000015 	stw	r16,0(fp)
  806734:	003fe106 	br	8066bc <_d2b+0xd4>
  806738:	00c00804 	movi	r3,32
  80673c:	1887c83a 	sub	r3,r3,r2
  806740:	d8800117 	ldw	r2,4(sp)
  806744:	d9000017 	ldw	r4,0(sp)
  806748:	10c4983a 	sll	r2,r2,r3
  80674c:	1104b03a 	or	r2,r2,r4
  806750:	90800015 	stw	r2,0(r18)
  806754:	d8c00117 	ldw	r3,4(sp)
  806758:	1988d83a 	srl	r4,r3,r6
  80675c:	d9000115 	stw	r4,4(sp)
  806760:	003fc906 	br	806688 <_d2b+0xa0>

00806764 <_ratio>:
  806764:	defff904 	addi	sp,sp,-28
  806768:	dc400515 	stw	r17,20(sp)
  80676c:	2823883a 	mov	r17,r5
  806770:	d80b883a 	mov	r5,sp
  806774:	dfc00615 	stw	ra,24(sp)
  806778:	dc800415 	stw	r18,16(sp)
  80677c:	dcc00315 	stw	r19,12(sp)
  806780:	2025883a 	mov	r18,r4
  806784:	dd000215 	stw	r20,8(sp)
  806788:	08064c40 	call	8064c4 <_b2d>
  80678c:	8809883a 	mov	r4,r17
  806790:	d9400104 	addi	r5,sp,4
  806794:	1027883a 	mov	r19,r2
  806798:	1829883a 	mov	r20,r3
  80679c:	08064c40 	call	8064c4 <_b2d>
  8067a0:	89000417 	ldw	r4,16(r17)
  8067a4:	91c00417 	ldw	r7,16(r18)
  8067a8:	d9800117 	ldw	r6,4(sp)
  8067ac:	1813883a 	mov	r9,r3
  8067b0:	390fc83a 	sub	r7,r7,r4
  8067b4:	1009883a 	mov	r4,r2
  8067b8:	d8800017 	ldw	r2,0(sp)
  8067bc:	380e917a 	slli	r7,r7,5
  8067c0:	2011883a 	mov	r8,r4
  8067c4:	1185c83a 	sub	r2,r2,r6
  8067c8:	11c5883a 	add	r2,r2,r7
  8067cc:	100c953a 	slli	r6,r2,20
  8067d0:	00800d0e 	bge	zero,r2,806808 <_ratio+0xa4>
  8067d4:	3529883a 	add	r20,r6,r20
  8067d8:	a00b883a 	mov	r5,r20
  8067dc:	480f883a 	mov	r7,r9
  8067e0:	9809883a 	mov	r4,r19
  8067e4:	400d883a 	mov	r6,r8
  8067e8:	08088240 	call	808824 <__divdf3>
  8067ec:	dfc00617 	ldw	ra,24(sp)
  8067f0:	dc400517 	ldw	r17,20(sp)
  8067f4:	dc800417 	ldw	r18,16(sp)
  8067f8:	dcc00317 	ldw	r19,12(sp)
  8067fc:	dd000217 	ldw	r20,8(sp)
  806800:	dec00704 	addi	sp,sp,28
  806804:	f800283a 	ret
  806808:	1993c83a 	sub	r9,r3,r6
  80680c:	003ff206 	br	8067d8 <_ratio+0x74>

00806810 <_mprec_log10>:
  806810:	defffe04 	addi	sp,sp,-8
  806814:	008005c4 	movi	r2,23
  806818:	dc000015 	stw	r16,0(sp)
  80681c:	dfc00115 	stw	ra,4(sp)
  806820:	2021883a 	mov	r16,r4
  806824:	0011883a 	mov	r8,zero
  806828:	024ffc34 	movhi	r9,16368
  80682c:	4a400004 	addi	r9,r9,0
  806830:	11000e16 	blt	r2,r4,80686c <_mprec_log10+0x5c>
  806834:	200490fa 	slli	r2,r4,3
  806838:	01402074 	movhi	r5,129
  80683c:	29412504 	addi	r5,r5,1172
  806840:	1145883a 	add	r2,r2,r5
  806844:	10c00017 	ldw	r3,0(r2)
  806848:	11000117 	ldw	r4,4(r2)
  80684c:	180d883a 	mov	r6,r3
  806850:	200f883a 	mov	r7,r4
  806854:	3807883a 	mov	r3,r7
  806858:	3005883a 	mov	r2,r6
  80685c:	dfc00117 	ldw	ra,4(sp)
  806860:	dc000017 	ldw	r16,0(sp)
  806864:	dec00204 	addi	sp,sp,8
  806868:	f800283a 	ret
  80686c:	04000c0e 	bge	zero,r16,8068a0 <_mprec_log10+0x90>
  806870:	0005883a 	mov	r2,zero
  806874:	00d00934 	movhi	r3,16420
  806878:	18c00004 	addi	r3,r3,0
  80687c:	480b883a 	mov	r5,r9
  806880:	4009883a 	mov	r4,r8
  806884:	180f883a 	mov	r7,r3
  806888:	100d883a 	mov	r6,r2
  80688c:	08084240 	call	808424 <__muldf3>
  806890:	843fffc4 	addi	r16,r16,-1
  806894:	1011883a 	mov	r8,r2
  806898:	1813883a 	mov	r9,r3
  80689c:	043ff416 	blt	zero,r16,806870 <_mprec_log10+0x60>
  8068a0:	400d883a 	mov	r6,r8
  8068a4:	480f883a 	mov	r7,r9
  8068a8:	3807883a 	mov	r3,r7
  8068ac:	3005883a 	mov	r2,r6
  8068b0:	dfc00117 	ldw	ra,4(sp)
  8068b4:	dc000017 	ldw	r16,0(sp)
  8068b8:	dec00204 	addi	sp,sp,8
  8068bc:	f800283a 	ret

008068c0 <_realloc_r>:
  8068c0:	defff404 	addi	sp,sp,-48
  8068c4:	dc400815 	stw	r17,32(sp)
  8068c8:	dd800315 	stw	r22,12(sp)
  8068cc:	dfc00b15 	stw	ra,44(sp)
  8068d0:	df000a15 	stw	fp,40(sp)
  8068d4:	dc000915 	stw	r16,36(sp)
  8068d8:	dc800715 	stw	r18,28(sp)
  8068dc:	dcc00615 	stw	r19,24(sp)
  8068e0:	dd000515 	stw	r20,20(sp)
  8068e4:	dd400415 	stw	r21,16(sp)
  8068e8:	ddc00215 	stw	r23,8(sp)
  8068ec:	2823883a 	mov	r17,r5
  8068f0:	202d883a 	mov	r22,r4
  8068f4:	28007826 	beq	r5,zero,806ad8 <_realloc_r+0x218>
  8068f8:	2c3ffe04 	addi	r16,r5,-8
  8068fc:	d9800115 	stw	r6,4(sp)
  806900:	0809b440 	call	809b44 <__malloc_lock>
  806904:	81400117 	ldw	r5,4(r16)
  806908:	d9800117 	ldw	r6,4(sp)
  80690c:	00bfff04 	movi	r2,-4
  806910:	28a4703a 	and	r18,r5,r2
  806914:	30c002c4 	addi	r3,r6,11
  806918:	00800584 	movi	r2,22
  80691c:	8027883a 	mov	r19,r16
  806920:	9013883a 	mov	r9,r18
  806924:	05000404 	movi	r20,16
  806928:	10c05b36 	bltu	r2,r3,806a98 <_realloc_r+0x1d8>
  80692c:	a1805d36 	bltu	r20,r6,806aa4 <_realloc_r+0x1e4>
  806930:	9500a80e 	bge	r18,r20,806bd4 <_realloc_r+0x314>
  806934:	07002074 	movhi	fp,129
  806938:	e701c704 	addi	fp,fp,1820
  80693c:	e2000217 	ldw	r8,8(fp)
  806940:	8489883a 	add	r4,r16,r18
  806944:	e015883a 	mov	r10,fp
  806948:	4100c326 	beq	r8,r4,806c58 <_realloc_r+0x398>
  80694c:	21c00117 	ldw	r7,4(r4)
  806950:	00bfff84 	movi	r2,-2
  806954:	3884703a 	and	r2,r7,r2
  806958:	1105883a 	add	r2,r2,r4
  80695c:	10c00117 	ldw	r3,4(r2)
  806960:	18c0004c 	andi	r3,r3,1
  806964:	1800b91e 	bne	r3,zero,806c4c <_realloc_r+0x38c>
  806968:	00bfff04 	movi	r2,-4
  80696c:	388e703a 	and	r7,r7,r2
  806970:	4100c526 	beq	r8,r4,806c88 <_realloc_r+0x3c8>
  806974:	3c85883a 	add	r2,r7,r18
  806978:	1500bd0e 	bge	r2,r20,806c70 <_realloc_r+0x3b0>
  80697c:	2880004c 	andi	r2,r5,1
  806980:	10000e1e 	bne	r2,zero,8069bc <_realloc_r+0xfc>
  806984:	80800017 	ldw	r2,0(r16)
  806988:	80afc83a 	sub	r23,r16,r2
  80698c:	b8c00117 	ldw	r3,4(r23)
  806990:	00bfff04 	movi	r2,-4
  806994:	188a703a 	and	r5,r3,r2
  806998:	20000526 	beq	r4,zero,8069b0 <_realloc_r+0xf0>
  80699c:	e0800217 	ldw	r2,8(fp)
  8069a0:	1100cf26 	beq	r2,r4,806ce0 <_realloc_r+0x420>
  8069a4:	3945883a 	add	r2,r7,r5
  8069a8:	1485883a 	add	r2,r2,r18
  8069ac:	1500590e 	bge	r2,r20,806b14 <_realloc_r+0x254>
  8069b0:	b8000226 	beq	r23,zero,8069bc <_realloc_r+0xfc>
  8069b4:	2c87883a 	add	r3,r5,r18
  8069b8:	1d00c10e 	bge	r3,r20,806cc0 <_realloc_r+0x400>
  8069bc:	300b883a 	mov	r5,r6
  8069c0:	b009883a 	mov	r4,r22
  8069c4:	08007f40 	call	8007f4 <_malloc_r>
  8069c8:	102b883a 	mov	r21,r2
  8069cc:	10010d26 	beq	r2,zero,806e04 <_realloc_r+0x544>
  8069d0:	98800117 	ldw	r2,4(r19)
  8069d4:	00ffff84 	movi	r3,-2
  8069d8:	ac3ffe04 	addi	r16,r21,-8
  8069dc:	10c4703a 	and	r2,r2,r3
  8069e0:	14c5883a 	add	r2,r2,r19
  8069e4:	8080fd26 	beq	r16,r2,806ddc <_realloc_r+0x51c>
  8069e8:	91bfff04 	addi	r6,r18,-4
  8069ec:	00800904 	movi	r2,36
  8069f0:	11809b36 	bltu	r2,r6,806c60 <_realloc_r+0x3a0>
  8069f4:	008004c4 	movi	r2,19
  8069f8:	880b883a 	mov	r5,r17
  8069fc:	a809883a 	mov	r4,r21
  806a00:	1180162e 	bgeu	r2,r6,806a5c <_realloc_r+0x19c>
  806a04:	88800017 	ldw	r2,0(r17)
  806a08:	89400204 	addi	r5,r17,8
  806a0c:	a9000204 	addi	r4,r21,8
  806a10:	a8800015 	stw	r2,0(r21)
  806a14:	88c00117 	ldw	r3,4(r17)
  806a18:	008006c4 	movi	r2,27
  806a1c:	a8c00115 	stw	r3,4(r21)
  806a20:	11800e2e 	bgeu	r2,r6,806a5c <_realloc_r+0x19c>
  806a24:	28800017 	ldw	r2,0(r5)
  806a28:	89400404 	addi	r5,r17,16
  806a2c:	20800015 	stw	r2,0(r4)
  806a30:	88c00317 	ldw	r3,12(r17)
  806a34:	008008c4 	movi	r2,35
  806a38:	a9000404 	addi	r4,r21,16
  806a3c:	a8c00315 	stw	r3,12(r21)
  806a40:	1180062e 	bgeu	r2,r6,806a5c <_realloc_r+0x19c>
  806a44:	28800017 	ldw	r2,0(r5)
  806a48:	89400604 	addi	r5,r17,24
  806a4c:	20800015 	stw	r2,0(r4)
  806a50:	88c00517 	ldw	r3,20(r17)
  806a54:	a9000604 	addi	r4,r21,24
  806a58:	a8c00515 	stw	r3,20(r21)
  806a5c:	28800017 	ldw	r2,0(r5)
  806a60:	29400104 	addi	r5,r5,4
  806a64:	20800015 	stw	r2,0(r4)
  806a68:	28c00017 	ldw	r3,0(r5)
  806a6c:	21000104 	addi	r4,r4,4
  806a70:	20c00015 	stw	r3,0(r4)
  806a74:	28800117 	ldw	r2,4(r5)
  806a78:	20800115 	stw	r2,4(r4)
  806a7c:	b009883a 	mov	r4,r22
  806a80:	880b883a 	mov	r5,r17
  806a84:	0804d080 	call	804d08 <_free_r>
  806a88:	b009883a 	mov	r4,r22
  806a8c:	0809b600 	call	809b60 <__malloc_unlock>
  806a90:	a805883a 	mov	r2,r21
  806a94:	00000406 	br	806aa8 <_realloc_r+0x1e8>
  806a98:	00bffe04 	movi	r2,-8
  806a9c:	18a8703a 	and	r20,r3,r2
  806aa0:	a03fa20e 	bge	r20,zero,80692c <_realloc_r+0x6c>
  806aa4:	0005883a 	mov	r2,zero
  806aa8:	dfc00b17 	ldw	ra,44(sp)
  806aac:	df000a17 	ldw	fp,40(sp)
  806ab0:	dc000917 	ldw	r16,36(sp)
  806ab4:	dc400817 	ldw	r17,32(sp)
  806ab8:	dc800717 	ldw	r18,28(sp)
  806abc:	dcc00617 	ldw	r19,24(sp)
  806ac0:	dd000517 	ldw	r20,20(sp)
  806ac4:	dd400417 	ldw	r21,16(sp)
  806ac8:	dd800317 	ldw	r22,12(sp)
  806acc:	ddc00217 	ldw	r23,8(sp)
  806ad0:	dec00c04 	addi	sp,sp,48
  806ad4:	f800283a 	ret
  806ad8:	300b883a 	mov	r5,r6
  806adc:	02002034 	movhi	r8,128
  806ae0:	4201fd04 	addi	r8,r8,2036
  806ae4:	dfc00b17 	ldw	ra,44(sp)
  806ae8:	df000a17 	ldw	fp,40(sp)
  806aec:	dc000917 	ldw	r16,36(sp)
  806af0:	dc400817 	ldw	r17,32(sp)
  806af4:	dc800717 	ldw	r18,28(sp)
  806af8:	dcc00617 	ldw	r19,24(sp)
  806afc:	dd000517 	ldw	r20,20(sp)
  806b00:	dd400417 	ldw	r21,16(sp)
  806b04:	dd800317 	ldw	r22,12(sp)
  806b08:	ddc00217 	ldw	r23,8(sp)
  806b0c:	dec00c04 	addi	sp,sp,48
  806b10:	4000683a 	jmp	r8
  806b14:	21400217 	ldw	r5,8(r4)
  806b18:	21000317 	ldw	r4,12(r4)
  806b1c:	b821883a 	mov	r16,r23
  806b20:	49bfff04 	addi	r6,r9,-4
  806b24:	21400215 	stw	r5,8(r4)
  806b28:	29000315 	stw	r4,12(r5)
  806b2c:	b9000317 	ldw	r4,12(r23)
  806b30:	b9400217 	ldw	r5,8(r23)
  806b34:	1025883a 	mov	r18,r2
  806b38:	21400215 	stw	r5,8(r4)
  806b3c:	29000315 	stw	r4,12(r5)
  806b40:	00800904 	movi	r2,36
  806b44:	85400204 	addi	r21,r16,8
  806b48:	1180a036 	bltu	r2,r6,806dcc <_realloc_r+0x50c>
  806b4c:	008004c4 	movi	r2,19
  806b50:	880f883a 	mov	r7,r17
  806b54:	a809883a 	mov	r4,r21
  806b58:	1180162e 	bgeu	r2,r6,806bb4 <_realloc_r+0x2f4>
  806b5c:	88800017 	ldw	r2,0(r17)
  806b60:	89c00204 	addi	r7,r17,8
  806b64:	81000404 	addi	r4,r16,16
  806b68:	a8800015 	stw	r2,0(r21)
  806b6c:	88c00117 	ldw	r3,4(r17)
  806b70:	008006c4 	movi	r2,27
  806b74:	80c00315 	stw	r3,12(r16)
  806b78:	11800e2e 	bgeu	r2,r6,806bb4 <_realloc_r+0x2f4>
  806b7c:	38800017 	ldw	r2,0(r7)
  806b80:	89c00404 	addi	r7,r17,16
  806b84:	20800015 	stw	r2,0(r4)
  806b88:	88c00317 	ldw	r3,12(r17)
  806b8c:	008008c4 	movi	r2,35
  806b90:	81000604 	addi	r4,r16,24
  806b94:	80c00515 	stw	r3,20(r16)
  806b98:	1180062e 	bgeu	r2,r6,806bb4 <_realloc_r+0x2f4>
  806b9c:	38800017 	ldw	r2,0(r7)
  806ba0:	89c00604 	addi	r7,r17,24
  806ba4:	20800015 	stw	r2,0(r4)
  806ba8:	88c00517 	ldw	r3,20(r17)
  806bac:	81000804 	addi	r4,r16,32
  806bb0:	80c00715 	stw	r3,28(r16)
  806bb4:	38800017 	ldw	r2,0(r7)
  806bb8:	39c00104 	addi	r7,r7,4
  806bbc:	20800015 	stw	r2,0(r4)
  806bc0:	38c00017 	ldw	r3,0(r7)
  806bc4:	21000104 	addi	r4,r4,4
  806bc8:	20c00015 	stw	r3,0(r4)
  806bcc:	38800117 	ldw	r2,4(r7)
  806bd0:	20800115 	stw	r2,4(r4)
  806bd4:	950dc83a 	sub	r6,r18,r20
  806bd8:	008003c4 	movi	r2,15
  806bdc:	11800c36 	bltu	r2,r6,806c10 <_realloc_r+0x350>
  806be0:	80800117 	ldw	r2,4(r16)
  806be4:	8489883a 	add	r4,r16,r18
  806be8:	1080004c 	andi	r2,r2,1
  806bec:	1484b03a 	or	r2,r2,r18
  806bf0:	80800115 	stw	r2,4(r16)
  806bf4:	20c00117 	ldw	r3,4(r4)
  806bf8:	18c00054 	ori	r3,r3,1
  806bfc:	20c00115 	stw	r3,4(r4)
  806c00:	b009883a 	mov	r4,r22
  806c04:	0809b600 	call	809b60 <__malloc_unlock>
  806c08:	80800204 	addi	r2,r16,8
  806c0c:	003fa606 	br	806aa8 <_realloc_r+0x1e8>
  806c10:	80800117 	ldw	r2,4(r16)
  806c14:	850b883a 	add	r5,r16,r20
  806c18:	31000054 	ori	r4,r6,1
  806c1c:	1080004c 	andi	r2,r2,1
  806c20:	1504b03a 	or	r2,r2,r20
  806c24:	80800115 	stw	r2,4(r16)
  806c28:	29000115 	stw	r4,4(r5)
  806c2c:	2987883a 	add	r3,r5,r6
  806c30:	18800117 	ldw	r2,4(r3)
  806c34:	29400204 	addi	r5,r5,8
  806c38:	b009883a 	mov	r4,r22
  806c3c:	10800054 	ori	r2,r2,1
  806c40:	18800115 	stw	r2,4(r3)
  806c44:	0804d080 	call	804d08 <_free_r>
  806c48:	003fed06 	br	806c00 <_realloc_r+0x340>
  806c4c:	0009883a 	mov	r4,zero
  806c50:	000f883a 	mov	r7,zero
  806c54:	003f4906 	br	80697c <_realloc_r+0xbc>
  806c58:	21c00117 	ldw	r7,4(r4)
  806c5c:	003f4206 	br	806968 <_realloc_r+0xa8>
  806c60:	a809883a 	mov	r4,r21
  806c64:	880b883a 	mov	r5,r17
  806c68:	08056f40 	call	8056f4 <memcpy>
  806c6c:	003f8306 	br	806a7c <_realloc_r+0x1bc>
  806c70:	21400217 	ldw	r5,8(r4)
  806c74:	21000317 	ldw	r4,12(r4)
  806c78:	1025883a 	mov	r18,r2
  806c7c:	21400215 	stw	r5,8(r4)
  806c80:	29000315 	stw	r4,12(r5)
  806c84:	003fd306 	br	806bd4 <_realloc_r+0x314>
  806c88:	3c87883a 	add	r3,r7,r18
  806c8c:	a0800404 	addi	r2,r20,16
  806c90:	18bf3a16 	blt	r3,r2,80697c <_realloc_r+0xbc>
  806c94:	1d05c83a 	sub	r2,r3,r20
  806c98:	850b883a 	add	r5,r16,r20
  806c9c:	10800054 	ori	r2,r2,1
  806ca0:	28800115 	stw	r2,4(r5)
  806ca4:	80c00117 	ldw	r3,4(r16)
  806ca8:	51400215 	stw	r5,8(r10)
  806cac:	b009883a 	mov	r4,r22
  806cb0:	18c0004c 	andi	r3,r3,1
  806cb4:	1d0ab03a 	or	r5,r3,r20
  806cb8:	81400115 	stw	r5,4(r16)
  806cbc:	003fd106 	br	806c04 <_realloc_r+0x344>
  806cc0:	b9000317 	ldw	r4,12(r23)
  806cc4:	b9400217 	ldw	r5,8(r23)
  806cc8:	b821883a 	mov	r16,r23
  806ccc:	49bfff04 	addi	r6,r9,-4
  806cd0:	1825883a 	mov	r18,r3
  806cd4:	21400215 	stw	r5,8(r4)
  806cd8:	29000315 	stw	r4,12(r5)
  806cdc:	003f9806 	br	806b40 <_realloc_r+0x280>
  806ce0:	3945883a 	add	r2,r7,r5
  806ce4:	1485883a 	add	r2,r2,r18
  806ce8:	a0c00404 	addi	r3,r20,16
  806cec:	d8800015 	stw	r2,0(sp)
  806cf0:	10ff2f16 	blt	r2,r3,8069b0 <_realloc_r+0xf0>
  806cf4:	b9000317 	ldw	r4,12(r23)
  806cf8:	b9400217 	ldw	r5,8(r23)
  806cfc:	49bfff04 	addi	r6,r9,-4
  806d00:	00800904 	movi	r2,36
  806d04:	21400215 	stw	r5,8(r4)
  806d08:	29000315 	stw	r4,12(r5)
  806d0c:	bd400204 	addi	r21,r23,8
  806d10:	11803836 	bltu	r2,r6,806df4 <_realloc_r+0x534>
  806d14:	008004c4 	movi	r2,19
  806d18:	880f883a 	mov	r7,r17
  806d1c:	a809883a 	mov	r4,r21
  806d20:	1180162e 	bgeu	r2,r6,806d7c <_realloc_r+0x4bc>
  806d24:	88800017 	ldw	r2,0(r17)
  806d28:	89c00204 	addi	r7,r17,8
  806d2c:	b9000404 	addi	r4,r23,16
  806d30:	a8800015 	stw	r2,0(r21)
  806d34:	88c00117 	ldw	r3,4(r17)
  806d38:	008006c4 	movi	r2,27
  806d3c:	b8c00315 	stw	r3,12(r23)
  806d40:	11800e2e 	bgeu	r2,r6,806d7c <_realloc_r+0x4bc>
  806d44:	38800017 	ldw	r2,0(r7)
  806d48:	89c00404 	addi	r7,r17,16
  806d4c:	20800015 	stw	r2,0(r4)
  806d50:	88c00317 	ldw	r3,12(r17)
  806d54:	008008c4 	movi	r2,35
  806d58:	b9000604 	addi	r4,r23,24
  806d5c:	b8c00515 	stw	r3,20(r23)
  806d60:	1180062e 	bgeu	r2,r6,806d7c <_realloc_r+0x4bc>
  806d64:	38800017 	ldw	r2,0(r7)
  806d68:	89c00604 	addi	r7,r17,24
  806d6c:	20800015 	stw	r2,0(r4)
  806d70:	88c00517 	ldw	r3,20(r17)
  806d74:	b9000804 	addi	r4,r23,32
  806d78:	b8c00715 	stw	r3,28(r23)
  806d7c:	38800017 	ldw	r2,0(r7)
  806d80:	39c00104 	addi	r7,r7,4
  806d84:	20800015 	stw	r2,0(r4)
  806d88:	38c00017 	ldw	r3,0(r7)
  806d8c:	21000104 	addi	r4,r4,4
  806d90:	20c00015 	stw	r3,0(r4)
  806d94:	38800117 	ldw	r2,4(r7)
  806d98:	20800115 	stw	r2,4(r4)
  806d9c:	d8c00017 	ldw	r3,0(sp)
  806da0:	bd0b883a 	add	r5,r23,r20
  806da4:	b009883a 	mov	r4,r22
  806da8:	1d05c83a 	sub	r2,r3,r20
  806dac:	10800054 	ori	r2,r2,1
  806db0:	28800115 	stw	r2,4(r5)
  806db4:	b8c00117 	ldw	r3,4(r23)
  806db8:	e1400215 	stw	r5,8(fp)
  806dbc:	18c0004c 	andi	r3,r3,1
  806dc0:	1d06b03a 	or	r3,r3,r20
  806dc4:	b8c00115 	stw	r3,4(r23)
  806dc8:	003f3006 	br	806a8c <_realloc_r+0x1cc>
  806dcc:	a809883a 	mov	r4,r21
  806dd0:	880b883a 	mov	r5,r17
  806dd4:	08056f40 	call	8056f4 <memcpy>
  806dd8:	003f7e06 	br	806bd4 <_realloc_r+0x314>
  806ddc:	80800117 	ldw	r2,4(r16)
  806de0:	00ffff04 	movi	r3,-4
  806de4:	9821883a 	mov	r16,r19
  806de8:	10c4703a 	and	r2,r2,r3
  806dec:	90a5883a 	add	r18,r18,r2
  806df0:	003f7806 	br	806bd4 <_realloc_r+0x314>
  806df4:	880b883a 	mov	r5,r17
  806df8:	a809883a 	mov	r4,r21
  806dfc:	08056f40 	call	8056f4 <memcpy>
  806e00:	003fe606 	br	806d9c <_realloc_r+0x4dc>
  806e04:	b009883a 	mov	r4,r22
  806e08:	0809b600 	call	809b60 <__malloc_unlock>
  806e0c:	003f2506 	br	806aa4 <_realloc_r+0x1e4>

00806e10 <isinf>:
  806e10:	200d883a 	mov	r6,r4
  806e14:	0109c83a 	sub	r4,zero,r4
  806e18:	2188b03a 	or	r4,r4,r6
  806e1c:	2008d7fa 	srli	r4,r4,31
  806e20:	00a00034 	movhi	r2,32768
  806e24:	10bfffc4 	addi	r2,r2,-1
  806e28:	288a703a 	and	r5,r5,r2
  806e2c:	290ab03a 	or	r5,r5,r4
  806e30:	009ffc34 	movhi	r2,32752
  806e34:	10800004 	addi	r2,r2,0
  806e38:	114bc83a 	sub	r5,r2,r5
  806e3c:	0145c83a 	sub	r2,zero,r5
  806e40:	1144b03a 	or	r2,r2,r5
  806e44:	1004d7fa 	srli	r2,r2,31
  806e48:	00c00044 	movi	r3,1
  806e4c:	1885c83a 	sub	r2,r3,r2
  806e50:	f800283a 	ret

00806e54 <isnan>:
  806e54:	200d883a 	mov	r6,r4
  806e58:	0109c83a 	sub	r4,zero,r4
  806e5c:	2188b03a 	or	r4,r4,r6
  806e60:	2008d7fa 	srli	r4,r4,31
  806e64:	00e00034 	movhi	r3,32768
  806e68:	18ffffc4 	addi	r3,r3,-1
  806e6c:	28c4703a 	and	r2,r5,r3
  806e70:	1104b03a 	or	r2,r2,r4
  806e74:	00dffc34 	movhi	r3,32752
  806e78:	18c00004 	addi	r3,r3,0
  806e7c:	1885c83a 	sub	r2,r3,r2
  806e80:	1004d7fa 	srli	r2,r2,31
  806e84:	f800283a 	ret

00806e88 <__sread>:
  806e88:	defffe04 	addi	sp,sp,-8
  806e8c:	dc000015 	stw	r16,0(sp)
  806e90:	dfc00115 	stw	ra,4(sp)
  806e94:	2021883a 	mov	r16,r4
  806e98:	2807883a 	mov	r3,r5
  806e9c:	d1200a17 	ldw	r4,-32728(gp)
  806ea0:	8140038f 	ldh	r5,14(r16)
  806ea4:	300f883a 	mov	r7,r6
  806ea8:	180d883a 	mov	r6,r3
  806eac:	08073600 	call	807360 <_read_r>
  806eb0:	1007883a 	mov	r3,r2
  806eb4:	10000816 	blt	r2,zero,806ed8 <__sread+0x50>
  806eb8:	80801417 	ldw	r2,80(r16)
  806ebc:	10c5883a 	add	r2,r2,r3
  806ec0:	80801415 	stw	r2,80(r16)
  806ec4:	1805883a 	mov	r2,r3
  806ec8:	dfc00117 	ldw	ra,4(sp)
  806ecc:	dc000017 	ldw	r16,0(sp)
  806ed0:	dec00204 	addi	sp,sp,8
  806ed4:	f800283a 	ret
  806ed8:	8080030b 	ldhu	r2,12(r16)
  806edc:	10bbffcc 	andi	r2,r2,61439
  806ee0:	8080030d 	sth	r2,12(r16)
  806ee4:	1805883a 	mov	r2,r3
  806ee8:	dfc00117 	ldw	ra,4(sp)
  806eec:	dc000017 	ldw	r16,0(sp)
  806ef0:	dec00204 	addi	sp,sp,8
  806ef4:	f800283a 	ret

00806ef8 <__swrite>:
  806ef8:	defffc04 	addi	sp,sp,-16
  806efc:	dc000215 	stw	r16,8(sp)
  806f00:	dc400115 	stw	r17,4(sp)
  806f04:	dc800015 	stw	r18,0(sp)
  806f08:	dfc00315 	stw	ra,12(sp)
  806f0c:	20c0030b 	ldhu	r3,12(r4)
  806f10:	3025883a 	mov	r18,r6
  806f14:	2021883a 	mov	r16,r4
  806f18:	1880400c 	andi	r2,r3,256
  806f1c:	01c00084 	movi	r7,2
  806f20:	2823883a 	mov	r17,r5
  806f24:	000d883a 	mov	r6,zero
  806f28:	10000e1e 	bne	r2,zero,806f64 <__swrite+0x6c>
  806f2c:	8140038f 	ldh	r5,14(r16)
  806f30:	d1200a17 	ldw	r4,-32728(gp)
  806f34:	18bbffcc 	andi	r2,r3,61439
  806f38:	880d883a 	mov	r6,r17
  806f3c:	900f883a 	mov	r7,r18
  806f40:	02002034 	movhi	r8,128
  806f44:	421c4604 	addi	r8,r8,28952
  806f48:	8080030d 	sth	r2,12(r16)
  806f4c:	dfc00317 	ldw	ra,12(sp)
  806f50:	dc000217 	ldw	r16,8(sp)
  806f54:	dc400117 	ldw	r17,4(sp)
  806f58:	dc800017 	ldw	r18,0(sp)
  806f5c:	dec00404 	addi	sp,sp,16
  806f60:	4000683a 	jmp	r8
  806f64:	d1200a17 	ldw	r4,-32728(gp)
  806f68:	8140038f 	ldh	r5,14(r16)
  806f6c:	08072fc0 	call	8072fc <_lseek_r>
  806f70:	80c0030b 	ldhu	r3,12(r16)
  806f74:	003fed06 	br	806f2c <__swrite+0x34>

00806f78 <__sseek>:
  806f78:	defffe04 	addi	sp,sp,-8
  806f7c:	dc000015 	stw	r16,0(sp)
  806f80:	dfc00115 	stw	ra,4(sp)
  806f84:	2021883a 	mov	r16,r4
  806f88:	2807883a 	mov	r3,r5
  806f8c:	d1200a17 	ldw	r4,-32728(gp)
  806f90:	8140038f 	ldh	r5,14(r16)
  806f94:	300f883a 	mov	r7,r6
  806f98:	180d883a 	mov	r6,r3
  806f9c:	08072fc0 	call	8072fc <_lseek_r>
  806fa0:	1007883a 	mov	r3,r2
  806fa4:	00bfffc4 	movi	r2,-1
  806fa8:	18800926 	beq	r3,r2,806fd0 <__sseek+0x58>
  806fac:	8080030b 	ldhu	r2,12(r16)
  806fb0:	80c01415 	stw	r3,80(r16)
  806fb4:	10840014 	ori	r2,r2,4096
  806fb8:	8080030d 	sth	r2,12(r16)
  806fbc:	1805883a 	mov	r2,r3
  806fc0:	dfc00117 	ldw	ra,4(sp)
  806fc4:	dc000017 	ldw	r16,0(sp)
  806fc8:	dec00204 	addi	sp,sp,8
  806fcc:	f800283a 	ret
  806fd0:	8080030b 	ldhu	r2,12(r16)
  806fd4:	10bbffcc 	andi	r2,r2,61439
  806fd8:	8080030d 	sth	r2,12(r16)
  806fdc:	1805883a 	mov	r2,r3
  806fe0:	dfc00117 	ldw	ra,4(sp)
  806fe4:	dc000017 	ldw	r16,0(sp)
  806fe8:	dec00204 	addi	sp,sp,8
  806fec:	f800283a 	ret

00806ff0 <__sclose>:
  806ff0:	2140038f 	ldh	r5,14(r4)
  806ff4:	d1200a17 	ldw	r4,-32728(gp)
  806ff8:	02002034 	movhi	r8,128
  806ffc:	421c9004 	addi	r8,r8,29248
  807000:	4000683a 	jmp	r8

00807004 <strcmp>:
  807004:	2144b03a 	or	r2,r4,r5
  807008:	108000cc 	andi	r2,r2,3
  80700c:	1000031e 	bne	r2,zero,80701c <strcmp+0x18>
  807010:	20c00017 	ldw	r3,0(r4)
  807014:	28800017 	ldw	r2,0(r5)
  807018:	18801626 	beq	r3,r2,807074 <strcmp+0x70>
  80701c:	20c00003 	ldbu	r3,0(r4)
  807020:	19803fcc 	andi	r6,r3,255
  807024:	3180201c 	xori	r6,r6,128
  807028:	31bfe004 	addi	r6,r6,-128
  80702c:	30000c26 	beq	r6,zero,807060 <strcmp+0x5c>
  807030:	29c00003 	ldbu	r7,0(r5)
  807034:	38803fcc 	andi	r2,r7,255
  807038:	1080201c 	xori	r2,r2,128
  80703c:	10bfe004 	addi	r2,r2,-128
  807040:	3080081e 	bne	r6,r2,807064 <strcmp+0x60>
  807044:	21000044 	addi	r4,r4,1
  807048:	20c00003 	ldbu	r3,0(r4)
  80704c:	29400044 	addi	r5,r5,1
  807050:	19803fcc 	andi	r6,r3,255
  807054:	3180201c 	xori	r6,r6,128
  807058:	31bfe004 	addi	r6,r6,-128
  80705c:	303ff41e 	bne	r6,zero,807030 <strcmp+0x2c>
  807060:	29c00003 	ldbu	r7,0(r5)
  807064:	18c03fcc 	andi	r3,r3,255
  807068:	38803fcc 	andi	r2,r7,255
  80706c:	1885c83a 	sub	r2,r3,r2
  807070:	f800283a 	ret
  807074:	180d883a 	mov	r6,r3
  807078:	023fbff4 	movhi	r8,65279
  80707c:	423fbfc4 	addi	r8,r8,-257
  807080:	01e02074 	movhi	r7,32897
  807084:	39e02004 	addi	r7,r7,-32640
  807088:	0186303a 	nor	r3,zero,r6
  80708c:	3205883a 	add	r2,r6,r8
  807090:	10c4703a 	and	r2,r2,r3
  807094:	11c4703a 	and	r2,r2,r7
  807098:	21000104 	addi	r4,r4,4
  80709c:	29400104 	addi	r5,r5,4
  8070a0:	1000041e 	bne	r2,zero,8070b4 <strcmp+0xb0>
  8070a4:	21800017 	ldw	r6,0(r4)
  8070a8:	28800017 	ldw	r2,0(r5)
  8070ac:	30bff626 	beq	r6,r2,807088 <strcmp+0x84>
  8070b0:	003fda06 	br	80701c <strcmp+0x18>
  8070b4:	0005883a 	mov	r2,zero
  8070b8:	f800283a 	ret

008070bc <strlen>:
  8070bc:	208000cc 	andi	r2,r4,3
  8070c0:	200f883a 	mov	r7,r4
  8070c4:	1000101e 	bne	r2,zero,807108 <strlen+0x4c>
  8070c8:	20800017 	ldw	r2,0(r4)
  8070cc:	01bfbff4 	movhi	r6,65279
  8070d0:	31bfbfc4 	addi	r6,r6,-257
  8070d4:	01602074 	movhi	r5,32897
  8070d8:	29602004 	addi	r5,r5,-32640
  8070dc:	00000206 	br	8070e8 <strlen+0x2c>
  8070e0:	21000104 	addi	r4,r4,4
  8070e4:	20800017 	ldw	r2,0(r4)
  8070e8:	0086303a 	nor	r3,zero,r2
  8070ec:	1185883a 	add	r2,r2,r6
  8070f0:	10c4703a 	and	r2,r2,r3
  8070f4:	1144703a 	and	r2,r2,r5
  8070f8:	103ff926 	beq	r2,zero,8070e0 <strlen+0x24>
  8070fc:	20800007 	ldb	r2,0(r4)
  807100:	10000326 	beq	r2,zero,807110 <strlen+0x54>
  807104:	21000044 	addi	r4,r4,1
  807108:	20800007 	ldb	r2,0(r4)
  80710c:	103ffd1e 	bne	r2,zero,807104 <strlen+0x48>
  807110:	21c5c83a 	sub	r2,r4,r7
  807114:	f800283a 	ret

00807118 <_write_r>:
  807118:	defffe04 	addi	sp,sp,-8
  80711c:	dc000015 	stw	r16,0(sp)
  807120:	2021883a 	mov	r16,r4
  807124:	2809883a 	mov	r4,r5
  807128:	300b883a 	mov	r5,r6
  80712c:	380d883a 	mov	r6,r7
  807130:	dfc00115 	stw	ra,4(sp)
  807134:	d0203015 	stw	zero,-32576(gp)
  807138:	0809e180 	call	809e18 <write>
  80713c:	1007883a 	mov	r3,r2
  807140:	00bfffc4 	movi	r2,-1
  807144:	18800526 	beq	r3,r2,80715c <_write_r+0x44>
  807148:	1805883a 	mov	r2,r3
  80714c:	dfc00117 	ldw	ra,4(sp)
  807150:	dc000017 	ldw	r16,0(sp)
  807154:	dec00204 	addi	sp,sp,8
  807158:	f800283a 	ret
  80715c:	d0a03017 	ldw	r2,-32576(gp)
  807160:	103ff926 	beq	r2,zero,807148 <_write_r+0x30>
  807164:	80800015 	stw	r2,0(r16)
  807168:	1805883a 	mov	r2,r3
  80716c:	dfc00117 	ldw	ra,4(sp)
  807170:	dc000017 	ldw	r16,0(sp)
  807174:	dec00204 	addi	sp,sp,8
  807178:	f800283a 	ret

0080717c <_calloc_r>:
  80717c:	defffe04 	addi	sp,sp,-8
  807180:	dc400015 	stw	r17,0(sp)
  807184:	2023883a 	mov	r17,r4
  807188:	2809883a 	mov	r4,r5
  80718c:	300b883a 	mov	r5,r6
  807190:	dfc00115 	stw	ra,4(sp)
  807194:	08007a40 	call	8007a4 <__mulsi3>
  807198:	100b883a 	mov	r5,r2
  80719c:	8809883a 	mov	r4,r17
  8071a0:	08007f40 	call	8007f4 <_malloc_r>
  8071a4:	1023883a 	mov	r17,r2
  8071a8:	0005883a 	mov	r2,zero
  8071ac:	88001e26 	beq	r17,zero,807228 <_calloc_r+0xac>
  8071b0:	88bfff17 	ldw	r2,-4(r17)
  8071b4:	00ffff04 	movi	r3,-4
  8071b8:	8809883a 	mov	r4,r17
  8071bc:	10c4703a 	and	r2,r2,r3
  8071c0:	10cf883a 	add	r7,r2,r3
  8071c4:	00800904 	movi	r2,36
  8071c8:	380d883a 	mov	r6,r7
  8071cc:	000b883a 	mov	r5,zero
  8071d0:	11c01936 	bltu	r2,r7,807238 <_calloc_r+0xbc>
  8071d4:	008004c4 	movi	r2,19
  8071d8:	8807883a 	mov	r3,r17
  8071dc:	11c00d2e 	bgeu	r2,r7,807214 <_calloc_r+0x98>
  8071e0:	008006c4 	movi	r2,27
  8071e4:	88000015 	stw	zero,0(r17)
  8071e8:	88000115 	stw	zero,4(r17)
  8071ec:	88c00204 	addi	r3,r17,8
  8071f0:	11c0082e 	bgeu	r2,r7,807214 <_calloc_r+0x98>
  8071f4:	18000015 	stw	zero,0(r3)
  8071f8:	008008c4 	movi	r2,35
  8071fc:	88c00404 	addi	r3,r17,16
  807200:	88000315 	stw	zero,12(r17)
  807204:	11c0032e 	bgeu	r2,r7,807214 <_calloc_r+0x98>
  807208:	18000015 	stw	zero,0(r3)
  80720c:	88000515 	stw	zero,20(r17)
  807210:	88c00604 	addi	r3,r17,24
  807214:	18000015 	stw	zero,0(r3)
  807218:	18c00104 	addi	r3,r3,4
  80721c:	18000115 	stw	zero,4(r3)
  807220:	18000015 	stw	zero,0(r3)
  807224:	8805883a 	mov	r2,r17
  807228:	dfc00117 	ldw	ra,4(sp)
  80722c:	dc400017 	ldw	r17,0(sp)
  807230:	dec00204 	addi	sp,sp,8
  807234:	f800283a 	ret
  807238:	08058b80 	call	8058b8 <memset>
  80723c:	003ff906 	br	807224 <_calloc_r+0xa8>

00807240 <_close_r>:
  807240:	defffe04 	addi	sp,sp,-8
  807244:	dc000015 	stw	r16,0(sp)
  807248:	2021883a 	mov	r16,r4
  80724c:	2809883a 	mov	r4,r5
  807250:	dfc00115 	stw	ra,4(sp)
  807254:	d0203015 	stw	zero,-32576(gp)
  807258:	08095280 	call	809528 <close>
  80725c:	1007883a 	mov	r3,r2
  807260:	00bfffc4 	movi	r2,-1
  807264:	18800526 	beq	r3,r2,80727c <_close_r+0x3c>
  807268:	1805883a 	mov	r2,r3
  80726c:	dfc00117 	ldw	ra,4(sp)
  807270:	dc000017 	ldw	r16,0(sp)
  807274:	dec00204 	addi	sp,sp,8
  807278:	f800283a 	ret
  80727c:	d0a03017 	ldw	r2,-32576(gp)
  807280:	103ff926 	beq	r2,zero,807268 <_close_r+0x28>
  807284:	80800015 	stw	r2,0(r16)
  807288:	1805883a 	mov	r2,r3
  80728c:	dfc00117 	ldw	ra,4(sp)
  807290:	dc000017 	ldw	r16,0(sp)
  807294:	dec00204 	addi	sp,sp,8
  807298:	f800283a 	ret

0080729c <_fstat_r>:
  80729c:	defffe04 	addi	sp,sp,-8
  8072a0:	dc000015 	stw	r16,0(sp)
  8072a4:	2021883a 	mov	r16,r4
  8072a8:	2809883a 	mov	r4,r5
  8072ac:	300b883a 	mov	r5,r6
  8072b0:	dfc00115 	stw	ra,4(sp)
  8072b4:	d0203015 	stw	zero,-32576(gp)
  8072b8:	08096940 	call	809694 <fstat>
  8072bc:	1007883a 	mov	r3,r2
  8072c0:	00bfffc4 	movi	r2,-1
  8072c4:	18800526 	beq	r3,r2,8072dc <_fstat_r+0x40>
  8072c8:	1805883a 	mov	r2,r3
  8072cc:	dfc00117 	ldw	ra,4(sp)
  8072d0:	dc000017 	ldw	r16,0(sp)
  8072d4:	dec00204 	addi	sp,sp,8
  8072d8:	f800283a 	ret
  8072dc:	d0a03017 	ldw	r2,-32576(gp)
  8072e0:	103ff926 	beq	r2,zero,8072c8 <_fstat_r+0x2c>
  8072e4:	80800015 	stw	r2,0(r16)
  8072e8:	1805883a 	mov	r2,r3
  8072ec:	dfc00117 	ldw	ra,4(sp)
  8072f0:	dc000017 	ldw	r16,0(sp)
  8072f4:	dec00204 	addi	sp,sp,8
  8072f8:	f800283a 	ret

008072fc <_lseek_r>:
  8072fc:	defffe04 	addi	sp,sp,-8
  807300:	dc000015 	stw	r16,0(sp)
  807304:	2021883a 	mov	r16,r4
  807308:	2809883a 	mov	r4,r5
  80730c:	300b883a 	mov	r5,r6
  807310:	380d883a 	mov	r6,r7
  807314:	dfc00115 	stw	ra,4(sp)
  807318:	d0203015 	stw	zero,-32576(gp)
  80731c:	080999c0 	call	80999c <lseek>
  807320:	1007883a 	mov	r3,r2
  807324:	00bfffc4 	movi	r2,-1
  807328:	18800526 	beq	r3,r2,807340 <_lseek_r+0x44>
  80732c:	1805883a 	mov	r2,r3
  807330:	dfc00117 	ldw	ra,4(sp)
  807334:	dc000017 	ldw	r16,0(sp)
  807338:	dec00204 	addi	sp,sp,8
  80733c:	f800283a 	ret
  807340:	d0a03017 	ldw	r2,-32576(gp)
  807344:	103ff926 	beq	r2,zero,80732c <_lseek_r+0x30>
  807348:	80800015 	stw	r2,0(r16)
  80734c:	1805883a 	mov	r2,r3
  807350:	dfc00117 	ldw	ra,4(sp)
  807354:	dc000017 	ldw	r16,0(sp)
  807358:	dec00204 	addi	sp,sp,8
  80735c:	f800283a 	ret

00807360 <_read_r>:
  807360:	defffe04 	addi	sp,sp,-8
  807364:	dc000015 	stw	r16,0(sp)
  807368:	2021883a 	mov	r16,r4
  80736c:	2809883a 	mov	r4,r5
  807370:	300b883a 	mov	r5,r6
  807374:	380d883a 	mov	r6,r7
  807378:	dfc00115 	stw	ra,4(sp)
  80737c:	d0203015 	stw	zero,-32576(gp)
  807380:	0809b7c0 	call	809b7c <read>
  807384:	1007883a 	mov	r3,r2
  807388:	00bfffc4 	movi	r2,-1
  80738c:	18800526 	beq	r3,r2,8073a4 <_read_r+0x44>
  807390:	1805883a 	mov	r2,r3
  807394:	dfc00117 	ldw	ra,4(sp)
  807398:	dc000017 	ldw	r16,0(sp)
  80739c:	dec00204 	addi	sp,sp,8
  8073a0:	f800283a 	ret
  8073a4:	d0a03017 	ldw	r2,-32576(gp)
  8073a8:	103ff926 	beq	r2,zero,807390 <_read_r+0x30>
  8073ac:	80800015 	stw	r2,0(r16)
  8073b0:	1805883a 	mov	r2,r3
  8073b4:	dfc00117 	ldw	ra,4(sp)
  8073b8:	dc000017 	ldw	r16,0(sp)
  8073bc:	dec00204 	addi	sp,sp,8
  8073c0:	f800283a 	ret

008073c4 <__negdi2>:
  8073c4:	280f883a 	mov	r7,r5
  8073c8:	010bc83a 	sub	r5,zero,r4
  8073cc:	2808c03a 	cmpne	r4,r5,zero
  8073d0:	01d3c83a 	sub	r9,zero,r7
  8073d4:	4913c83a 	sub	r9,r9,r4
  8073d8:	2805883a 	mov	r2,r5
  8073dc:	4807883a 	mov	r3,r9
  8073e0:	f800283a 	ret

008073e4 <__udivdi3>:
  8073e4:	defff604 	addi	sp,sp,-40
  8073e8:	dc400615 	stw	r17,24(sp)
  8073ec:	dc800515 	stw	r18,20(sp)
  8073f0:	dd000315 	stw	r20,12(sp)
  8073f4:	ddc00015 	stw	r23,0(sp)
  8073f8:	dfc00915 	stw	ra,36(sp)
  8073fc:	df000815 	stw	fp,32(sp)
  807400:	dc000715 	stw	r16,28(sp)
  807404:	dcc00415 	stw	r19,16(sp)
  807408:	dd400215 	stw	r21,8(sp)
  80740c:	dd800115 	stw	r22,4(sp)
  807410:	3019883a 	mov	r12,r6
  807414:	3823883a 	mov	r17,r7
  807418:	202f883a 	mov	r23,r4
  80741c:	2825883a 	mov	r18,r5
  807420:	3029883a 	mov	r20,r6
  807424:	3800471e 	bne	r7,zero,807544 <__udivdi3+0x160>
  807428:	29806c2e 	bgeu	r5,r6,8075dc <__udivdi3+0x1f8>
  80742c:	00bfffd4 	movui	r2,65535
  807430:	1181202e 	bgeu	r2,r6,8078b4 <__udivdi3+0x4d0>
  807434:	00804034 	movhi	r2,256
  807438:	10bfffc4 	addi	r2,r2,-1
  80743c:	01c00404 	movi	r7,16
  807440:	1180012e 	bgeu	r2,r6,807448 <__udivdi3+0x64>
  807444:	01c00604 	movi	r7,24
  807448:	61c4d83a 	srl	r2,r12,r7
  80744c:	01002074 	movhi	r4,129
  807450:	21015f04 	addi	r4,r4,1404
  807454:	01400804 	movi	r5,32
  807458:	1105883a 	add	r2,r2,r4
  80745c:	10c00003 	ldbu	r3,0(r2)
  807460:	19c7883a 	add	r3,r3,r7
  807464:	28cfc83a 	sub	r7,r5,r3
  807468:	38000626 	beq	r7,zero,807484 <__udivdi3+0xa0>
  80746c:	29c5c83a 	sub	r2,r5,r7
  807470:	b884d83a 	srl	r2,r23,r2
  807474:	91c6983a 	sll	r3,r18,r7
  807478:	b9ee983a 	sll	r23,r23,r7
  80747c:	a1e8983a 	sll	r20,r20,r7
  807480:	18a4b03a 	or	r18,r3,r2
  807484:	a020d43a 	srli	r16,r20,16
  807488:	9009883a 	mov	r4,r18
  80748c:	a57fffcc 	andi	r21,r20,65535
  807490:	800b883a 	mov	r5,r16
  807494:	08007940 	call	800794 <__umodsi3>
  807498:	9009883a 	mov	r4,r18
  80749c:	800b883a 	mov	r5,r16
  8074a0:	1023883a 	mov	r17,r2
  8074a4:	08007840 	call	800784 <__udivsi3>
  8074a8:	1009883a 	mov	r4,r2
  8074ac:	a80b883a 	mov	r5,r21
  8074b0:	1025883a 	mov	r18,r2
  8074b4:	08007a40 	call	8007a4 <__mulsi3>
  8074b8:	1009883a 	mov	r4,r2
  8074bc:	8806943a 	slli	r3,r17,16
  8074c0:	b804d43a 	srli	r2,r23,16
  8074c4:	18a2b03a 	or	r17,r3,r2
  8074c8:	8900042e 	bgeu	r17,r4,8074dc <__udivdi3+0xf8>
  8074cc:	8d23883a 	add	r17,r17,r20
  8074d0:	94bfffc4 	addi	r18,r18,-1
  8074d4:	8d000136 	bltu	r17,r20,8074dc <__udivdi3+0xf8>
  8074d8:	89013836 	bltu	r17,r4,8079bc <__udivdi3+0x5d8>
  8074dc:	8923c83a 	sub	r17,r17,r4
  8074e0:	800b883a 	mov	r5,r16
  8074e4:	8809883a 	mov	r4,r17
  8074e8:	08007940 	call	800794 <__umodsi3>
  8074ec:	800b883a 	mov	r5,r16
  8074f0:	8809883a 	mov	r4,r17
  8074f4:	1027883a 	mov	r19,r2
  8074f8:	08007840 	call	800784 <__udivsi3>
  8074fc:	1009883a 	mov	r4,r2
  807500:	a80b883a 	mov	r5,r21
  807504:	1021883a 	mov	r16,r2
  807508:	08007a40 	call	8007a4 <__mulsi3>
  80750c:	9806943a 	slli	r3,r19,16
  807510:	1009883a 	mov	r4,r2
  807514:	b8bfffcc 	andi	r2,r23,65535
  807518:	18a6b03a 	or	r19,r3,r2
  80751c:	9900052e 	bgeu	r19,r4,807534 <__udivdi3+0x150>
  807520:	9d27883a 	add	r19,r19,r20
  807524:	843fffc4 	addi	r16,r16,-1
  807528:	9d000236 	bltu	r19,r20,807534 <__udivdi3+0x150>
  80752c:	9900012e 	bgeu	r19,r4,807534 <__udivdi3+0x150>
  807530:	843fffc4 	addi	r16,r16,-1
  807534:	9004943a 	slli	r2,r18,16
  807538:	002b883a 	mov	r21,zero
  80753c:	1424b03a 	or	r18,r2,r16
  807540:	00000306 	br	807550 <__udivdi3+0x16c>
  807544:	29c0102e 	bgeu	r5,r7,807588 <__udivdi3+0x1a4>
  807548:	0025883a 	mov	r18,zero
  80754c:	002b883a 	mov	r21,zero
  807550:	9005883a 	mov	r2,r18
  807554:	a807883a 	mov	r3,r21
  807558:	dfc00917 	ldw	ra,36(sp)
  80755c:	df000817 	ldw	fp,32(sp)
  807560:	dc000717 	ldw	r16,28(sp)
  807564:	dc400617 	ldw	r17,24(sp)
  807568:	dc800517 	ldw	r18,20(sp)
  80756c:	dcc00417 	ldw	r19,16(sp)
  807570:	dd000317 	ldw	r20,12(sp)
  807574:	dd400217 	ldw	r21,8(sp)
  807578:	dd800117 	ldw	r22,4(sp)
  80757c:	ddc00017 	ldw	r23,0(sp)
  807580:	dec00a04 	addi	sp,sp,40
  807584:	f800283a 	ret
  807588:	00bfffd4 	movui	r2,65535
  80758c:	11c05f2e 	bgeu	r2,r7,80770c <__udivdi3+0x328>
  807590:	00804034 	movhi	r2,256
  807594:	10bfffc4 	addi	r2,r2,-1
  807598:	01400404 	movi	r5,16
  80759c:	11c0012e 	bgeu	r2,r7,8075a4 <__udivdi3+0x1c0>
  8075a0:	01400604 	movi	r5,24
  8075a4:	8944d83a 	srl	r2,r17,r5
  8075a8:	01002074 	movhi	r4,129
  8075ac:	21015f04 	addi	r4,r4,1404
  8075b0:	01800804 	movi	r6,32
  8075b4:	1105883a 	add	r2,r2,r4
  8075b8:	10c00003 	ldbu	r3,0(r2)
  8075bc:	1947883a 	add	r3,r3,r5
  8075c0:	30cfc83a 	sub	r7,r6,r3
  8075c4:	38005d1e 	bne	r7,zero,80773c <__udivdi3+0x358>
  8075c8:	8c800236 	bltu	r17,r18,8075d4 <__udivdi3+0x1f0>
  8075cc:	0025883a 	mov	r18,zero
  8075d0:	bd3fde36 	bltu	r23,r20,80754c <__udivdi3+0x168>
  8075d4:	04800044 	movi	r18,1
  8075d8:	003fdc06 	br	80754c <__udivdi3+0x168>
  8075dc:	30003f26 	beq	r6,zero,8076dc <__udivdi3+0x2f8>
  8075e0:	00bfffd4 	movui	r2,65535
  8075e4:	15004336 	bltu	r2,r20,8076f4 <__udivdi3+0x310>
  8075e8:	00803fc4 	movi	r2,255
  8075ec:	150b803a 	cmpltu	r5,r2,r20
  8075f0:	280a90fa 	slli	r5,r5,3
  8075f4:	a144d83a 	srl	r2,r20,r5
  8075f8:	01002074 	movhi	r4,129
  8075fc:	21015f04 	addi	r4,r4,1404
  807600:	01800804 	movi	r6,32
  807604:	1105883a 	add	r2,r2,r4
  807608:	10c00003 	ldbu	r3,0(r2)
  80760c:	1947883a 	add	r3,r3,r5
  807610:	30cfc83a 	sub	r7,r6,r3
  807614:	3800ab1e 	bne	r7,zero,8078c4 <__udivdi3+0x4e0>
  807618:	a02cd43a 	srli	r22,r20,16
  80761c:	9525c83a 	sub	r18,r18,r20
  807620:	05400044 	movi	r21,1
  807624:	a73fffcc 	andi	fp,r20,65535
  807628:	9009883a 	mov	r4,r18
  80762c:	b00b883a 	mov	r5,r22
  807630:	08007940 	call	800794 <__umodsi3>
  807634:	9009883a 	mov	r4,r18
  807638:	b00b883a 	mov	r5,r22
  80763c:	1023883a 	mov	r17,r2
  807640:	08007840 	call	800784 <__udivsi3>
  807644:	1009883a 	mov	r4,r2
  807648:	e00b883a 	mov	r5,fp
  80764c:	1025883a 	mov	r18,r2
  807650:	08007a40 	call	8007a4 <__mulsi3>
  807654:	1009883a 	mov	r4,r2
  807658:	8806943a 	slli	r3,r17,16
  80765c:	b804d43a 	srli	r2,r23,16
  807660:	18a2b03a 	or	r17,r3,r2
  807664:	8900042e 	bgeu	r17,r4,807678 <__udivdi3+0x294>
  807668:	8d23883a 	add	r17,r17,r20
  80766c:	94bfffc4 	addi	r18,r18,-1
  807670:	8d000136 	bltu	r17,r20,807678 <__udivdi3+0x294>
  807674:	8900d436 	bltu	r17,r4,8079c8 <__udivdi3+0x5e4>
  807678:	8923c83a 	sub	r17,r17,r4
  80767c:	8809883a 	mov	r4,r17
  807680:	b00b883a 	mov	r5,r22
  807684:	08007940 	call	800794 <__umodsi3>
  807688:	8809883a 	mov	r4,r17
  80768c:	b00b883a 	mov	r5,r22
  807690:	1027883a 	mov	r19,r2
  807694:	08007840 	call	800784 <__udivsi3>
  807698:	1009883a 	mov	r4,r2
  80769c:	e00b883a 	mov	r5,fp
  8076a0:	1021883a 	mov	r16,r2
  8076a4:	08007a40 	call	8007a4 <__mulsi3>
  8076a8:	9806943a 	slli	r3,r19,16
  8076ac:	1009883a 	mov	r4,r2
  8076b0:	b8bfffcc 	andi	r2,r23,65535
  8076b4:	18a6b03a 	or	r19,r3,r2
  8076b8:	9900052e 	bgeu	r19,r4,8076d0 <__udivdi3+0x2ec>
  8076bc:	9d27883a 	add	r19,r19,r20
  8076c0:	843fffc4 	addi	r16,r16,-1
  8076c4:	9d000236 	bltu	r19,r20,8076d0 <__udivdi3+0x2ec>
  8076c8:	9900012e 	bgeu	r19,r4,8076d0 <__udivdi3+0x2ec>
  8076cc:	843fffc4 	addi	r16,r16,-1
  8076d0:	9004943a 	slli	r2,r18,16
  8076d4:	1424b03a 	or	r18,r2,r16
  8076d8:	003f9d06 	br	807550 <__udivdi3+0x16c>
  8076dc:	01000044 	movi	r4,1
  8076e0:	000b883a 	mov	r5,zero
  8076e4:	08007840 	call	800784 <__udivsi3>
  8076e8:	1029883a 	mov	r20,r2
  8076ec:	00bfffd4 	movui	r2,65535
  8076f0:	153fbd2e 	bgeu	r2,r20,8075e8 <__udivdi3+0x204>
  8076f4:	00804034 	movhi	r2,256
  8076f8:	10bfffc4 	addi	r2,r2,-1
  8076fc:	01400404 	movi	r5,16
  807700:	153fbc2e 	bgeu	r2,r20,8075f4 <__udivdi3+0x210>
  807704:	01400604 	movi	r5,24
  807708:	003fba06 	br	8075f4 <__udivdi3+0x210>
  80770c:	00803fc4 	movi	r2,255
  807710:	11cb803a 	cmpltu	r5,r2,r7
  807714:	280a90fa 	slli	r5,r5,3
  807718:	01002074 	movhi	r4,129
  80771c:	21015f04 	addi	r4,r4,1404
  807720:	01800804 	movi	r6,32
  807724:	8944d83a 	srl	r2,r17,r5
  807728:	1105883a 	add	r2,r2,r4
  80772c:	10c00003 	ldbu	r3,0(r2)
  807730:	1947883a 	add	r3,r3,r5
  807734:	30cfc83a 	sub	r7,r6,r3
  807738:	383fa326 	beq	r7,zero,8075c8 <__udivdi3+0x1e4>
  80773c:	31c9c83a 	sub	r4,r6,r7
  807740:	89c6983a 	sll	r3,r17,r7
  807744:	a104d83a 	srl	r2,r20,r4
  807748:	9126d83a 	srl	r19,r18,r4
  80774c:	b90cd83a 	srl	r6,r23,r4
  807750:	18a2b03a 	or	r17,r3,r2
  807754:	882ad43a 	srli	r21,r17,16
  807758:	91c4983a 	sll	r2,r18,r7
  80775c:	9809883a 	mov	r4,r19
  807760:	a80b883a 	mov	r5,r21
  807764:	11a4b03a 	or	r18,r2,r6
  807768:	b9ee983a 	sll	r23,r23,r7
  80776c:	a1e8983a 	sll	r20,r20,r7
  807770:	08007940 	call	800794 <__umodsi3>
  807774:	9809883a 	mov	r4,r19
  807778:	a80b883a 	mov	r5,r21
  80777c:	1021883a 	mov	r16,r2
  807780:	8f3fffcc 	andi	fp,r17,65535
  807784:	08007840 	call	800784 <__udivsi3>
  807788:	1009883a 	mov	r4,r2
  80778c:	e00b883a 	mov	r5,fp
  807790:	1027883a 	mov	r19,r2
  807794:	08007a40 	call	8007a4 <__mulsi3>
  807798:	100d883a 	mov	r6,r2
  80779c:	8006943a 	slli	r3,r16,16
  8077a0:	9004d43a 	srli	r2,r18,16
  8077a4:	18a0b03a 	or	r16,r3,r2
  8077a8:	8180062e 	bgeu	r16,r6,8077c4 <__udivdi3+0x3e0>
  8077ac:	8461883a 	add	r16,r16,r17
  8077b0:	9cffffc4 	addi	r19,r19,-1
  8077b4:	84400336 	bltu	r16,r17,8077c4 <__udivdi3+0x3e0>
  8077b8:	8180022e 	bgeu	r16,r6,8077c4 <__udivdi3+0x3e0>
  8077bc:	9cffffc4 	addi	r19,r19,-1
  8077c0:	8461883a 	add	r16,r16,r17
  8077c4:	81a1c83a 	sub	r16,r16,r6
  8077c8:	8009883a 	mov	r4,r16
  8077cc:	a80b883a 	mov	r5,r21
  8077d0:	08007940 	call	800794 <__umodsi3>
  8077d4:	8009883a 	mov	r4,r16
  8077d8:	a80b883a 	mov	r5,r21
  8077dc:	102d883a 	mov	r22,r2
  8077e0:	08007840 	call	800784 <__udivsi3>
  8077e4:	1009883a 	mov	r4,r2
  8077e8:	e00b883a 	mov	r5,fp
  8077ec:	1021883a 	mov	r16,r2
  8077f0:	08007a40 	call	8007a4 <__mulsi3>
  8077f4:	b006943a 	slli	r3,r22,16
  8077f8:	100d883a 	mov	r6,r2
  8077fc:	90bfffcc 	andi	r2,r18,65535
  807800:	18acb03a 	or	r22,r3,r2
  807804:	b180032e 	bgeu	r22,r6,807814 <__udivdi3+0x430>
  807808:	b46d883a 	add	r22,r22,r17
  80780c:	843fffc4 	addi	r16,r16,-1
  807810:	b440662e 	bgeu	r22,r17,8079ac <__udivdi3+0x5c8>
  807814:	9804943a 	slli	r2,r19,16
  807818:	a4ffffcc 	andi	r19,r20,65535
  80781c:	a02ad43a 	srli	r21,r20,16
  807820:	1424b03a 	or	r18,r2,r16
  807824:	947fffcc 	andi	r17,r18,65535
  807828:	8809883a 	mov	r4,r17
  80782c:	980b883a 	mov	r5,r19
  807830:	b1adc83a 	sub	r22,r22,r6
  807834:	08007a40 	call	8007a4 <__mulsi3>
  807838:	8809883a 	mov	r4,r17
  80783c:	9022d43a 	srli	r17,r18,16
  807840:	a80b883a 	mov	r5,r21
  807844:	1029883a 	mov	r20,r2
  807848:	08007a40 	call	8007a4 <__mulsi3>
  80784c:	980b883a 	mov	r5,r19
  807850:	8809883a 	mov	r4,r17
  807854:	1021883a 	mov	r16,r2
  807858:	08007a40 	call	8007a4 <__mulsi3>
  80785c:	a80b883a 	mov	r5,r21
  807860:	8809883a 	mov	r4,r17
  807864:	1027883a 	mov	r19,r2
  807868:	08007a40 	call	8007a4 <__mulsi3>
  80786c:	100b883a 	mov	r5,r2
  807870:	a004d43a 	srli	r2,r20,16
  807874:	80a1883a 	add	r16,r16,r2
  807878:	84e1883a 	add	r16,r16,r19
  80787c:	84c0032e 	bgeu	r16,r19,80788c <__udivdi3+0x4a8>
  807880:	00800074 	movhi	r2,1
  807884:	10800004 	addi	r2,r2,0
  807888:	288b883a 	add	r5,r5,r2
  80788c:	8004d43a 	srli	r2,r16,16
  807890:	8008943a 	slli	r4,r16,16
  807894:	a0ffffcc 	andi	r3,r20,65535
  807898:	1145883a 	add	r2,r2,r5
  80789c:	20c7883a 	add	r3,r4,r3
  8078a0:	b0800236 	bltu	r22,r2,8078ac <__udivdi3+0x4c8>
  8078a4:	15bf291e 	bne	r2,r22,80754c <__udivdi3+0x168>
  8078a8:	b8ff282e 	bgeu	r23,r3,80754c <__udivdi3+0x168>
  8078ac:	94bfffc4 	addi	r18,r18,-1
  8078b0:	003f2606 	br	80754c <__udivdi3+0x168>
  8078b4:	00803fc4 	movi	r2,255
  8078b8:	118f803a 	cmpltu	r7,r2,r6
  8078bc:	380e90fa 	slli	r7,r7,3
  8078c0:	003ee106 	br	807448 <__udivdi3+0x64>
  8078c4:	a1e8983a 	sll	r20,r20,r7
  8078c8:	31c9c83a 	sub	r4,r6,r7
  8078cc:	9126d83a 	srl	r19,r18,r4
  8078d0:	a02cd43a 	srli	r22,r20,16
  8078d4:	b906d83a 	srl	r3,r23,r4
  8078d8:	91c4983a 	sll	r2,r18,r7
  8078dc:	9809883a 	mov	r4,r19
  8078e0:	b00b883a 	mov	r5,r22
  8078e4:	10e4b03a 	or	r18,r2,r3
  8078e8:	b9ee983a 	sll	r23,r23,r7
  8078ec:	08007940 	call	800794 <__umodsi3>
  8078f0:	9809883a 	mov	r4,r19
  8078f4:	b00b883a 	mov	r5,r22
  8078f8:	1021883a 	mov	r16,r2
  8078fc:	a73fffcc 	andi	fp,r20,65535
  807900:	08007840 	call	800784 <__udivsi3>
  807904:	1009883a 	mov	r4,r2
  807908:	e00b883a 	mov	r5,fp
  80790c:	1027883a 	mov	r19,r2
  807910:	08007a40 	call	8007a4 <__mulsi3>
  807914:	1011883a 	mov	r8,r2
  807918:	8006943a 	slli	r3,r16,16
  80791c:	9004d43a 	srli	r2,r18,16
  807920:	18a0b03a 	or	r16,r3,r2
  807924:	8200062e 	bgeu	r16,r8,807940 <__udivdi3+0x55c>
  807928:	8521883a 	add	r16,r16,r20
  80792c:	9cffffc4 	addi	r19,r19,-1
  807930:	85000336 	bltu	r16,r20,807940 <__udivdi3+0x55c>
  807934:	8200022e 	bgeu	r16,r8,807940 <__udivdi3+0x55c>
  807938:	9cffffc4 	addi	r19,r19,-1
  80793c:	8521883a 	add	r16,r16,r20
  807940:	8221c83a 	sub	r16,r16,r8
  807944:	8009883a 	mov	r4,r16
  807948:	b00b883a 	mov	r5,r22
  80794c:	08007940 	call	800794 <__umodsi3>
  807950:	8009883a 	mov	r4,r16
  807954:	b00b883a 	mov	r5,r22
  807958:	1023883a 	mov	r17,r2
  80795c:	08007840 	call	800784 <__udivsi3>
  807960:	1009883a 	mov	r4,r2
  807964:	e00b883a 	mov	r5,fp
  807968:	1021883a 	mov	r16,r2
  80796c:	08007a40 	call	8007a4 <__mulsi3>
  807970:	8806943a 	slli	r3,r17,16
  807974:	1011883a 	mov	r8,r2
  807978:	90bfffcc 	andi	r2,r18,65535
  80797c:	18a2b03a 	or	r17,r3,r2
  807980:	8a00062e 	bgeu	r17,r8,80799c <__udivdi3+0x5b8>
  807984:	8d23883a 	add	r17,r17,r20
  807988:	843fffc4 	addi	r16,r16,-1
  80798c:	8d000336 	bltu	r17,r20,80799c <__udivdi3+0x5b8>
  807990:	8a00022e 	bgeu	r17,r8,80799c <__udivdi3+0x5b8>
  807994:	843fffc4 	addi	r16,r16,-1
  807998:	8d23883a 	add	r17,r17,r20
  80799c:	9804943a 	slli	r2,r19,16
  8079a0:	8a25c83a 	sub	r18,r17,r8
  8079a4:	142ab03a 	or	r21,r2,r16
  8079a8:	003f1f06 	br	807628 <__udivdi3+0x244>
  8079ac:	b1bf992e 	bgeu	r22,r6,807814 <__udivdi3+0x430>
  8079b0:	b46d883a 	add	r22,r22,r17
  8079b4:	843fffc4 	addi	r16,r16,-1
  8079b8:	003f9606 	br	807814 <__udivdi3+0x430>
  8079bc:	94bfffc4 	addi	r18,r18,-1
  8079c0:	8d23883a 	add	r17,r17,r20
  8079c4:	003ec506 	br	8074dc <__udivdi3+0xf8>
  8079c8:	94bfffc4 	addi	r18,r18,-1
  8079cc:	8d23883a 	add	r17,r17,r20
  8079d0:	003f2906 	br	807678 <__udivdi3+0x294>

008079d4 <__umoddi3>:
  8079d4:	deffee04 	addi	sp,sp,-72
  8079d8:	2015883a 	mov	r10,r4
  8079dc:	0009883a 	mov	r4,zero
  8079e0:	df001015 	stw	fp,64(sp)
  8079e4:	dc000f15 	stw	r16,60(sp)
  8079e8:	dd000b15 	stw	r20,44(sp)
  8079ec:	dd800915 	stw	r22,36(sp)
  8079f0:	dfc01115 	stw	ra,68(sp)
  8079f4:	dc400e15 	stw	r17,56(sp)
  8079f8:	dc800d15 	stw	r18,52(sp)
  8079fc:	dcc00c15 	stw	r19,48(sp)
  807a00:	dd400a15 	stw	r21,40(sp)
  807a04:	ddc00815 	stw	r23,32(sp)
  807a08:	3019883a 	mov	r12,r6
  807a0c:	3829883a 	mov	r20,r7
  807a10:	d9000215 	stw	r4,8(sp)
  807a14:	2821883a 	mov	r16,r5
  807a18:	d9000315 	stw	r4,12(sp)
  807a1c:	302d883a 	mov	r22,r6
  807a20:	5039883a 	mov	fp,r10
  807a24:	3800391e 	bne	r7,zero,807b0c <__umoddi3+0x138>
  807a28:	2980662e 	bgeu	r5,r6,807bc4 <__umoddi3+0x1f0>
  807a2c:	00bfffd4 	movui	r2,65535
  807a30:	1180b72e 	bgeu	r2,r6,807d10 <__umoddi3+0x33c>
  807a34:	00804034 	movhi	r2,256
  807a38:	10bfffc4 	addi	r2,r2,-1
  807a3c:	01c00404 	movi	r7,16
  807a40:	1180012e 	bgeu	r2,r6,807a48 <__umoddi3+0x74>
  807a44:	01c00604 	movi	r7,24
  807a48:	61c4d83a 	srl	r2,r12,r7
  807a4c:	01002074 	movhi	r4,129
  807a50:	21015f04 	addi	r4,r4,1404
  807a54:	01400804 	movi	r5,32
  807a58:	1105883a 	add	r2,r2,r4
  807a5c:	10c00003 	ldbu	r3,0(r2)
  807a60:	19c7883a 	add	r3,r3,r7
  807a64:	28c7c83a 	sub	r3,r5,r3
  807a68:	d8c00515 	stw	r3,20(sp)
  807a6c:	18000726 	beq	r3,zero,807a8c <__umoddi3+0xb8>
  807a70:	28c5c83a 	sub	r2,r5,r3
  807a74:	d9400517 	ldw	r5,20(sp)
  807a78:	e084d83a 	srl	r2,fp,r2
  807a7c:	80c6983a 	sll	r3,r16,r3
  807a80:	b16c983a 	sll	r22,r22,r5
  807a84:	e178983a 	sll	fp,fp,r5
  807a88:	18a0b03a 	or	r16,r3,r2
  807a8c:	b024d43a 	srli	r18,r22,16
  807a90:	8009883a 	mov	r4,r16
  807a94:	b53fffcc 	andi	r20,r22,65535
  807a98:	900b883a 	mov	r5,r18
  807a9c:	08007940 	call	800794 <__umodsi3>
  807aa0:	8009883a 	mov	r4,r16
  807aa4:	900b883a 	mov	r5,r18
  807aa8:	1023883a 	mov	r17,r2
  807aac:	08007840 	call	800784 <__udivsi3>
  807ab0:	1009883a 	mov	r4,r2
  807ab4:	a00b883a 	mov	r5,r20
  807ab8:	08007a40 	call	8007a4 <__mulsi3>
  807abc:	100b883a 	mov	r5,r2
  807ac0:	8806943a 	slli	r3,r17,16
  807ac4:	e004d43a 	srli	r2,fp,16
  807ac8:	18a2b03a 	or	r17,r3,r2
  807acc:	8940042e 	bgeu	r17,r5,807ae0 <__umoddi3+0x10c>
  807ad0:	8da3883a 	add	r17,r17,r22
  807ad4:	8d800236 	bltu	r17,r22,807ae0 <__umoddi3+0x10c>
  807ad8:	8940012e 	bgeu	r17,r5,807ae0 <__umoddi3+0x10c>
  807adc:	8da3883a 	add	r17,r17,r22
  807ae0:	8963c83a 	sub	r17,r17,r5
  807ae4:	8809883a 	mov	r4,r17
  807ae8:	900b883a 	mov	r5,r18
  807aec:	08007940 	call	800794 <__umodsi3>
  807af0:	8809883a 	mov	r4,r17
  807af4:	900b883a 	mov	r5,r18
  807af8:	1027883a 	mov	r19,r2
  807afc:	08007840 	call	800784 <__udivsi3>
  807b00:	1009883a 	mov	r4,r2
  807b04:	a00b883a 	mov	r5,r20
  807b08:	00005d06 	br	807c80 <__umoddi3+0x2ac>
  807b0c:	29c0142e 	bgeu	r5,r7,807b60 <__umoddi3+0x18c>
  807b10:	da800215 	stw	r10,8(sp)
  807b14:	d9400315 	stw	r5,12(sp)
  807b18:	da800015 	stw	r10,0(sp)
  807b1c:	d9400115 	stw	r5,4(sp)
  807b20:	d9000017 	ldw	r4,0(sp)
  807b24:	d9400117 	ldw	r5,4(sp)
  807b28:	2005883a 	mov	r2,r4
  807b2c:	2807883a 	mov	r3,r5
  807b30:	dfc01117 	ldw	ra,68(sp)
  807b34:	df001017 	ldw	fp,64(sp)
  807b38:	dc000f17 	ldw	r16,60(sp)
  807b3c:	dc400e17 	ldw	r17,56(sp)
  807b40:	dc800d17 	ldw	r18,52(sp)
  807b44:	dcc00c17 	ldw	r19,48(sp)
  807b48:	dd000b17 	ldw	r20,44(sp)
  807b4c:	dd400a17 	ldw	r21,40(sp)
  807b50:	dd800917 	ldw	r22,36(sp)
  807b54:	ddc00817 	ldw	r23,32(sp)
  807b58:	dec01204 	addi	sp,sp,72
  807b5c:	f800283a 	ret
  807b60:	00bfffd4 	movui	r2,65535
  807b64:	11c0662e 	bgeu	r2,r7,807d00 <__umoddi3+0x32c>
  807b68:	00804034 	movhi	r2,256
  807b6c:	10bfffc4 	addi	r2,r2,-1
  807b70:	01400404 	movi	r5,16
  807b74:	11c0012e 	bgeu	r2,r7,807b7c <__umoddi3+0x1a8>
  807b78:	01400604 	movi	r5,24
  807b7c:	a144d83a 	srl	r2,r20,r5
  807b80:	01002074 	movhi	r4,129
  807b84:	21015f04 	addi	r4,r4,1404
  807b88:	01800804 	movi	r6,32
  807b8c:	1105883a 	add	r2,r2,r4
  807b90:	10c00003 	ldbu	r3,0(r2)
  807b94:	1947883a 	add	r3,r3,r5
  807b98:	30c7c83a 	sub	r3,r6,r3
  807b9c:	d8c00515 	stw	r3,20(sp)
  807ba0:	1800651e 	bne	r3,zero,807d38 <__umoddi3+0x364>
  807ba4:	a4005e36 	bltu	r20,r16,807d20 <__umoddi3+0x34c>
  807ba8:	e5805d2e 	bgeu	fp,r22,807d20 <__umoddi3+0x34c>
  807bac:	d83fdc26 	beq	sp,zero,807b20 <__umoddi3+0x14c>
  807bb0:	df000215 	stw	fp,8(sp)
  807bb4:	dc000315 	stw	r16,12(sp)
  807bb8:	dc000115 	stw	r16,4(sp)
  807bbc:	df000015 	stw	fp,0(sp)
  807bc0:	003fd706 	br	807b20 <__umoddi3+0x14c>
  807bc4:	30004226 	beq	r6,zero,807cd0 <__umoddi3+0x2fc>
  807bc8:	00bfffd4 	movui	r2,65535
  807bcc:	15804636 	bltu	r2,r22,807ce8 <__umoddi3+0x314>
  807bd0:	00803fc4 	movi	r2,255
  807bd4:	158b803a 	cmpltu	r5,r2,r22
  807bd8:	280a90fa 	slli	r5,r5,3
  807bdc:	b144d83a 	srl	r2,r22,r5
  807be0:	01002074 	movhi	r4,129
  807be4:	21015f04 	addi	r4,r4,1404
  807be8:	01800804 	movi	r6,32
  807bec:	1105883a 	add	r2,r2,r4
  807bf0:	10c00003 	ldbu	r3,0(r2)
  807bf4:	1947883a 	add	r3,r3,r5
  807bf8:	30c7c83a 	sub	r3,r6,r3
  807bfc:	d8c00515 	stw	r3,20(sp)
  807c00:	1800c61e 	bne	r3,zero,807f1c <__umoddi3+0x548>
  807c04:	b028d43a 	srli	r20,r22,16
  807c08:	85a1c83a 	sub	r16,r16,r22
  807c0c:	b57fffcc 	andi	r21,r22,65535
  807c10:	8009883a 	mov	r4,r16
  807c14:	a00b883a 	mov	r5,r20
  807c18:	08007940 	call	800794 <__umodsi3>
  807c1c:	8009883a 	mov	r4,r16
  807c20:	a00b883a 	mov	r5,r20
  807c24:	1023883a 	mov	r17,r2
  807c28:	08007840 	call	800784 <__udivsi3>
  807c2c:	1009883a 	mov	r4,r2
  807c30:	a80b883a 	mov	r5,r21
  807c34:	08007a40 	call	8007a4 <__mulsi3>
  807c38:	100b883a 	mov	r5,r2
  807c3c:	8806943a 	slli	r3,r17,16
  807c40:	e004d43a 	srli	r2,fp,16
  807c44:	18a2b03a 	or	r17,r3,r2
  807c48:	8940032e 	bgeu	r17,r5,807c58 <__umoddi3+0x284>
  807c4c:	8da3883a 	add	r17,r17,r22
  807c50:	8d800136 	bltu	r17,r22,807c58 <__umoddi3+0x284>
  807c54:	8940ec36 	bltu	r17,r5,808008 <__umoddi3+0x634>
  807c58:	8963c83a 	sub	r17,r17,r5
  807c5c:	8809883a 	mov	r4,r17
  807c60:	a00b883a 	mov	r5,r20
  807c64:	08007940 	call	800794 <__umodsi3>
  807c68:	8809883a 	mov	r4,r17
  807c6c:	a00b883a 	mov	r5,r20
  807c70:	1027883a 	mov	r19,r2
  807c74:	08007840 	call	800784 <__udivsi3>
  807c78:	1009883a 	mov	r4,r2
  807c7c:	a80b883a 	mov	r5,r21
  807c80:	08007a40 	call	8007a4 <__mulsi3>
  807c84:	9806943a 	slli	r3,r19,16
  807c88:	100b883a 	mov	r5,r2
  807c8c:	e0bfffcc 	andi	r2,fp,65535
  807c90:	18a6b03a 	or	r19,r3,r2
  807c94:	9940042e 	bgeu	r19,r5,807ca8 <__umoddi3+0x2d4>
  807c98:	9da7883a 	add	r19,r19,r22
  807c9c:	9d800236 	bltu	r19,r22,807ca8 <__umoddi3+0x2d4>
  807ca0:	9940012e 	bgeu	r19,r5,807ca8 <__umoddi3+0x2d4>
  807ca4:	9da7883a 	add	r19,r19,r22
  807ca8:	9979c83a 	sub	fp,r19,r5
  807cac:	d83f9c26 	beq	sp,zero,807b20 <__umoddi3+0x14c>
  807cb0:	d9400517 	ldw	r5,20(sp)
  807cb4:	000d883a 	mov	r6,zero
  807cb8:	d8000115 	stw	zero,4(sp)
  807cbc:	e178d83a 	srl	fp,fp,r5
  807cc0:	d9800315 	stw	r6,12(sp)
  807cc4:	df000215 	stw	fp,8(sp)
  807cc8:	df000015 	stw	fp,0(sp)
  807ccc:	003f9406 	br	807b20 <__umoddi3+0x14c>
  807cd0:	01000044 	movi	r4,1
  807cd4:	000b883a 	mov	r5,zero
  807cd8:	08007840 	call	800784 <__udivsi3>
  807cdc:	102d883a 	mov	r22,r2
  807ce0:	00bfffd4 	movui	r2,65535
  807ce4:	15bfba2e 	bgeu	r2,r22,807bd0 <__umoddi3+0x1fc>
  807ce8:	00804034 	movhi	r2,256
  807cec:	10bfffc4 	addi	r2,r2,-1
  807cf0:	01400404 	movi	r5,16
  807cf4:	15bfb92e 	bgeu	r2,r22,807bdc <__umoddi3+0x208>
  807cf8:	01400604 	movi	r5,24
  807cfc:	003fb706 	br	807bdc <__umoddi3+0x208>
  807d00:	00803fc4 	movi	r2,255
  807d04:	11cb803a 	cmpltu	r5,r2,r7
  807d08:	280a90fa 	slli	r5,r5,3
  807d0c:	003f9b06 	br	807b7c <__umoddi3+0x1a8>
  807d10:	00803fc4 	movi	r2,255
  807d14:	118f803a 	cmpltu	r7,r2,r6
  807d18:	380e90fa 	slli	r7,r7,3
  807d1c:	003f4a06 	br	807a48 <__umoddi3+0x74>
  807d20:	e589c83a 	sub	r4,fp,r22
  807d24:	e105803a 	cmpltu	r2,fp,r4
  807d28:	8507c83a 	sub	r3,r16,r20
  807d2c:	18a1c83a 	sub	r16,r3,r2
  807d30:	2039883a 	mov	fp,r4
  807d34:	003f9d06 	br	807bac <__umoddi3+0x1d8>
  807d38:	d8800517 	ldw	r2,20(sp)
  807d3c:	d9000517 	ldw	r4,20(sp)
  807d40:	308dc83a 	sub	r6,r6,r2
  807d44:	a086983a 	sll	r3,r20,r2
  807d48:	b184d83a 	srl	r2,r22,r6
  807d4c:	d9800415 	stw	r6,16(sp)
  807d50:	d9400417 	ldw	r5,16(sp)
  807d54:	18a8b03a 	or	r20,r3,r2
  807d58:	81a4d83a 	srl	r18,r16,r6
  807d5c:	a026d43a 	srli	r19,r20,16
  807d60:	810c983a 	sll	r6,r16,r4
  807d64:	e144d83a 	srl	r2,fp,r5
  807d68:	9009883a 	mov	r4,r18
  807d6c:	980b883a 	mov	r5,r19
  807d70:	30a0b03a 	or	r16,r6,r2
  807d74:	08007940 	call	800794 <__umodsi3>
  807d78:	9009883a 	mov	r4,r18
  807d7c:	980b883a 	mov	r5,r19
  807d80:	1023883a 	mov	r17,r2
  807d84:	a5ffffcc 	andi	r23,r20,65535
  807d88:	08007840 	call	800784 <__udivsi3>
  807d8c:	1009883a 	mov	r4,r2
  807d90:	b80b883a 	mov	r5,r23
  807d94:	102b883a 	mov	r21,r2
  807d98:	08007a40 	call	8007a4 <__mulsi3>
  807d9c:	100d883a 	mov	r6,r2
  807da0:	8806943a 	slli	r3,r17,16
  807da4:	8004d43a 	srli	r2,r16,16
  807da8:	d9000517 	ldw	r4,20(sp)
  807dac:	18a2b03a 	or	r17,r3,r2
  807db0:	b12c983a 	sll	r22,r22,r4
  807db4:	e138983a 	sll	fp,fp,r4
  807db8:	8980062e 	bgeu	r17,r6,807dd4 <__umoddi3+0x400>
  807dbc:	8d23883a 	add	r17,r17,r20
  807dc0:	ad7fffc4 	addi	r21,r21,-1
  807dc4:	8d000336 	bltu	r17,r20,807dd4 <__umoddi3+0x400>
  807dc8:	8980022e 	bgeu	r17,r6,807dd4 <__umoddi3+0x400>
  807dcc:	ad7fffc4 	addi	r21,r21,-1
  807dd0:	8d23883a 	add	r17,r17,r20
  807dd4:	89a3c83a 	sub	r17,r17,r6
  807dd8:	8809883a 	mov	r4,r17
  807ddc:	980b883a 	mov	r5,r19
  807de0:	08007940 	call	800794 <__umodsi3>
  807de4:	8809883a 	mov	r4,r17
  807de8:	980b883a 	mov	r5,r19
  807dec:	d8800615 	stw	r2,24(sp)
  807df0:	08007840 	call	800784 <__udivsi3>
  807df4:	1009883a 	mov	r4,r2
  807df8:	b80b883a 	mov	r5,r23
  807dfc:	1025883a 	mov	r18,r2
  807e00:	08007a40 	call	8007a4 <__mulsi3>
  807e04:	d9400617 	ldw	r5,24(sp)
  807e08:	100d883a 	mov	r6,r2
  807e0c:	80bfffcc 	andi	r2,r16,65535
  807e10:	2806943a 	slli	r3,r5,16
  807e14:	1886b03a 	or	r3,r3,r2
  807e18:	d8c00615 	stw	r3,24(sp)
  807e1c:	1980042e 	bgeu	r3,r6,807e30 <__umoddi3+0x45c>
  807e20:	1d07883a 	add	r3,r3,r20
  807e24:	d8c00615 	stw	r3,24(sp)
  807e28:	94bfffc4 	addi	r18,r18,-1
  807e2c:	1d00782e 	bgeu	r3,r20,808010 <__umoddi3+0x63c>
  807e30:	a822943a 	slli	r17,r21,16
  807e34:	d8800617 	ldw	r2,24(sp)
  807e38:	b02ed43a 	srli	r23,r22,16
  807e3c:	8ca2b03a 	or	r17,r17,r18
  807e40:	8cffffcc 	andi	r19,r17,65535
  807e44:	b57fffcc 	andi	r21,r22,65535
  807e48:	8822d43a 	srli	r17,r17,16
  807e4c:	1185c83a 	sub	r2,r2,r6
  807e50:	9809883a 	mov	r4,r19
  807e54:	a80b883a 	mov	r5,r21
  807e58:	d8800615 	stw	r2,24(sp)
  807e5c:	08007a40 	call	8007a4 <__mulsi3>
  807e60:	9809883a 	mov	r4,r19
  807e64:	b80b883a 	mov	r5,r23
  807e68:	d8800715 	stw	r2,28(sp)
  807e6c:	08007a40 	call	8007a4 <__mulsi3>
  807e70:	8809883a 	mov	r4,r17
  807e74:	a80b883a 	mov	r5,r21
  807e78:	1025883a 	mov	r18,r2
  807e7c:	08007a40 	call	8007a4 <__mulsi3>
  807e80:	b80b883a 	mov	r5,r23
  807e84:	8809883a 	mov	r4,r17
  807e88:	1027883a 	mov	r19,r2
  807e8c:	08007a40 	call	8007a4 <__mulsi3>
  807e90:	d8c00717 	ldw	r3,28(sp)
  807e94:	100b883a 	mov	r5,r2
  807e98:	dc000617 	ldw	r16,24(sp)
  807e9c:	1804d43a 	srli	r2,r3,16
  807ea0:	90a5883a 	add	r18,r18,r2
  807ea4:	94e5883a 	add	r18,r18,r19
  807ea8:	94c0032e 	bgeu	r18,r19,807eb8 <__umoddi3+0x4e4>
  807eac:	00800074 	movhi	r2,1
  807eb0:	10800004 	addi	r2,r2,0
  807eb4:	288b883a 	add	r5,r5,r2
  807eb8:	9004d43a 	srli	r2,r18,16
  807ebc:	d9800717 	ldw	r6,28(sp)
  807ec0:	9008943a 	slli	r4,r18,16
  807ec4:	1145883a 	add	r2,r2,r5
  807ec8:	30ffffcc 	andi	r3,r6,65535
  807ecc:	20d1883a 	add	r8,r4,r3
  807ed0:	80804736 	bltu	r16,r2,807ff0 <__umoddi3+0x61c>
  807ed4:	14004526 	beq	r2,r16,807fec <__umoddi3+0x618>
  807ed8:	d83f1126 	beq	sp,zero,807b20 <__umoddi3+0x14c>
  807edc:	d9400617 	ldw	r5,24(sp)
  807ee0:	e207c83a 	sub	r3,fp,r8
  807ee4:	d9800417 	ldw	r6,16(sp)
  807ee8:	2889c83a 	sub	r4,r5,r2
  807eec:	e0c5803a 	cmpltu	r2,fp,r3
  807ef0:	20a1c83a 	sub	r16,r4,r2
  807ef4:	d8800517 	ldw	r2,20(sp)
  807ef8:	818a983a 	sll	r5,r16,r6
  807efc:	1886d83a 	srl	r3,r3,r2
  807f00:	8084d83a 	srl	r2,r16,r2
  807f04:	28cab03a 	or	r5,r5,r3
  807f08:	d9400215 	stw	r5,8(sp)
  807f0c:	d8800315 	stw	r2,12(sp)
  807f10:	d8800115 	stw	r2,4(sp)
  807f14:	d9400015 	stw	r5,0(sp)
  807f18:	003f0106 	br	807b20 <__umoddi3+0x14c>
  807f1c:	d8800517 	ldw	r2,20(sp)
  807f20:	b0ac983a 	sll	r22,r22,r2
  807f24:	308dc83a 	sub	r6,r6,r2
  807f28:	81a4d83a 	srl	r18,r16,r6
  807f2c:	b028d43a 	srli	r20,r22,16
  807f30:	e186d83a 	srl	r3,fp,r6
  807f34:	8084983a 	sll	r2,r16,r2
  807f38:	9009883a 	mov	r4,r18
  807f3c:	a00b883a 	mov	r5,r20
  807f40:	10e0b03a 	or	r16,r2,r3
  807f44:	08007940 	call	800794 <__umodsi3>
  807f48:	9009883a 	mov	r4,r18
  807f4c:	a00b883a 	mov	r5,r20
  807f50:	1023883a 	mov	r17,r2
  807f54:	b57fffcc 	andi	r21,r22,65535
  807f58:	08007840 	call	800784 <__udivsi3>
  807f5c:	1009883a 	mov	r4,r2
  807f60:	a80b883a 	mov	r5,r21
  807f64:	08007a40 	call	8007a4 <__mulsi3>
  807f68:	100b883a 	mov	r5,r2
  807f6c:	8806943a 	slli	r3,r17,16
  807f70:	8004d43a 	srli	r2,r16,16
  807f74:	d9000517 	ldw	r4,20(sp)
  807f78:	18a2b03a 	or	r17,r3,r2
  807f7c:	e138983a 	sll	fp,fp,r4
  807f80:	8940042e 	bgeu	r17,r5,807f94 <__umoddi3+0x5c0>
  807f84:	8da3883a 	add	r17,r17,r22
  807f88:	8d800236 	bltu	r17,r22,807f94 <__umoddi3+0x5c0>
  807f8c:	8940012e 	bgeu	r17,r5,807f94 <__umoddi3+0x5c0>
  807f90:	8da3883a 	add	r17,r17,r22
  807f94:	8963c83a 	sub	r17,r17,r5
  807f98:	8809883a 	mov	r4,r17
  807f9c:	a00b883a 	mov	r5,r20
  807fa0:	08007940 	call	800794 <__umodsi3>
  807fa4:	8809883a 	mov	r4,r17
  807fa8:	a00b883a 	mov	r5,r20
  807fac:	1025883a 	mov	r18,r2
  807fb0:	08007840 	call	800784 <__udivsi3>
  807fb4:	1009883a 	mov	r4,r2
  807fb8:	a80b883a 	mov	r5,r21
  807fbc:	08007a40 	call	8007a4 <__mulsi3>
  807fc0:	9006943a 	slli	r3,r18,16
  807fc4:	100b883a 	mov	r5,r2
  807fc8:	80bfffcc 	andi	r2,r16,65535
  807fcc:	18a4b03a 	or	r18,r3,r2
  807fd0:	9140042e 	bgeu	r18,r5,807fe4 <__umoddi3+0x610>
  807fd4:	95a5883a 	add	r18,r18,r22
  807fd8:	95800236 	bltu	r18,r22,807fe4 <__umoddi3+0x610>
  807fdc:	9140012e 	bgeu	r18,r5,807fe4 <__umoddi3+0x610>
  807fe0:	95a5883a 	add	r18,r18,r22
  807fe4:	9161c83a 	sub	r16,r18,r5
  807fe8:	003f0906 	br	807c10 <__umoddi3+0x23c>
  807fec:	e23fba2e 	bgeu	fp,r8,807ed8 <__umoddi3+0x504>
  807ff0:	4589c83a 	sub	r4,r8,r22
  807ff4:	1507c83a 	sub	r3,r2,r20
  807ff8:	4105803a 	cmpltu	r2,r8,r4
  807ffc:	1885c83a 	sub	r2,r3,r2
  808000:	2011883a 	mov	r8,r4
  808004:	003fb406 	br	807ed8 <__umoddi3+0x504>
  808008:	8da3883a 	add	r17,r17,r22
  80800c:	003f1206 	br	807c58 <__umoddi3+0x284>
  808010:	19bf872e 	bgeu	r3,r6,807e30 <__umoddi3+0x45c>
  808014:	1d07883a 	add	r3,r3,r20
  808018:	94bfffc4 	addi	r18,r18,-1
  80801c:	d8c00615 	stw	r3,24(sp)
  808020:	003f8306 	br	807e30 <__umoddi3+0x45c>

00808024 <_fpadd_parts>:
  808024:	defffc04 	addi	sp,sp,-16
  808028:	dc000215 	stw	r16,8(sp)
  80802c:	dfc00315 	stw	ra,12(sp)
  808030:	dc400115 	stw	r17,4(sp)
  808034:	dc800015 	stw	r18,0(sp)
  808038:	20c00017 	ldw	r3,0(r4)
  80803c:	00800044 	movi	r2,1
  808040:	3021883a 	mov	r16,r6
  808044:	2019883a 	mov	r12,r4
  808048:	281b883a 	mov	r13,r5
  80804c:	200d883a 	mov	r6,r4
  808050:	10c05d2e 	bgeu	r2,r3,8081c8 <_fpadd_parts+0x1a4>
  808054:	29000017 	ldw	r4,0(r5)
  808058:	280d883a 	mov	r6,r5
  80805c:	11005a2e 	bgeu	r2,r4,8081c8 <_fpadd_parts+0x1a4>
  808060:	18800118 	cmpnei	r2,r3,4
  808064:	10005f26 	beq	r2,zero,8081e4 <_fpadd_parts+0x1c0>
  808068:	20800118 	cmpnei	r2,r4,4
  80806c:	280d883a 	mov	r6,r5
  808070:	10005526 	beq	r2,zero,8081c8 <_fpadd_parts+0x1a4>
  808074:	20800098 	cmpnei	r2,r4,2
  808078:	10007b26 	beq	r2,zero,808268 <_fpadd_parts+0x244>
  80807c:	18800098 	cmpnei	r2,r3,2
  808080:	280d883a 	mov	r6,r5
  808084:	10005026 	beq	r2,zero,8081c8 <_fpadd_parts+0x1a4>
  808088:	63c00217 	ldw	r15,8(r12)
  80808c:	2b800217 	ldw	r14,8(r5)
  808090:	62800317 	ldw	r10,12(r12)
  808094:	2a000317 	ldw	r8,12(r5)
  808098:	7b87c83a 	sub	r3,r15,r14
  80809c:	62c00417 	ldw	r11,16(r12)
  8080a0:	2a400417 	ldw	r9,16(r5)
  8080a4:	18009716 	blt	r3,zero,808304 <_fpadd_parts+0x2e0>
  8080a8:	00800fc4 	movi	r2,63
  8080ac:	10c0500e 	bge	r2,r3,8081f0 <_fpadd_parts+0x1cc>
  8080b0:	73c0900e 	bge	r14,r15,8082f4 <_fpadd_parts+0x2d0>
  8080b4:	0011883a 	mov	r8,zero
  8080b8:	0013883a 	mov	r9,zero
  8080bc:	61400117 	ldw	r5,4(r12)
  8080c0:	68800117 	ldw	r2,4(r13)
  8080c4:	28808126 	beq	r5,r2,8082cc <_fpadd_parts+0x2a8>
  8080c8:	28007c26 	beq	r5,zero,8082bc <_fpadd_parts+0x298>
  8080cc:	4285c83a 	sub	r2,r8,r10
  8080d0:	4089803a 	cmpltu	r4,r8,r2
  8080d4:	4ac7c83a 	sub	r3,r9,r11
  8080d8:	1909c83a 	sub	r4,r3,r4
  8080dc:	100d883a 	mov	r6,r2
  8080e0:	20008a16 	blt	r4,zero,80830c <_fpadd_parts+0x2e8>
  8080e4:	7823883a 	mov	r17,r15
  8080e8:	781d883a 	mov	r14,r15
  8080ec:	81000415 	stw	r4,16(r16)
  8080f0:	80000115 	stw	zero,4(r16)
  8080f4:	80800315 	stw	r2,12(r16)
  8080f8:	80800317 	ldw	r2,12(r16)
  8080fc:	80c00417 	ldw	r3,16(r16)
  808100:	013fffc4 	movi	r4,-1
  808104:	110f883a 	add	r7,r2,r4
  808108:	388d803a 	cmpltu	r6,r7,r2
  80810c:	1911883a 	add	r8,r3,r4
  808110:	02440034 	movhi	r9,4096
  808114:	4a7fffc4 	addi	r9,r9,-1
  808118:	3211883a 	add	r8,r6,r8
  80811c:	4a001536 	bltu	r9,r8,808174 <_fpadd_parts+0x150>
  808120:	42408426 	beq	r8,r9,808334 <_fpadd_parts+0x310>
  808124:	481f883a 	mov	r15,r9
  808128:	04bfff84 	movi	r18,-2
  80812c:	80800317 	ldw	r2,12(r16)
  808130:	80c00417 	ldw	r3,16(r16)
  808134:	013fffc4 	movi	r4,-1
  808138:	1091883a 	add	r8,r2,r2
  80813c:	1016d7fa 	srli	r11,r2,31
  808140:	18d5883a 	add	r10,r3,r3
  808144:	4119883a 	add	r12,r8,r4
  808148:	6205803a 	cmpltu	r2,r12,r8
  80814c:	5a92b03a 	or	r9,r11,r10
  808150:	491b883a 	add	r13,r9,r4
  808154:	7123883a 	add	r17,r14,r4
  808158:	135b883a 	add	r13,r2,r13
  80815c:	881d883a 	mov	r14,r17
  808160:	82000315 	stw	r8,12(r16)
  808164:	82400415 	stw	r9,16(r16)
  808168:	7b400236 	bltu	r15,r13,808174 <_fpadd_parts+0x150>
  80816c:	7b7fef1e 	bne	r15,r13,80812c <_fpadd_parts+0x108>
  808170:	933fee2e 	bgeu	r18,r12,80812c <_fpadd_parts+0x108>
  808174:	83400417 	ldw	r13,16(r16)
  808178:	008000c4 	movi	r2,3
  80817c:	00c80034 	movhi	r3,8192
  808180:	18ffffc4 	addi	r3,r3,-1
  808184:	83000317 	ldw	r12,12(r16)
  808188:	80800015 	stw	r2,0(r16)
  80818c:	1b40482e 	bgeu	r3,r13,8082b0 <_fpadd_parts+0x28c>
  808190:	01800044 	movi	r6,1
  808194:	6184d83a 	srl	r2,r12,r6
  808198:	680697fa 	slli	r3,r13,31
  80819c:	6992d83a 	srl	r9,r13,r6
  8081a0:	1890b03a 	or	r8,r3,r2
  8081a4:	6184703a 	and	r2,r12,r6
  8081a8:	0007883a 	mov	r3,zero
  8081ac:	718d883a 	add	r6,r14,r6
  8081b0:	1208b03a 	or	r4,r2,r8
  8081b4:	1a4ab03a 	or	r5,r3,r9
  8081b8:	81800215 	stw	r6,8(r16)
  8081bc:	81400415 	stw	r5,16(r16)
  8081c0:	81000315 	stw	r4,12(r16)
  8081c4:	800d883a 	mov	r6,r16
  8081c8:	3005883a 	mov	r2,r6
  8081cc:	dfc00317 	ldw	ra,12(sp)
  8081d0:	dc000217 	ldw	r16,8(sp)
  8081d4:	dc400117 	ldw	r17,4(sp)
  8081d8:	dc800017 	ldw	r18,0(sp)
  8081dc:	dec00404 	addi	sp,sp,16
  8081e0:	f800283a 	ret
  8081e4:	20c01a26 	beq	r4,r3,808250 <_fpadd_parts+0x22c>
  8081e8:	600d883a 	mov	r6,r12
  8081ec:	003ff606 	br	8081c8 <_fpadd_parts+0x1a4>
  8081f0:	73c00b0e 	bge	r14,r15,808220 <_fpadd_parts+0x1fc>
  8081f4:	480697fa 	slli	r3,r9,31
  8081f8:	4004d07a 	srli	r2,r8,1
  8081fc:	01000044 	movi	r4,1
  808200:	490ed83a 	srl	r7,r9,r4
  808204:	188cb03a 	or	r6,r3,r2
  808208:	4104703a 	and	r2,r8,r4
  80820c:	0007883a 	mov	r3,zero
  808210:	711d883a 	add	r14,r14,r4
  808214:	1190b03a 	or	r8,r2,r6
  808218:	19d2b03a 	or	r9,r3,r7
  80821c:	003ff406 	br	8081f0 <_fpadd_parts+0x1cc>
  808220:	7bbfa60e 	bge	r15,r14,8080bc <_fpadd_parts+0x98>
  808224:	580697fa 	slli	r3,r11,31
  808228:	5004d07a 	srli	r2,r10,1
  80822c:	01000044 	movi	r4,1
  808230:	590ed83a 	srl	r7,r11,r4
  808234:	188cb03a 	or	r6,r3,r2
  808238:	5104703a 	and	r2,r10,r4
  80823c:	0007883a 	mov	r3,zero
  808240:	791f883a 	add	r15,r15,r4
  808244:	1194b03a 	or	r10,r2,r6
  808248:	19d6b03a 	or	r11,r3,r7
  80824c:	003ff406 	br	808220 <_fpadd_parts+0x1fc>
  808250:	28c00117 	ldw	r3,4(r5)
  808254:	60800117 	ldw	r2,4(r12)
  808258:	01802074 	movhi	r6,129
  80825c:	31815a04 	addi	r6,r6,1384
  808260:	10ffd91e 	bne	r2,r3,8081c8 <_fpadd_parts+0x1a4>
  808264:	003fe006 	br	8081e8 <_fpadd_parts+0x1c4>
  808268:	600d883a 	mov	r6,r12
  80826c:	193fd61e 	bne	r3,r4,8081c8 <_fpadd_parts+0x1a4>
  808270:	60800017 	ldw	r2,0(r12)
  808274:	60c00117 	ldw	r3,4(r12)
  808278:	61000217 	ldw	r4,8(r12)
  80827c:	80800015 	stw	r2,0(r16)
  808280:	60800317 	ldw	r2,12(r12)
  808284:	80c00115 	stw	r3,4(r16)
  808288:	60c00417 	ldw	r3,16(r12)
  80828c:	81000215 	stw	r4,8(r16)
  808290:	80800315 	stw	r2,12(r16)
  808294:	80c00415 	stw	r3,16(r16)
  808298:	60800117 	ldw	r2,4(r12)
  80829c:	28c00117 	ldw	r3,4(r5)
  8082a0:	800d883a 	mov	r6,r16
  8082a4:	10c4703a 	and	r2,r2,r3
  8082a8:	80800115 	stw	r2,4(r16)
  8082ac:	003fc606 	br	8081c8 <_fpadd_parts+0x1a4>
  8082b0:	800d883a 	mov	r6,r16
  8082b4:	84400215 	stw	r17,8(r16)
  8082b8:	003fc306 	br	8081c8 <_fpadd_parts+0x1a4>
  8082bc:	5205c83a 	sub	r2,r10,r8
  8082c0:	5089803a 	cmpltu	r4,r10,r2
  8082c4:	5a47c83a 	sub	r3,r11,r9
  8082c8:	003f8306 	br	8080d8 <_fpadd_parts+0xb4>
  8082cc:	5205883a 	add	r2,r10,r8
  8082d0:	1289803a 	cmpltu	r4,r2,r10
  8082d4:	5a47883a 	add	r3,r11,r9
  8082d8:	20c9883a 	add	r4,r4,r3
  8082dc:	7823883a 	mov	r17,r15
  8082e0:	781d883a 	mov	r14,r15
  8082e4:	81400115 	stw	r5,4(r16)
  8082e8:	80800315 	stw	r2,12(r16)
  8082ec:	81000415 	stw	r4,16(r16)
  8082f0:	003fa006 	br	808174 <_fpadd_parts+0x150>
  8082f4:	0015883a 	mov	r10,zero
  8082f8:	701f883a 	mov	r15,r14
  8082fc:	0017883a 	mov	r11,zero
  808300:	003f6e06 	br	8080bc <_fpadd_parts+0x98>
  808304:	00c7c83a 	sub	r3,zero,r3
  808308:	003f6706 	br	8080a8 <_fpadd_parts+0x84>
  80830c:	00800044 	movi	r2,1
  808310:	200b883a 	mov	r5,r4
  808314:	80800115 	stw	r2,4(r16)
  808318:	3009883a 	mov	r4,r6
  80831c:	7823883a 	mov	r17,r15
  808320:	08073c40 	call	8073c4 <__negdi2>
  808324:	881d883a 	mov	r14,r17
  808328:	80c00415 	stw	r3,16(r16)
  80832c:	80800315 	stw	r2,12(r16)
  808330:	003f7106 	br	8080f8 <_fpadd_parts+0xd4>
  808334:	00bfff84 	movi	r2,-2
  808338:	11ff7a2e 	bgeu	r2,r7,808124 <_fpadd_parts+0x100>
  80833c:	003f8d06 	br	808174 <_fpadd_parts+0x150>

00808340 <__adddf3>:
  808340:	deffeb04 	addi	sp,sp,-84
  808344:	2011883a 	mov	r8,r4
  808348:	dc401315 	stw	r17,76(sp)
  80834c:	d9401015 	stw	r5,64(sp)
  808350:	d9000f04 	addi	r4,sp,60
  808354:	d80b883a 	mov	r5,sp
  808358:	dc400504 	addi	r17,sp,20
  80835c:	dfc01415 	stw	ra,80(sp)
  808360:	d9c01215 	stw	r7,72(sp)
  808364:	da000f15 	stw	r8,60(sp)
  808368:	d9801115 	stw	r6,68(sp)
  80836c:	080929c0 	call	80929c <__unpack_d>
  808370:	d9001104 	addi	r4,sp,68
  808374:	880b883a 	mov	r5,r17
  808378:	080929c0 	call	80929c <__unpack_d>
  80837c:	d9800a04 	addi	r6,sp,40
  808380:	d809883a 	mov	r4,sp
  808384:	880b883a 	mov	r5,r17
  808388:	08080240 	call	808024 <_fpadd_parts>
  80838c:	1009883a 	mov	r4,r2
  808390:	080900c0 	call	80900c <__pack_d>
  808394:	1009883a 	mov	r4,r2
  808398:	2005883a 	mov	r2,r4
  80839c:	dfc01417 	ldw	ra,80(sp)
  8083a0:	dc401317 	ldw	r17,76(sp)
  8083a4:	dec01504 	addi	sp,sp,84
  8083a8:	f800283a 	ret

008083ac <__subdf3>:
  8083ac:	deffeb04 	addi	sp,sp,-84
  8083b0:	2011883a 	mov	r8,r4
  8083b4:	dc401315 	stw	r17,76(sp)
  8083b8:	d9401015 	stw	r5,64(sp)
  8083bc:	d9000f04 	addi	r4,sp,60
  8083c0:	d80b883a 	mov	r5,sp
  8083c4:	dc400504 	addi	r17,sp,20
  8083c8:	dfc01415 	stw	ra,80(sp)
  8083cc:	d9c01215 	stw	r7,72(sp)
  8083d0:	da000f15 	stw	r8,60(sp)
  8083d4:	d9801115 	stw	r6,68(sp)
  8083d8:	080929c0 	call	80929c <__unpack_d>
  8083dc:	d9001104 	addi	r4,sp,68
  8083e0:	880b883a 	mov	r5,r17
  8083e4:	080929c0 	call	80929c <__unpack_d>
  8083e8:	d8800617 	ldw	r2,24(sp)
  8083ec:	880b883a 	mov	r5,r17
  8083f0:	d809883a 	mov	r4,sp
  8083f4:	d9800a04 	addi	r6,sp,40
  8083f8:	1080005c 	xori	r2,r2,1
  8083fc:	d8800615 	stw	r2,24(sp)
  808400:	08080240 	call	808024 <_fpadd_parts>
  808404:	1009883a 	mov	r4,r2
  808408:	080900c0 	call	80900c <__pack_d>
  80840c:	1009883a 	mov	r4,r2
  808410:	2005883a 	mov	r2,r4
  808414:	dfc01417 	ldw	ra,80(sp)
  808418:	dc401317 	ldw	r17,76(sp)
  80841c:	dec01504 	addi	sp,sp,84
  808420:	f800283a 	ret

00808424 <__muldf3>:
  808424:	deffe004 	addi	sp,sp,-128
  808428:	2011883a 	mov	r8,r4
  80842c:	df001e15 	stw	fp,120(sp)
  808430:	d9401015 	stw	r5,64(sp)
  808434:	d9000f04 	addi	r4,sp,60
  808438:	d80b883a 	mov	r5,sp
  80843c:	df000504 	addi	fp,sp,20
  808440:	dfc01f15 	stw	ra,124(sp)
  808444:	ddc01715 	stw	r23,92(sp)
  808448:	d9c01215 	stw	r7,72(sp)
  80844c:	da000f15 	stw	r8,60(sp)
  808450:	d9801115 	stw	r6,68(sp)
  808454:	dc001d15 	stw	r16,116(sp)
  808458:	dc401c15 	stw	r17,112(sp)
  80845c:	dc801b15 	stw	r18,108(sp)
  808460:	dcc01a15 	stw	r19,104(sp)
  808464:	dd001915 	stw	r20,100(sp)
  808468:	dd401815 	stw	r21,96(sp)
  80846c:	080929c0 	call	80929c <__unpack_d>
  808470:	d9001104 	addi	r4,sp,68
  808474:	e00b883a 	mov	r5,fp
  808478:	080929c0 	call	80929c <__unpack_d>
  80847c:	d8c00017 	ldw	r3,0(sp)
  808480:	05c00044 	movi	r23,1
  808484:	b8c00e2e 	bgeu	r23,r3,8084c0 <__muldf3+0x9c>
  808488:	e1000017 	ldw	r4,0(fp)
  80848c:	b9000636 	bltu	r23,r4,8084a8 <__muldf3+0x84>
  808490:	d8c00617 	ldw	r3,24(sp)
  808494:	d8800117 	ldw	r2,4(sp)
  808498:	e009883a 	mov	r4,fp
  80849c:	10c4c03a 	cmpne	r2,r2,r3
  8084a0:	d8800615 	stw	r2,24(sp)
  8084a4:	00000b06 	br	8084d4 <__muldf3+0xb0>
  8084a8:	18800118 	cmpnei	r2,r3,4
  8084ac:	1000171e 	bne	r2,zero,80850c <__muldf3+0xe8>
  8084b0:	20800098 	cmpnei	r2,r4,2
  8084b4:	01002074 	movhi	r4,129
  8084b8:	21015a04 	addi	r4,r4,1384
  8084bc:	10000526 	beq	r2,zero,8084d4 <__muldf3+0xb0>
  8084c0:	d8800117 	ldw	r2,4(sp)
  8084c4:	d8c00617 	ldw	r3,24(sp)
  8084c8:	d809883a 	mov	r4,sp
  8084cc:	10c4c03a 	cmpne	r2,r2,r3
  8084d0:	d8800115 	stw	r2,4(sp)
  8084d4:	080900c0 	call	80900c <__pack_d>
  8084d8:	1009883a 	mov	r4,r2
  8084dc:	2005883a 	mov	r2,r4
  8084e0:	dfc01f17 	ldw	ra,124(sp)
  8084e4:	df001e17 	ldw	fp,120(sp)
  8084e8:	dc001d17 	ldw	r16,116(sp)
  8084ec:	dc401c17 	ldw	r17,112(sp)
  8084f0:	dc801b17 	ldw	r18,108(sp)
  8084f4:	dcc01a17 	ldw	r19,104(sp)
  8084f8:	dd001917 	ldw	r20,100(sp)
  8084fc:	dd401817 	ldw	r21,96(sp)
  808500:	ddc01717 	ldw	r23,92(sp)
  808504:	dec02004 	addi	sp,sp,128
  808508:	f800283a 	ret
  80850c:	20800118 	cmpnei	r2,r4,4
  808510:	10009a26 	beq	r2,zero,80877c <__muldf3+0x358>
  808514:	18800098 	cmpnei	r2,r3,2
  808518:	103fe926 	beq	r2,zero,8084c0 <__muldf3+0x9c>
  80851c:	20800098 	cmpnei	r2,r4,2
  808520:	103fdb26 	beq	r2,zero,808490 <__muldf3+0x6c>
  808524:	dc000317 	ldw	r16,12(sp)
  808528:	dc800817 	ldw	r18,32(sp)
  80852c:	0013883a 	mov	r9,zero
  808530:	0007883a 	mov	r3,zero
  808534:	dcc00917 	ldw	r19,36(sp)
  808538:	480f883a 	mov	r7,r9
  80853c:	9009883a 	mov	r4,r18
  808540:	800d883a 	mov	r6,r16
  808544:	180b883a 	mov	r5,r3
  808548:	0808eb00 	call	808eb0 <__muldi3>
  80854c:	dc400417 	ldw	r17,16(sp)
  808550:	0013883a 	mov	r9,zero
  808554:	0017883a 	mov	r11,zero
  808558:	480b883a 	mov	r5,r9
  80855c:	580f883a 	mov	r7,r11
  808560:	9809883a 	mov	r4,r19
  808564:	800d883a 	mov	r6,r16
  808568:	dc401315 	stw	r17,76(sp)
  80856c:	d8801515 	stw	r2,84(sp)
  808570:	d8c01615 	stw	r3,88(sp)
  808574:	0808eb00 	call	808eb0 <__muldi3>
  808578:	d9401317 	ldw	r5,76(sp)
  80857c:	0017883a 	mov	r11,zero
  808580:	0013883a 	mov	r9,zero
  808584:	2811883a 	mov	r8,r5
  808588:	0009883a 	mov	r4,zero
  80858c:	580b883a 	mov	r5,r11
  808590:	400d883a 	mov	r6,r8
  808594:	480f883a 	mov	r7,r9
  808598:	d9001415 	stw	r4,80(sp)
  80859c:	9009883a 	mov	r4,r18
  8085a0:	9829883a 	mov	r20,r19
  8085a4:	1025883a 	mov	r18,r2
  8085a8:	1827883a 	mov	r19,r3
  8085ac:	0808eb00 	call	808eb0 <__muldi3>
  8085b0:	d9801317 	ldw	r6,76(sp)
  8085b4:	1009883a 	mov	r4,r2
  8085b8:	180b883a 	mov	r5,r3
  8085bc:	0013883a 	mov	r9,zero
  8085c0:	0007883a 	mov	r3,zero
  8085c4:	2021883a 	mov	r16,r4
  8085c8:	2823883a 	mov	r17,r5
  8085cc:	a009883a 	mov	r4,r20
  8085d0:	480b883a 	mov	r5,r9
  8085d4:	180f883a 	mov	r7,r3
  8085d8:	0808eb00 	call	808eb0 <__muldi3>
  8085dc:	9409883a 	add	r4,r18,r16
  8085e0:	2491803a 	cmpltu	r8,r4,r18
  8085e4:	9c4b883a 	add	r5,r19,r17
  8085e8:	4151883a 	add	r8,r8,r5
  8085ec:	2013883a 	mov	r9,r4
  8085f0:	4015883a 	mov	r10,r8
  8085f4:	101f883a 	mov	r15,r2
  8085f8:	0017883a 	mov	r11,zero
  8085fc:	1821883a 	mov	r16,r3
  808600:	0019883a 	mov	r12,zero
  808604:	44c0622e 	bgeu	r8,r19,808790 <__muldf3+0x36c>
  808608:	0005883a 	mov	r2,zero
  80860c:	5889883a 	add	r4,r11,r2
  808610:	22cd803a 	cmpltu	r6,r4,r11
  808614:	35cd883a 	add	r6,r6,r23
  808618:	2017883a 	mov	r11,r4
  80861c:	3019883a 	mov	r12,r6
  808620:	d9001517 	ldw	r4,84(sp)
  808624:	d9801617 	ldw	r6,88(sp)
  808628:	0025883a 	mov	r18,zero
  80862c:	2485883a 	add	r2,r4,r18
  808630:	200b883a 	mov	r5,r4
  808634:	3247883a 	add	r3,r6,r9
  808638:	1109803a 	cmpltu	r4,r2,r4
  80863c:	20c9883a 	add	r4,r4,r3
  808640:	101b883a 	mov	r13,r2
  808644:	201d883a 	mov	r14,r4
  808648:	21806236 	bltu	r4,r6,8087d4 <__muldf3+0x3b0>
  80864c:	33806026 	beq	r6,r14,8087d0 <__muldf3+0x3ac>
  808650:	53c5883a 	add	r2,r10,r15
  808654:	000b883a 	mov	r5,zero
  808658:	128d803a 	cmpltu	r6,r2,r10
  80865c:	2c07883a 	add	r3,r5,r16
  808660:	5889883a 	add	r4,r11,r2
  808664:	30c7883a 	add	r3,r6,r3
  808668:	d8800217 	ldw	r2,8(sp)
  80866c:	e1c00217 	ldw	r7,8(fp)
  808670:	60cb883a 	add	r5,r12,r3
  808674:	e2000117 	ldw	r8,4(fp)
  808678:	d8c00117 	ldw	r3,4(sp)
  80867c:	22cd803a 	cmpltu	r6,r4,r11
  808680:	11c5883a 	add	r2,r2,r7
  808684:	15000104 	addi	r20,r2,4
  808688:	314d883a 	add	r6,r6,r5
  80868c:	1a06c03a 	cmpne	r3,r3,r8
  808690:	00880034 	movhi	r2,8192
  808694:	10bfffc4 	addi	r2,r2,-1
  808698:	2013883a 	mov	r9,r4
  80869c:	3015883a 	mov	r10,r6
  8086a0:	6817883a 	mov	r11,r13
  8086a4:	d8c00b15 	stw	r3,44(sp)
  8086a8:	7019883a 	mov	r12,r14
  8086ac:	a027883a 	mov	r19,r20
  8086b0:	1180182e 	bgeu	r2,r6,808714 <__muldf3+0x2f0>
  8086b4:	1011883a 	mov	r8,r2
  8086b8:	5804d07a 	srli	r2,r11,1
  8086bc:	600697fa 	slli	r3,r12,31
  8086c0:	4808d07a 	srli	r4,r9,1
  8086c4:	500a97fa 	slli	r5,r10,31
  8086c8:	500ed07a 	srli	r7,r10,1
  8086cc:	189eb03a 	or	r15,r3,r2
  8086d0:	00800044 	movi	r2,1
  8086d4:	290cb03a 	or	r6,r5,r4
  8086d8:	a0a9883a 	add	r20,r20,r2
  8086dc:	4888703a 	and	r4,r9,r2
  8086e0:	6020d07a 	srli	r16,r12,1
  8086e4:	001b883a 	mov	r13,zero
  8086e8:	03a00034 	movhi	r14,32768
  8086ec:	73800004 	addi	r14,r14,0
  8086f0:	3013883a 	mov	r9,r6
  8086f4:	3815883a 	mov	r10,r7
  8086f8:	a027883a 	mov	r19,r20
  8086fc:	20000426 	beq	r4,zero,808710 <__muldf3+0x2ec>
  808700:	7b62b03a 	or	r17,r15,r13
  808704:	83a4b03a 	or	r18,r16,r14
  808708:	8817883a 	mov	r11,r17
  80870c:	9019883a 	mov	r12,r18
  808710:	42bfe936 	bltu	r8,r10,8086b8 <__muldf3+0x294>
  808714:	00840034 	movhi	r2,4096
  808718:	10bfffc4 	addi	r2,r2,-1
  80871c:	12801f36 	bltu	r2,r10,80879c <__muldf3+0x378>
  808720:	101f883a 	mov	r15,r2
  808724:	00000306 	br	808734 <__muldf3+0x310>
  808728:	6817883a 	mov	r11,r13
  80872c:	7019883a 	mov	r12,r14
  808730:	7a801a36 	bltu	r15,r10,80879c <__muldf3+0x378>
  808734:	5806d7fa 	srli	r3,r11,31
  808738:	6305883a 	add	r2,r12,r12
  80873c:	480ed7fa 	srli	r7,r9,31
  808740:	528d883a 	add	r6,r10,r10
  808744:	01000044 	movi	r4,1
  808748:	189cb03a 	or	r14,r3,r2
  80874c:	4904983a 	sll	r2,r9,r4
  808750:	3986b03a 	or	r3,r7,r6
  808754:	99bfffc4 	addi	r6,r19,-1
  808758:	5adb883a 	add	r13,r11,r11
  80875c:	3027883a 	mov	r19,r6
  808760:	1013883a 	mov	r9,r2
  808764:	1815883a 	mov	r10,r3
  808768:	110eb03a 	or	r7,r2,r4
  80876c:	3029883a 	mov	r20,r6
  808770:	603fed0e 	bge	r12,zero,808728 <__muldf3+0x304>
  808774:	3813883a 	mov	r9,r7
  808778:	003feb06 	br	808728 <__muldf3+0x304>
  80877c:	18800098 	cmpnei	r2,r3,2
  808780:	01002074 	movhi	r4,129
  808784:	21015a04 	addi	r4,r4,1384
  808788:	103f411e 	bne	r2,zero,808490 <__muldf3+0x6c>
  80878c:	003f5106 	br	8084d4 <__muldf3+0xb0>
  808790:	9a3fa31e 	bne	r19,r8,808620 <__muldf3+0x1fc>
  808794:	24bfa22e 	bgeu	r4,r18,808620 <__muldf3+0x1fc>
  808798:	003f9b06 	br	808608 <__muldf3+0x1e4>
  80879c:	00803fc4 	movi	r2,255
  8087a0:	488c703a 	and	r6,r9,r2
  8087a4:	00802004 	movi	r2,128
  8087a8:	0007883a 	mov	r3,zero
  8087ac:	000f883a 	mov	r7,zero
  8087b0:	dd000c15 	stw	r20,48(sp)
  8087b4:	30800e26 	beq	r6,r2,8087f0 <__muldf3+0x3cc>
  8087b8:	008000c4 	movi	r2,3
  8087bc:	d9000a04 	addi	r4,sp,40
  8087c0:	da800e15 	stw	r10,56(sp)
  8087c4:	d8800a15 	stw	r2,40(sp)
  8087c8:	da400d15 	stw	r9,52(sp)
  8087cc:	003f4106 	br	8084d4 <__muldf3+0xb0>
  8087d0:	697f9f2e 	bgeu	r13,r5,808650 <__muldf3+0x22c>
  8087d4:	00800044 	movi	r2,1
  8087d8:	5889883a 	add	r4,r11,r2
  8087dc:	22cd803a 	cmpltu	r6,r4,r11
  8087e0:	330d883a 	add	r6,r6,r12
  8087e4:	2017883a 	mov	r11,r4
  8087e8:	3019883a 	mov	r12,r6
  8087ec:	003f9806 	br	808650 <__muldf3+0x22c>
  8087f0:	383ff11e 	bne	r7,zero,8087b8 <__muldf3+0x394>
  8087f4:	01004004 	movi	r4,256
  8087f8:	4904703a 	and	r2,r9,r4
  8087fc:	10c4b03a 	or	r2,r2,r3
  808800:	1000021e 	bne	r2,zero,80880c <__muldf3+0x3e8>
  808804:	5b04b03a 	or	r2,r11,r12
  808808:	103feb26 	beq	r2,zero,8087b8 <__muldf3+0x394>
  80880c:	4989883a 	add	r4,r9,r6
  808810:	224d803a 	cmpltu	r6,r4,r9
  808814:	328d883a 	add	r6,r6,r10
  808818:	2013883a 	mov	r9,r4
  80881c:	3015883a 	mov	r10,r6
  808820:	003fe506 	br	8087b8 <__muldf3+0x394>

00808824 <__divdf3>:
  808824:	deffea04 	addi	sp,sp,-88
  808828:	2011883a 	mov	r8,r4
  80882c:	dc001415 	stw	r16,80(sp)
  808830:	d9400b15 	stw	r5,44(sp)
  808834:	d9000a04 	addi	r4,sp,40
  808838:	d80b883a 	mov	r5,sp
  80883c:	dc000504 	addi	r16,sp,20
  808840:	dfc01515 	stw	ra,84(sp)
  808844:	d9c00d15 	stw	r7,52(sp)
  808848:	da000a15 	stw	r8,40(sp)
  80884c:	d9800c15 	stw	r6,48(sp)
  808850:	dc401315 	stw	r17,76(sp)
  808854:	dc801215 	stw	r18,72(sp)
  808858:	dcc01115 	stw	r19,68(sp)
  80885c:	dd001015 	stw	r20,64(sp)
  808860:	dd400f15 	stw	r21,60(sp)
  808864:	dd800e15 	stw	r22,56(sp)
  808868:	080929c0 	call	80929c <__unpack_d>
  80886c:	d9000c04 	addi	r4,sp,48
  808870:	800b883a 	mov	r5,r16
  808874:	080929c0 	call	80929c <__unpack_d>
  808878:	d9400017 	ldw	r5,0(sp)
  80887c:	00800044 	movi	r2,1
  808880:	d83f883a 	mov	ra,sp
  808884:	d809883a 	mov	r4,sp
  808888:	11404c2e 	bgeu	r2,r5,8089bc <__divdf3+0x198>
  80888c:	81800017 	ldw	r6,0(r16)
  808890:	8009883a 	mov	r4,r16
  808894:	1180492e 	bgeu	r2,r6,8089bc <__divdf3+0x198>
  808898:	d8c00117 	ldw	r3,4(sp)
  80889c:	d9000617 	ldw	r4,24(sp)
  8088a0:	28800120 	cmpeqi	r2,r5,4
  8088a4:	1906f03a 	xor	r3,r3,r4
  8088a8:	d8c00115 	stw	r3,4(sp)
  8088ac:	1000501e 	bne	r2,zero,8089f0 <__divdf3+0x1cc>
  8088b0:	288000a0 	cmpeqi	r2,r5,2
  8088b4:	10004e1e 	bne	r2,zero,8089f0 <__divdf3+0x1cc>
  8088b8:	30800118 	cmpnei	r2,r6,4
  8088bc:	10005726 	beq	r2,zero,808a1c <__divdf3+0x1f8>
  8088c0:	30800098 	cmpnei	r2,r6,2
  8088c4:	10005a26 	beq	r2,zero,808a30 <__divdf3+0x20c>
  8088c8:	d8c00217 	ldw	r3,8(sp)
  8088cc:	d8800717 	ldw	r2,28(sp)
  8088d0:	da000417 	ldw	r8,16(sp)
  8088d4:	dd800917 	ldw	r22,36(sp)
  8088d8:	d9c00317 	ldw	r7,12(sp)
  8088dc:	dd400817 	ldw	r21,32(sp)
  8088e0:	1893c83a 	sub	r9,r3,r2
  8088e4:	4580472e 	bgeu	r8,r22,808a04 <__divdf3+0x1e0>
  8088e8:	39c5883a 	add	r2,r7,r7
  8088ec:	11cd803a 	cmpltu	r6,r2,r7
  8088f0:	4207883a 	add	r3,r8,r8
  8088f4:	30cd883a 	add	r6,r6,r3
  8088f8:	493fffc4 	addi	r4,r9,-1
  8088fc:	100f883a 	mov	r7,r2
  808900:	3011883a 	mov	r8,r6
  808904:	d9000215 	stw	r4,8(sp)
  808908:	0009883a 	mov	r4,zero
  80890c:	01440034 	movhi	r5,4096
  808910:	29400004 	addi	r5,r5,0
  808914:	2144b03a 	or	r2,r4,r5
  808918:	0027883a 	mov	r19,zero
  80891c:	0029883a 	mov	r20,zero
  808920:	1000111e 	bne	r2,zero,808968 <__divdf3+0x144>
  808924:	00001c06 	br	808998 <__divdf3+0x174>
  808928:	6827883a 	mov	r19,r13
  80892c:	7029883a 	mov	r20,r14
  808930:	580f883a 	mov	r7,r11
  808934:	1011883a 	mov	r8,r2
  808938:	2820d07a 	srli	r16,r5,1
  80893c:	39d3883a 	add	r9,r7,r7
  808940:	30deb03a 	or	r15,r6,r3
  808944:	49c5803a 	cmpltu	r2,r9,r7
  808948:	4215883a 	add	r10,r8,r8
  80894c:	1285883a 	add	r2,r2,r10
  808950:	7c06b03a 	or	r3,r15,r16
  808954:	7809883a 	mov	r4,r15
  808958:	800b883a 	mov	r5,r16
  80895c:	480f883a 	mov	r7,r9
  808960:	1011883a 	mov	r8,r2
  808964:	18000c26 	beq	r3,zero,808998 <__divdf3+0x174>
  808968:	280c97fa 	slli	r6,r5,31
  80896c:	2006d07a 	srli	r3,r4,1
  808970:	45bff136 	bltu	r8,r22,808938 <__divdf3+0x114>
  808974:	3d57c83a 	sub	r11,r7,r21
  808978:	3ac5803a 	cmpltu	r2,r7,r11
  80897c:	4599c83a 	sub	r12,r8,r22
  808980:	991ab03a 	or	r13,r19,r4
  808984:	a15cb03a 	or	r14,r20,r5
  808988:	6085c83a 	sub	r2,r12,r2
  80898c:	b23fe61e 	bne	r22,r8,808928 <__divdf3+0x104>
  808990:	3d7fe936 	bltu	r7,r21,808938 <__divdf3+0x114>
  808994:	003fe406 	br	808928 <__divdf3+0x104>
  808998:	00803fc4 	movi	r2,255
  80899c:	9892703a 	and	r9,r19,r2
  8089a0:	00802004 	movi	r2,128
  8089a4:	0007883a 	mov	r3,zero
  8089a8:	0015883a 	mov	r10,zero
  8089ac:	48802426 	beq	r9,r2,808a40 <__divdf3+0x21c>
  8089b0:	fd000415 	stw	r20,16(ra)
  8089b4:	fcc00315 	stw	r19,12(ra)
  8089b8:	f809883a 	mov	r4,ra
  8089bc:	080900c0 	call	80900c <__pack_d>
  8089c0:	1009883a 	mov	r4,r2
  8089c4:	2005883a 	mov	r2,r4
  8089c8:	dfc01517 	ldw	ra,84(sp)
  8089cc:	dc001417 	ldw	r16,80(sp)
  8089d0:	dc401317 	ldw	r17,76(sp)
  8089d4:	dc801217 	ldw	r18,72(sp)
  8089d8:	dcc01117 	ldw	r19,68(sp)
  8089dc:	dd001017 	ldw	r20,64(sp)
  8089e0:	dd400f17 	ldw	r21,60(sp)
  8089e4:	dd800e17 	ldw	r22,56(sp)
  8089e8:	dec01604 	addi	sp,sp,88
  8089ec:	f800283a 	ret
  8089f0:	01002074 	movhi	r4,129
  8089f4:	21015a04 	addi	r4,r4,1384
  8089f8:	29bff026 	beq	r5,r6,8089bc <__divdf3+0x198>
  8089fc:	d809883a 	mov	r4,sp
  808a00:	003fee06 	br	8089bc <__divdf3+0x198>
  808a04:	b2000226 	beq	r22,r8,808a10 <__divdf3+0x1ec>
  808a08:	da400215 	stw	r9,8(sp)
  808a0c:	003fbe06 	br	808908 <__divdf3+0xe4>
  808a10:	3d7fb536 	bltu	r7,r21,8088e8 <__divdf3+0xc4>
  808a14:	da400215 	stw	r9,8(sp)
  808a18:	003fbb06 	br	808908 <__divdf3+0xe4>
  808a1c:	d809883a 	mov	r4,sp
  808a20:	d8000315 	stw	zero,12(sp)
  808a24:	d8000415 	stw	zero,16(sp)
  808a28:	d8000215 	stw	zero,8(sp)
  808a2c:	003fe306 	br	8089bc <__divdf3+0x198>
  808a30:	00800104 	movi	r2,4
  808a34:	d809883a 	mov	r4,sp
  808a38:	d8800015 	stw	r2,0(sp)
  808a3c:	003fdf06 	br	8089bc <__divdf3+0x198>
  808a40:	503fdb1e 	bne	r10,zero,8089b0 <__divdf3+0x18c>
  808a44:	01004004 	movi	r4,256
  808a48:	9904703a 	and	r2,r19,r4
  808a4c:	10c4b03a 	or	r2,r2,r3
  808a50:	1000021e 	bne	r2,zero,808a5c <__divdf3+0x238>
  808a54:	3a04b03a 	or	r2,r7,r8
  808a58:	103fd526 	beq	r2,zero,8089b0 <__divdf3+0x18c>
  808a5c:	9a49883a 	add	r4,r19,r9
  808a60:	24cd803a 	cmpltu	r6,r4,r19
  808a64:	350d883a 	add	r6,r6,r20
  808a68:	2027883a 	mov	r19,r4
  808a6c:	3029883a 	mov	r20,r6
  808a70:	003fcf06 	br	8089b0 <__divdf3+0x18c>

00808a74 <__eqdf2>:
  808a74:	defff004 	addi	sp,sp,-64
  808a78:	2005883a 	mov	r2,r4
  808a7c:	dc000e15 	stw	r16,56(sp)
  808a80:	d9400b15 	stw	r5,44(sp)
  808a84:	d9000a04 	addi	r4,sp,40
  808a88:	d80b883a 	mov	r5,sp
  808a8c:	dc000504 	addi	r16,sp,20
  808a90:	d8800a15 	stw	r2,40(sp)
  808a94:	d9800c15 	stw	r6,48(sp)
  808a98:	dfc00f15 	stw	ra,60(sp)
  808a9c:	d9c00d15 	stw	r7,52(sp)
  808aa0:	080929c0 	call	80929c <__unpack_d>
  808aa4:	d9000c04 	addi	r4,sp,48
  808aa8:	800b883a 	mov	r5,r16
  808aac:	080929c0 	call	80929c <__unpack_d>
  808ab0:	d8800017 	ldw	r2,0(sp)
  808ab4:	00c00044 	movi	r3,1
  808ab8:	180d883a 	mov	r6,r3
  808abc:	1880042e 	bgeu	r3,r2,808ad0 <__eqdf2+0x5c>
  808ac0:	80800017 	ldw	r2,0(r16)
  808ac4:	800b883a 	mov	r5,r16
  808ac8:	d809883a 	mov	r4,sp
  808acc:	18800536 	bltu	r3,r2,808ae4 <__eqdf2+0x70>
  808ad0:	3005883a 	mov	r2,r6
  808ad4:	dfc00f17 	ldw	ra,60(sp)
  808ad8:	dc000e17 	ldw	r16,56(sp)
  808adc:	dec01004 	addi	sp,sp,64
  808ae0:	f800283a 	ret
  808ae4:	08093c40 	call	8093c4 <__fpcmp_parts_d>
  808ae8:	100d883a 	mov	r6,r2
  808aec:	3005883a 	mov	r2,r6
  808af0:	dfc00f17 	ldw	ra,60(sp)
  808af4:	dc000e17 	ldw	r16,56(sp)
  808af8:	dec01004 	addi	sp,sp,64
  808afc:	f800283a 	ret

00808b00 <__nedf2>:
  808b00:	defff004 	addi	sp,sp,-64
  808b04:	2005883a 	mov	r2,r4
  808b08:	dc000e15 	stw	r16,56(sp)
  808b0c:	d9400b15 	stw	r5,44(sp)
  808b10:	d9000a04 	addi	r4,sp,40
  808b14:	d80b883a 	mov	r5,sp
  808b18:	dc000504 	addi	r16,sp,20
  808b1c:	d8800a15 	stw	r2,40(sp)
  808b20:	d9800c15 	stw	r6,48(sp)
  808b24:	dfc00f15 	stw	ra,60(sp)
  808b28:	d9c00d15 	stw	r7,52(sp)
  808b2c:	080929c0 	call	80929c <__unpack_d>
  808b30:	d9000c04 	addi	r4,sp,48
  808b34:	800b883a 	mov	r5,r16
  808b38:	080929c0 	call	80929c <__unpack_d>
  808b3c:	d8800017 	ldw	r2,0(sp)
  808b40:	00c00044 	movi	r3,1
  808b44:	180d883a 	mov	r6,r3
  808b48:	1880042e 	bgeu	r3,r2,808b5c <__nedf2+0x5c>
  808b4c:	80800017 	ldw	r2,0(r16)
  808b50:	800b883a 	mov	r5,r16
  808b54:	d809883a 	mov	r4,sp
  808b58:	18800536 	bltu	r3,r2,808b70 <__nedf2+0x70>
  808b5c:	3005883a 	mov	r2,r6
  808b60:	dfc00f17 	ldw	ra,60(sp)
  808b64:	dc000e17 	ldw	r16,56(sp)
  808b68:	dec01004 	addi	sp,sp,64
  808b6c:	f800283a 	ret
  808b70:	08093c40 	call	8093c4 <__fpcmp_parts_d>
  808b74:	100d883a 	mov	r6,r2
  808b78:	3005883a 	mov	r2,r6
  808b7c:	dfc00f17 	ldw	ra,60(sp)
  808b80:	dc000e17 	ldw	r16,56(sp)
  808b84:	dec01004 	addi	sp,sp,64
  808b88:	f800283a 	ret

00808b8c <__gtdf2>:
  808b8c:	defff004 	addi	sp,sp,-64
  808b90:	2005883a 	mov	r2,r4
  808b94:	dc000e15 	stw	r16,56(sp)
  808b98:	d9400b15 	stw	r5,44(sp)
  808b9c:	d9000a04 	addi	r4,sp,40
  808ba0:	d80b883a 	mov	r5,sp
  808ba4:	dc000504 	addi	r16,sp,20
  808ba8:	d8800a15 	stw	r2,40(sp)
  808bac:	d9800c15 	stw	r6,48(sp)
  808bb0:	dfc00f15 	stw	ra,60(sp)
  808bb4:	d9c00d15 	stw	r7,52(sp)
  808bb8:	080929c0 	call	80929c <__unpack_d>
  808bbc:	d9000c04 	addi	r4,sp,48
  808bc0:	800b883a 	mov	r5,r16
  808bc4:	080929c0 	call	80929c <__unpack_d>
  808bc8:	d8800017 	ldw	r2,0(sp)
  808bcc:	00c00044 	movi	r3,1
  808bd0:	01bfffc4 	movi	r6,-1
  808bd4:	1880042e 	bgeu	r3,r2,808be8 <__gtdf2+0x5c>
  808bd8:	80800017 	ldw	r2,0(r16)
  808bdc:	800b883a 	mov	r5,r16
  808be0:	d809883a 	mov	r4,sp
  808be4:	18800536 	bltu	r3,r2,808bfc <__gtdf2+0x70>
  808be8:	3005883a 	mov	r2,r6
  808bec:	dfc00f17 	ldw	ra,60(sp)
  808bf0:	dc000e17 	ldw	r16,56(sp)
  808bf4:	dec01004 	addi	sp,sp,64
  808bf8:	f800283a 	ret
  808bfc:	08093c40 	call	8093c4 <__fpcmp_parts_d>
  808c00:	100d883a 	mov	r6,r2
  808c04:	3005883a 	mov	r2,r6
  808c08:	dfc00f17 	ldw	ra,60(sp)
  808c0c:	dc000e17 	ldw	r16,56(sp)
  808c10:	dec01004 	addi	sp,sp,64
  808c14:	f800283a 	ret

00808c18 <__gedf2>:
  808c18:	defff004 	addi	sp,sp,-64
  808c1c:	2005883a 	mov	r2,r4
  808c20:	dc000e15 	stw	r16,56(sp)
  808c24:	d9400b15 	stw	r5,44(sp)
  808c28:	d9000a04 	addi	r4,sp,40
  808c2c:	d80b883a 	mov	r5,sp
  808c30:	dc000504 	addi	r16,sp,20
  808c34:	d8800a15 	stw	r2,40(sp)
  808c38:	d9800c15 	stw	r6,48(sp)
  808c3c:	dfc00f15 	stw	ra,60(sp)
  808c40:	d9c00d15 	stw	r7,52(sp)
  808c44:	080929c0 	call	80929c <__unpack_d>
  808c48:	d9000c04 	addi	r4,sp,48
  808c4c:	800b883a 	mov	r5,r16
  808c50:	080929c0 	call	80929c <__unpack_d>
  808c54:	d8800017 	ldw	r2,0(sp)
  808c58:	00c00044 	movi	r3,1
  808c5c:	01bfffc4 	movi	r6,-1
  808c60:	1880042e 	bgeu	r3,r2,808c74 <__gedf2+0x5c>
  808c64:	80800017 	ldw	r2,0(r16)
  808c68:	800b883a 	mov	r5,r16
  808c6c:	d809883a 	mov	r4,sp
  808c70:	18800536 	bltu	r3,r2,808c88 <__gedf2+0x70>
  808c74:	3005883a 	mov	r2,r6
  808c78:	dfc00f17 	ldw	ra,60(sp)
  808c7c:	dc000e17 	ldw	r16,56(sp)
  808c80:	dec01004 	addi	sp,sp,64
  808c84:	f800283a 	ret
  808c88:	08093c40 	call	8093c4 <__fpcmp_parts_d>
  808c8c:	100d883a 	mov	r6,r2
  808c90:	3005883a 	mov	r2,r6
  808c94:	dfc00f17 	ldw	ra,60(sp)
  808c98:	dc000e17 	ldw	r16,56(sp)
  808c9c:	dec01004 	addi	sp,sp,64
  808ca0:	f800283a 	ret

00808ca4 <__ltdf2>:
  808ca4:	defff004 	addi	sp,sp,-64
  808ca8:	2005883a 	mov	r2,r4
  808cac:	dc000e15 	stw	r16,56(sp)
  808cb0:	d9400b15 	stw	r5,44(sp)
  808cb4:	d9000a04 	addi	r4,sp,40
  808cb8:	d80b883a 	mov	r5,sp
  808cbc:	dc000504 	addi	r16,sp,20
  808cc0:	d8800a15 	stw	r2,40(sp)
  808cc4:	d9800c15 	stw	r6,48(sp)
  808cc8:	dfc00f15 	stw	ra,60(sp)
  808ccc:	d9c00d15 	stw	r7,52(sp)
  808cd0:	080929c0 	call	80929c <__unpack_d>
  808cd4:	d9000c04 	addi	r4,sp,48
  808cd8:	800b883a 	mov	r5,r16
  808cdc:	080929c0 	call	80929c <__unpack_d>
  808ce0:	d8800017 	ldw	r2,0(sp)
  808ce4:	00c00044 	movi	r3,1
  808ce8:	180d883a 	mov	r6,r3
  808cec:	1880042e 	bgeu	r3,r2,808d00 <__ltdf2+0x5c>
  808cf0:	80800017 	ldw	r2,0(r16)
  808cf4:	800b883a 	mov	r5,r16
  808cf8:	d809883a 	mov	r4,sp
  808cfc:	18800536 	bltu	r3,r2,808d14 <__ltdf2+0x70>
  808d00:	3005883a 	mov	r2,r6
  808d04:	dfc00f17 	ldw	ra,60(sp)
  808d08:	dc000e17 	ldw	r16,56(sp)
  808d0c:	dec01004 	addi	sp,sp,64
  808d10:	f800283a 	ret
  808d14:	08093c40 	call	8093c4 <__fpcmp_parts_d>
  808d18:	100d883a 	mov	r6,r2
  808d1c:	3005883a 	mov	r2,r6
  808d20:	dfc00f17 	ldw	ra,60(sp)
  808d24:	dc000e17 	ldw	r16,56(sp)
  808d28:	dec01004 	addi	sp,sp,64
  808d2c:	f800283a 	ret

00808d30 <__floatsidf>:
  808d30:	2006d7fa 	srli	r3,r4,31
  808d34:	defffa04 	addi	sp,sp,-24
  808d38:	dfc00515 	stw	ra,20(sp)
  808d3c:	d8c00115 	stw	r3,4(sp)
  808d40:	20000b1e 	bne	r4,zero,808d70 <__floatsidf+0x40>
  808d44:	00800084 	movi	r2,2
  808d48:	d8800015 	stw	r2,0(sp)
  808d4c:	d809883a 	mov	r4,sp
  808d50:	080900c0 	call	80900c <__pack_d>
  808d54:	100d883a 	mov	r6,r2
  808d58:	180f883a 	mov	r7,r3
  808d5c:	3807883a 	mov	r3,r7
  808d60:	3005883a 	mov	r2,r6
  808d64:	dfc00517 	ldw	ra,20(sp)
  808d68:	dec00604 	addi	sp,sp,24
  808d6c:	f800283a 	ret
  808d70:	02c00f04 	movi	r11,60
  808d74:	008000c4 	movi	r2,3
  808d78:	d8800015 	stw	r2,0(sp)
  808d7c:	5815883a 	mov	r10,r11
  808d80:	18000426 	beq	r3,zero,808d94 <__floatsidf+0x64>
  808d84:	00a00034 	movhi	r2,32768
  808d88:	10800004 	addi	r2,r2,0
  808d8c:	20801726 	beq	r4,r2,808dec <__floatsidf+0xbc>
  808d90:	0109c83a 	sub	r4,zero,r4
  808d94:	2007d7fa 	srai	r3,r4,31
  808d98:	03040034 	movhi	r12,4096
  808d9c:	633fffc4 	addi	r12,r12,-1
  808da0:	d9000315 	stw	r4,12(sp)
  808da4:	d8c00415 	stw	r3,16(sp)
  808da8:	da400417 	ldw	r9,16(sp)
  808dac:	62400d36 	bltu	r12,r9,808de4 <__floatsidf+0xb4>
  808db0:	d8800317 	ldw	r2,12(sp)
  808db4:	d8c00417 	ldw	r3,16(sp)
  808db8:	51bfffc4 	addi	r6,r10,-1
  808dbc:	3015883a 	mov	r10,r6
  808dc0:	3017883a 	mov	r11,r6
  808dc4:	100ed7fa 	srli	r7,r2,31
  808dc8:	18cd883a 	add	r6,r3,r3
  808dcc:	1089883a 	add	r4,r2,r2
  808dd0:	398ab03a 	or	r5,r7,r6
  808dd4:	2813883a 	mov	r9,r5
  808dd8:	d9000315 	stw	r4,12(sp)
  808ddc:	d9400415 	stw	r5,16(sp)
  808de0:	627ff32e 	bgeu	r12,r9,808db0 <__floatsidf+0x80>
  808de4:	dac00215 	stw	r11,8(sp)
  808de8:	003fd806 	br	808d4c <__floatsidf+0x1c>
  808dec:	000d883a 	mov	r6,zero
  808df0:	01f07834 	movhi	r7,49632
  808df4:	39c00004 	addi	r7,r7,0
  808df8:	dac00215 	stw	r11,8(sp)
  808dfc:	003fd706 	br	808d5c <__floatsidf+0x2c>

00808e00 <__fixdfsi>:
  808e00:	defff804 	addi	sp,sp,-32
  808e04:	2005883a 	mov	r2,r4
  808e08:	d9400615 	stw	r5,24(sp)
  808e0c:	d9000504 	addi	r4,sp,20
  808e10:	d80b883a 	mov	r5,sp
  808e14:	d8800515 	stw	r2,20(sp)
  808e18:	dfc00715 	stw	ra,28(sp)
  808e1c:	080929c0 	call	80929c <__unpack_d>
  808e20:	d8c00017 	ldw	r3,0(sp)
  808e24:	000b883a 	mov	r5,zero
  808e28:	18800098 	cmpnei	r2,r3,2
  808e2c:	10000f26 	beq	r2,zero,808e6c <__fixdfsi+0x6c>
  808e30:	00800044 	movi	r2,1
  808e34:	10c00d2e 	bgeu	r2,r3,808e6c <__fixdfsi+0x6c>
  808e38:	18800118 	cmpnei	r2,r3,4
  808e3c:	10000526 	beq	r2,zero,808e54 <__fixdfsi+0x54>
  808e40:	d9000217 	ldw	r4,8(sp)
  808e44:	000b883a 	mov	r5,zero
  808e48:	20000816 	blt	r4,zero,808e6c <__fixdfsi+0x6c>
  808e4c:	00800784 	movi	r2,30
  808e50:	11000a0e 	bge	r2,r4,808e7c <__fixdfsi+0x7c>
  808e54:	d8800117 	ldw	r2,4(sp)
  808e58:	00e00034 	movhi	r3,32768
  808e5c:	18c00004 	addi	r3,r3,0
  808e60:	1000011e 	bne	r2,zero,808e68 <__fixdfsi+0x68>
  808e64:	18ffffc4 	addi	r3,r3,-1
  808e68:	180b883a 	mov	r5,r3
  808e6c:	2805883a 	mov	r2,r5
  808e70:	dfc00717 	ldw	ra,28(sp)
  808e74:	dec00804 	addi	sp,sp,32
  808e78:	f800283a 	ret
  808e7c:	d8800317 	ldw	r2,12(sp)
  808e80:	d8c00417 	ldw	r3,16(sp)
  808e84:	01800f04 	movi	r6,60
  808e88:	310dc83a 	sub	r6,r6,r4
  808e8c:	180b883a 	mov	r5,r3
  808e90:	1009883a 	mov	r4,r2
  808e94:	0808fbc0 	call	808fbc <__lshrdi3>
  808e98:	1007883a 	mov	r3,r2
  808e9c:	d8800117 	ldw	r2,4(sp)
  808ea0:	103ff126 	beq	r2,zero,808e68 <__fixdfsi+0x68>
  808ea4:	00c7c83a 	sub	r3,zero,r3
  808ea8:	180b883a 	mov	r5,r3
  808eac:	003fef06 	br	808e6c <__fixdfsi+0x6c>

00808eb0 <__muldi3>:
  808eb0:	defff404 	addi	sp,sp,-48
  808eb4:	dc400a15 	stw	r17,40(sp)
  808eb8:	ddc00615 	stw	r23,24(sp)
  808ebc:	247fffcc 	andi	r17,r4,65535
  808ec0:	35ffffcc 	andi	r23,r6,65535
  808ec4:	d9000015 	stw	r4,0(sp)
  808ec8:	d9400115 	stw	r5,4(sp)
  808ecc:	8809883a 	mov	r4,r17
  808ed0:	b80b883a 	mov	r5,r23
  808ed4:	d9800215 	stw	r6,8(sp)
  808ed8:	d9c00315 	stw	r7,12(sp)
  808edc:	dfc00b15 	stw	ra,44(sp)
  808ee0:	dcc00915 	stw	r19,36(sp)
  808ee4:	dd000815 	stw	r20,32(sp)
  808ee8:	dd400715 	stw	r21,28(sp)
  808eec:	3028d43a 	srli	r20,r6,16
  808ef0:	08007a40 	call	8007a4 <__mulsi3>
  808ef4:	1027883a 	mov	r19,r2
  808ef8:	d8800017 	ldw	r2,0(sp)
  808efc:	8809883a 	mov	r4,r17
  808f00:	a00b883a 	mov	r5,r20
  808f04:	102ad43a 	srli	r21,r2,16
  808f08:	08007a40 	call	8007a4 <__mulsi3>
  808f0c:	b80b883a 	mov	r5,r23
  808f10:	a809883a 	mov	r4,r21
  808f14:	1023883a 	mov	r17,r2
  808f18:	08007a40 	call	8007a4 <__mulsi3>
  808f1c:	a809883a 	mov	r4,r21
  808f20:	a00b883a 	mov	r5,r20
  808f24:	102f883a 	mov	r23,r2
  808f28:	08007a40 	call	8007a4 <__mulsi3>
  808f2c:	98ffffcc 	andi	r3,r19,65535
  808f30:	9826d43a 	srli	r19,r19,16
  808f34:	100d883a 	mov	r6,r2
  808f38:	d9000017 	ldw	r4,0(sp)
  808f3c:	8ce3883a 	add	r17,r17,r19
  808f40:	8de3883a 	add	r17,r17,r23
  808f44:	8804943a 	slli	r2,r17,16
  808f48:	d9400317 	ldw	r5,12(sp)
  808f4c:	880ed43a 	srli	r7,r17,16
  808f50:	10c7883a 	add	r3,r2,r3
  808f54:	1811883a 	mov	r8,r3
  808f58:	8dc0032e 	bgeu	r17,r23,808f68 <__muldi3+0xb8>
  808f5c:	00800074 	movhi	r2,1
  808f60:	10800004 	addi	r2,r2,0
  808f64:	308d883a 	add	r6,r6,r2
  808f68:	39ab883a 	add	r21,r7,r6
  808f6c:	da000415 	stw	r8,16(sp)
  808f70:	da400515 	stw	r9,20(sp)
  808f74:	08007a40 	call	8007a4 <__mulsi3>
  808f78:	d9000117 	ldw	r4,4(sp)
  808f7c:	d9400217 	ldw	r5,8(sp)
  808f80:	1023883a 	mov	r17,r2
  808f84:	08007a40 	call	8007a4 <__mulsi3>
  808f88:	da000417 	ldw	r8,16(sp)
  808f8c:	88a3883a 	add	r17,r17,r2
  808f90:	8d4f883a 	add	r7,r17,r21
  808f94:	4005883a 	mov	r2,r8
  808f98:	3807883a 	mov	r3,r7
  808f9c:	dfc00b17 	ldw	ra,44(sp)
  808fa0:	dc400a17 	ldw	r17,40(sp)
  808fa4:	dcc00917 	ldw	r19,36(sp)
  808fa8:	dd000817 	ldw	r20,32(sp)
  808fac:	dd400717 	ldw	r21,28(sp)
  808fb0:	ddc00617 	ldw	r23,24(sp)
  808fb4:	dec00c04 	addi	sp,sp,48
  808fb8:	f800283a 	ret

00808fbc <__lshrdi3>:
  808fbc:	00800804 	movi	r2,32
  808fc0:	119bc83a 	sub	r13,r2,r6
  808fc4:	2013883a 	mov	r9,r4
  808fc8:	2005883a 	mov	r2,r4
  808fcc:	2815883a 	mov	r10,r5
  808fd0:	30000826 	beq	r6,zero,808ff4 <__lshrdi3+0x38>
  808fd4:	1186d83a 	srl	r3,r2,r6
  808fd8:	0349c83a 	sub	r4,zero,r13
  808fdc:	2b44983a 	sll	r2,r5,r13
  808fe0:	0340070e 	bge	zero,r13,809000 <__lshrdi3+0x44>
  808fe4:	2998d83a 	srl	r12,r5,r6
  808fe8:	1896b03a 	or	r11,r3,r2
  808fec:	5813883a 	mov	r9,r11
  808ff0:	6015883a 	mov	r10,r12
  808ff4:	5007883a 	mov	r3,r10
  808ff8:	4805883a 	mov	r2,r9
  808ffc:	f800283a 	ret
  809000:	2916d83a 	srl	r11,r5,r4
  809004:	0019883a 	mov	r12,zero
  809008:	003ff806 	br	808fec <__lshrdi3+0x30>

0080900c <__pack_d>:
  80900c:	defff604 	addi	sp,sp,-40
  809010:	dcc00415 	stw	r19,16(sp)
  809014:	dd000315 	stw	r20,12(sp)
  809018:	dd400215 	stw	r21,8(sp)
  80901c:	dfc00915 	stw	ra,36(sp)
  809020:	df000815 	stw	fp,32(sp)
  809024:	dc000715 	stw	r16,28(sp)
  809028:	dc400615 	stw	r17,24(sp)
  80902c:	dc800515 	stw	r18,20(sp)
  809030:	dd800115 	stw	r22,4(sp)
  809034:	ddc00015 	stw	r23,0(sp)
  809038:	20c00017 	ldw	r3,0(r4)
  80903c:	05000044 	movi	r20,1
  809040:	24000317 	ldw	r16,12(r4)
  809044:	0027883a 	mov	r19,zero
  809048:	24400417 	ldw	r17,16(r4)
  80904c:	25c00117 	ldw	r23,4(r4)
  809050:	002b883a 	mov	r21,zero
  809054:	a0c02636 	bltu	r20,r3,8090f0 <__pack_d+0xe4>
  809058:	0005883a 	mov	r2,zero
  80905c:	00c00234 	movhi	r3,8
  809060:	18c00004 	addi	r3,r3,0
  809064:	8088b03a 	or	r4,r16,r2
  809068:	88cab03a 	or	r5,r17,r3
  80906c:	2021883a 	mov	r16,r4
  809070:	2823883a 	mov	r17,r5
  809074:	0541ffc4 	movi	r21,2047
  809078:	a941ffcc 	andi	r5,r21,2047
  80907c:	00c00434 	movhi	r3,16
  809080:	18ffffc4 	addi	r3,r3,-1
  809084:	88c6703a 	and	r3,r17,r3
  809088:	280a953a 	slli	r5,r5,20
  80908c:	993ffc2c 	andhi	r4,r19,65520
  809090:	20e6b03a 	or	r19,r4,r3
  809094:	00a00434 	movhi	r2,32784
  809098:	10bfffc4 	addi	r2,r2,-1
  80909c:	b80697fa 	slli	r3,r23,31
  8090a0:	9884703a 	and	r2,r19,r2
  8090a4:	1166b03a 	or	r19,r2,r5
  8090a8:	01e00034 	movhi	r7,32768
  8090ac:	39ffffc4 	addi	r7,r7,-1
  8090b0:	99ce703a 	and	r7,r19,r7
  8090b4:	38ceb03a 	or	r7,r7,r3
  8090b8:	8005883a 	mov	r2,r16
  8090bc:	3807883a 	mov	r3,r7
  8090c0:	dfc00917 	ldw	ra,36(sp)
  8090c4:	df000817 	ldw	fp,32(sp)
  8090c8:	dc000717 	ldw	r16,28(sp)
  8090cc:	dc400617 	ldw	r17,24(sp)
  8090d0:	dc800517 	ldw	r18,20(sp)
  8090d4:	dcc00417 	ldw	r19,16(sp)
  8090d8:	dd000317 	ldw	r20,12(sp)
  8090dc:	dd400217 	ldw	r21,8(sp)
  8090e0:	dd800117 	ldw	r22,4(sp)
  8090e4:	ddc00017 	ldw	r23,0(sp)
  8090e8:	dec00a04 	addi	sp,sp,40
  8090ec:	f800283a 	ret
  8090f0:	18800118 	cmpnei	r2,r3,4
  8090f4:	10003926 	beq	r2,zero,8091dc <__pack_d+0x1d0>
  8090f8:	18800098 	cmpnei	r2,r3,2
  8090fc:	10003b26 	beq	r2,zero,8091ec <__pack_d+0x1e0>
  809100:	8444b03a 	or	r2,r16,r17
  809104:	103fdc26 	beq	r2,zero,809078 <__pack_d+0x6c>
  809108:	21000217 	ldw	r4,8(r4)
  80910c:	01bf0084 	movi	r6,-1022
  809110:	2180300e 	bge	r4,r6,8091d4 <__pack_d+0x1c8>
  809114:	312dc83a 	sub	r22,r6,r4
  809118:	00800e04 	movi	r2,56
  80911c:	15804e16 	blt	r2,r22,809258 <__pack_d+0x24c>
  809120:	a009883a 	mov	r4,r20
  809124:	000b883a 	mov	r5,zero
  809128:	b00d883a 	mov	r6,r22
  80912c:	08094d80 	call	8094d8 <__ashldi3>
  809130:	01bfffc4 	movi	r6,-1
  809134:	1189883a 	add	r4,r2,r6
  809138:	2095803a 	cmpltu	r10,r4,r2
  80913c:	198b883a 	add	r5,r3,r6
  809140:	514b883a 	add	r5,r10,r5
  809144:	2404703a 	and	r2,r4,r16
  809148:	2c46703a 	and	r3,r5,r17
  80914c:	10c4b03a 	or	r2,r2,r3
  809150:	0039883a 	mov	fp,zero
  809154:	10000126 	beq	r2,zero,80915c <__pack_d+0x150>
  809158:	a039883a 	mov	fp,r20
  80915c:	880b883a 	mov	r5,r17
  809160:	8009883a 	mov	r4,r16
  809164:	b00d883a 	mov	r6,r22
  809168:	0808fbc0 	call	808fbc <__lshrdi3>
  80916c:	000b883a 	mov	r5,zero
  809170:	1720b03a 	or	r16,r2,fp
  809174:	1962b03a 	or	r17,r3,r5
  809178:	00803fc4 	movi	r2,255
  80917c:	808c703a 	and	r6,r16,r2
  809180:	00802004 	movi	r2,128
  809184:	0007883a 	mov	r3,zero
  809188:	000f883a 	mov	r7,zero
  80918c:	30803526 	beq	r6,r2,809264 <__pack_d+0x258>
  809190:	00801fc4 	movi	r2,127
  809194:	8089883a 	add	r4,r16,r2
  809198:	240d803a 	cmpltu	r6,r4,r16
  80919c:	344d883a 	add	r6,r6,r17
  8091a0:	2021883a 	mov	r16,r4
  8091a4:	3023883a 	mov	r17,r6
  8091a8:	00840034 	movhi	r2,4096
  8091ac:	10bfffc4 	addi	r2,r2,-1
  8091b0:	1440012e 	bgeu	r2,r17,8091b8 <__pack_d+0x1ac>
  8091b4:	05400044 	movi	r21,1
  8091b8:	880a963a 	slli	r5,r17,24
  8091bc:	8008d23a 	srli	r4,r16,8
  8091c0:	8806d23a 	srli	r3,r17,8
  8091c4:	2904b03a 	or	r2,r5,r4
  8091c8:	1021883a 	mov	r16,r2
  8091cc:	1823883a 	mov	r17,r3
  8091d0:	003fa906 	br	809078 <__pack_d+0x6c>
  8091d4:	0080ffc4 	movi	r2,1023
  8091d8:	1100070e 	bge	r2,r4,8091f8 <__pack_d+0x1ec>
  8091dc:	0021883a 	mov	r16,zero
  8091e0:	0541ffc4 	movi	r21,2047
  8091e4:	0023883a 	mov	r17,zero
  8091e8:	003fa306 	br	809078 <__pack_d+0x6c>
  8091ec:	0021883a 	mov	r16,zero
  8091f0:	0023883a 	mov	r17,zero
  8091f4:	003fa006 	br	809078 <__pack_d+0x6c>
  8091f8:	00803fc4 	movi	r2,255
  8091fc:	808e703a 	and	r7,r16,r2
  809200:	00802004 	movi	r2,128
  809204:	0007883a 	mov	r3,zero
  809208:	0011883a 	mov	r8,zero
  80920c:	2540ffc4 	addi	r21,r4,1023
  809210:	38801b26 	beq	r7,r2,809280 <__pack_d+0x274>
  809214:	00801fc4 	movi	r2,127
  809218:	8089883a 	add	r4,r16,r2
  80921c:	240d803a 	cmpltu	r6,r4,r16
  809220:	344d883a 	add	r6,r6,r17
  809224:	2021883a 	mov	r16,r4
  809228:	3023883a 	mov	r17,r6
  80922c:	00880034 	movhi	r2,8192
  809230:	10bfffc4 	addi	r2,r2,-1
  809234:	147fe02e 	bgeu	r2,r17,8091b8 <__pack_d+0x1ac>
  809238:	880a97fa 	slli	r5,r17,31
  80923c:	8008d07a 	srli	r4,r16,1
  809240:	8806d07a 	srli	r3,r17,1
  809244:	ad400044 	addi	r21,r21,1
  809248:	2904b03a 	or	r2,r5,r4
  80924c:	1021883a 	mov	r16,r2
  809250:	1823883a 	mov	r17,r3
  809254:	003fd806 	br	8091b8 <__pack_d+0x1ac>
  809258:	0021883a 	mov	r16,zero
  80925c:	0023883a 	mov	r17,zero
  809260:	003fc506 	br	809178 <__pack_d+0x16c>
  809264:	383fca1e 	bne	r7,zero,809190 <__pack_d+0x184>
  809268:	01004004 	movi	r4,256
  80926c:	8104703a 	and	r2,r16,r4
  809270:	10c4b03a 	or	r2,r2,r3
  809274:	103fcc26 	beq	r2,zero,8091a8 <__pack_d+0x19c>
  809278:	3005883a 	mov	r2,r6
  80927c:	003fc506 	br	809194 <__pack_d+0x188>
  809280:	403fe41e 	bne	r8,zero,809214 <__pack_d+0x208>
  809284:	01004004 	movi	r4,256
  809288:	8104703a 	and	r2,r16,r4
  80928c:	10c4b03a 	or	r2,r2,r3
  809290:	103fe626 	beq	r2,zero,80922c <__pack_d+0x220>
  809294:	3805883a 	mov	r2,r7
  809298:	003fdf06 	br	809218 <__pack_d+0x20c>

0080929c <__unpack_d>:
  80929c:	21800117 	ldw	r6,4(r4)
  8092a0:	00800434 	movhi	r2,16
  8092a4:	10bfffc4 	addi	r2,r2,-1
  8092a8:	22400017 	ldw	r9,0(r4)
  8092ac:	3010d53a 	srli	r8,r6,20
  8092b0:	3006d7fa 	srli	r3,r6,31
  8092b4:	2817883a 	mov	r11,r5
  8092b8:	4201ffcc 	andi	r8,r8,2047
  8092bc:	28c00115 	stw	r3,4(r5)
  8092c0:	3094703a 	and	r10,r6,r2
  8092c4:	4000051e 	bne	r8,zero,8092dc <__unpack_d+0x40>
  8092c8:	4a84b03a 	or	r2,r9,r10
  8092cc:	1000151e 	bne	r2,zero,809324 <__unpack_d+0x88>
  8092d0:	00800084 	movi	r2,2
  8092d4:	58800015 	stw	r2,0(r11)
  8092d8:	f800283a 	ret
  8092dc:	0081ffc4 	movi	r2,2047
  8092e0:	40802a26 	beq	r8,r2,80938c <__unpack_d+0xf0>
  8092e4:	480ad63a 	srli	r5,r9,24
  8092e8:	5008923a 	slli	r4,r10,8
  8092ec:	480c923a 	slli	r6,r9,8
  8092f0:	0005883a 	mov	r2,zero
  8092f4:	290eb03a 	or	r7,r5,r4
  8092f8:	00c40034 	movhi	r3,4096
  8092fc:	18c00004 	addi	r3,r3,0
  809300:	3088b03a 	or	r4,r6,r2
  809304:	423f0044 	addi	r8,r8,-1023
  809308:	38cab03a 	or	r5,r7,r3
  80930c:	008000c4 	movi	r2,3
  809310:	59400415 	stw	r5,16(r11)
  809314:	5a000215 	stw	r8,8(r11)
  809318:	58800015 	stw	r2,0(r11)
  80931c:	59000315 	stw	r4,12(r11)
  809320:	f800283a 	ret
  809324:	5008923a 	slli	r4,r10,8
  809328:	480ad63a 	srli	r5,r9,24
  80932c:	4804923a 	slli	r2,r9,8
  809330:	01bf0084 	movi	r6,-1022
  809334:	2906b03a 	or	r3,r5,r4
  809338:	02040034 	movhi	r8,4096
  80933c:	423fffc4 	addi	r8,r8,-1
  809340:	010000c4 	movi	r4,3
  809344:	1815883a 	mov	r10,r3
  809348:	59000015 	stw	r4,0(r11)
  80934c:	1013883a 	mov	r9,r2
  809350:	300f883a 	mov	r7,r6
  809354:	42800936 	bltu	r8,r10,80937c <__unpack_d+0xe0>
  809358:	480ad7fa 	srli	r5,r9,31
  80935c:	5289883a 	add	r4,r10,r10
  809360:	4a45883a 	add	r2,r9,r9
  809364:	31bfffc4 	addi	r6,r6,-1
  809368:	2906b03a 	or	r3,r5,r4
  80936c:	300f883a 	mov	r7,r6
  809370:	1013883a 	mov	r9,r2
  809374:	1815883a 	mov	r10,r3
  809378:	42bff72e 	bgeu	r8,r10,809358 <__unpack_d+0xbc>
  80937c:	5a800415 	stw	r10,16(r11)
  809380:	59c00215 	stw	r7,8(r11)
  809384:	5a400315 	stw	r9,12(r11)
  809388:	f800283a 	ret
  80938c:	4a84b03a 	or	r2,r9,r10
  809390:	1000021e 	bne	r2,zero,80939c <__unpack_d+0x100>
  809394:	00800104 	movi	r2,4
  809398:	003fce06 	br	8092d4 <__unpack_d+0x38>
  80939c:	5004d4fa 	srli	r2,r10,19
  8093a0:	1080004c 	andi	r2,r2,1
  8093a4:	10000426 	beq	r2,zero,8093b8 <__unpack_d+0x11c>
  8093a8:	00800044 	movi	r2,1
  8093ac:	28800015 	stw	r2,0(r5)
  8093b0:	5a800415 	stw	r10,16(r11)
  8093b4:	003ff306 	br	809384 <__unpack_d+0xe8>
  8093b8:	28000015 	stw	zero,0(r5)
  8093bc:	5a800415 	stw	r10,16(r11)
  8093c0:	003ff006 	br	809384 <__unpack_d+0xe8>

008093c4 <__fpcmp_parts_d>:
  8093c4:	20c00017 	ldw	r3,0(r4)
  8093c8:	00800044 	movi	r2,1
  8093cc:	10c0022e 	bgeu	r2,r3,8093d8 <__fpcmp_parts_d+0x14>
  8093d0:	29800017 	ldw	r6,0(r5)
  8093d4:	11800136 	bltu	r2,r6,8093dc <__fpcmp_parts_d+0x18>
  8093d8:	f800283a 	ret
  8093dc:	18800118 	cmpnei	r2,r3,4
  8093e0:	10001126 	beq	r2,zero,809428 <__fpcmp_parts_d+0x64>
  8093e4:	18800118 	cmpnei	r2,r3,4
  8093e8:	10001426 	beq	r2,zero,80943c <__fpcmp_parts_d+0x78>
  8093ec:	30800118 	cmpnei	r2,r6,4
  8093f0:	10002f26 	beq	r2,zero,8094b0 <__fpcmp_parts_d+0xec>
  8093f4:	18800098 	cmpnei	r2,r3,2
  8093f8:	10003226 	beq	r2,zero,8094c4 <__fpcmp_parts_d+0x100>
  8093fc:	18800098 	cmpnei	r2,r3,2
  809400:	10002b26 	beq	r2,zero,8094b0 <__fpcmp_parts_d+0xec>
  809404:	30800098 	cmpnei	r2,r6,2
  809408:	10000c26 	beq	r2,zero,80943c <__fpcmp_parts_d+0x78>
  80940c:	22000117 	ldw	r8,4(r4)
  809410:	28800117 	ldw	r2,4(r5)
  809414:	40800f26 	beq	r8,r2,809454 <__fpcmp_parts_d+0x90>
  809418:	00bfffc4 	movi	r2,-1
  80941c:	403fee1e 	bne	r8,zero,8093d8 <__fpcmp_parts_d+0x14>
  809420:	00800044 	movi	r2,1
  809424:	f800283a 	ret
  809428:	30ffee1e 	bne	r6,r3,8093e4 <__fpcmp_parts_d+0x20>
  80942c:	28c00117 	ldw	r3,4(r5)
  809430:	20800117 	ldw	r2,4(r4)
  809434:	1885c83a 	sub	r2,r3,r2
  809438:	f800283a 	ret
  80943c:	20800117 	ldw	r2,4(r4)
  809440:	00ffffc4 	movi	r3,-1
  809444:	1000011e 	bne	r2,zero,80944c <__fpcmp_parts_d+0x88>
  809448:	00c00044 	movi	r3,1
  80944c:	1805883a 	mov	r2,r3
  809450:	f800283a 	ret
  809454:	20c00217 	ldw	r3,8(r4)
  809458:	28800217 	ldw	r2,8(r5)
  80945c:	10ffee16 	blt	r2,r3,809418 <__fpcmp_parts_d+0x54>
  809460:	18800f16 	blt	r3,r2,8094a0 <__fpcmp_parts_d+0xdc>
  809464:	21c00417 	ldw	r7,16(r4)
  809468:	28c00417 	ldw	r3,16(r5)
  80946c:	21800317 	ldw	r6,12(r4)
  809470:	28800317 	ldw	r2,12(r5)
  809474:	19ffe836 	bltu	r3,r7,809418 <__fpcmp_parts_d+0x54>
  809478:	38c01526 	beq	r7,r3,8094d0 <__fpcmp_parts_d+0x10c>
  80947c:	29c00417 	ldw	r7,16(r5)
  809480:	20c00417 	ldw	r3,16(r4)
  809484:	29800317 	ldw	r6,12(r5)
  809488:	20800317 	ldw	r2,12(r4)
  80948c:	19c00436 	bltu	r3,r7,8094a0 <__fpcmp_parts_d+0xdc>
  809490:	38c00226 	beq	r7,r3,80949c <__fpcmp_parts_d+0xd8>
  809494:	0005883a 	mov	r2,zero
  809498:	f800283a 	ret
  80949c:	11bffd2e 	bgeu	r2,r6,809494 <__fpcmp_parts_d+0xd0>
  8094a0:	00800044 	movi	r2,1
  8094a4:	403fcc1e 	bne	r8,zero,8093d8 <__fpcmp_parts_d+0x14>
  8094a8:	00bfffc4 	movi	r2,-1
  8094ac:	f800283a 	ret
  8094b0:	28800117 	ldw	r2,4(r5)
  8094b4:	00c00044 	movi	r3,1
  8094b8:	103fe41e 	bne	r2,zero,80944c <__fpcmp_parts_d+0x88>
  8094bc:	00ffffc4 	movi	r3,-1
  8094c0:	003fe206 	br	80944c <__fpcmp_parts_d+0x88>
  8094c4:	0005883a 	mov	r2,zero
  8094c8:	30ffcc1e 	bne	r6,r3,8093fc <__fpcmp_parts_d+0x38>
  8094cc:	f800283a 	ret
  8094d0:	11bfea2e 	bgeu	r2,r6,80947c <__fpcmp_parts_d+0xb8>
  8094d4:	003fd006 	br	809418 <__fpcmp_parts_d+0x54>

008094d8 <__ashldi3>:
  8094d8:	00800804 	movi	r2,32
  8094dc:	119bc83a 	sub	r13,r2,r6
  8094e0:	2013883a 	mov	r9,r4
  8094e4:	2005883a 	mov	r2,r4
  8094e8:	2815883a 	mov	r10,r5
  8094ec:	30000826 	beq	r6,zero,809510 <__ashldi3+0x38>
  8094f0:	0349c83a 	sub	r4,zero,r13
  8094f4:	2986983a 	sll	r3,r5,r6
  8094f8:	1344d83a 	srl	r2,r2,r13
  8094fc:	0340070e 	bge	zero,r13,80951c <__ashldi3+0x44>
  809500:	4996983a 	sll	r11,r9,r6
  809504:	1898b03a 	or	r12,r3,r2
  809508:	5813883a 	mov	r9,r11
  80950c:	6015883a 	mov	r10,r12
  809510:	5007883a 	mov	r3,r10
  809514:	4805883a 	mov	r2,r9
  809518:	f800283a 	ret
  80951c:	4918983a 	sll	r12,r9,r4
  809520:	0017883a 	mov	r11,zero
  809524:	003ff806 	br	809508 <__ashldi3+0x30>

00809528 <close>:
 * ALT_CLOSE is mapped onto the close() system call in alt_syscall.h
 */
 
int ALT_CLOSE (int fildes)
{
  809528:	defff804 	addi	sp,sp,-32
  80952c:	dfc00715 	stw	ra,28(sp)
  809530:	df000615 	stw	fp,24(sp)
  809534:	df000604 	addi	fp,sp,24
  809538:	e13ffa15 	stw	r4,-24(fp)
  alt_fd* fd;
  int     rval;

  /*
   * A common error case is that when the file descriptor was created, the call
   * to open() failed resulting in a negative file descriptor. This is trapped
   * below so that we don't try and process an invalid file descriptor.
   */

  fd = (fildes < 0) ? NULL : &alt_fd_list[fildes];
  80953c:	e0bffa17 	ldw	r2,-24(fp)
  809540:	1004803a 	cmplt	r2,r2,zero
  809544:	1000091e 	bne	r2,zero,80956c <close+0x44>
  809548:	e13ffa17 	ldw	r4,-24(fp)
  80954c:	01400304 	movi	r5,12
  809550:	08007a40 	call	8007a4 <__mulsi3>
  809554:	1007883a 	mov	r3,r2
  809558:	00802074 	movhi	r2,129
  80955c:	1083b504 	addi	r2,r2,3796
  809560:	1887883a 	add	r3,r3,r2
  809564:	e0fffe15 	stw	r3,-8(fp)
  809568:	00000106 	br	809570 <close+0x48>
  80956c:	e03ffe15 	stw	zero,-8(fp)
  809570:	e0bffe17 	ldw	r2,-8(fp)
  809574:	e0bffb15 	stw	r2,-20(fp)

  if (fd)
  809578:	e0bffb17 	ldw	r2,-20(fp)
  80957c:	1005003a 	cmpeq	r2,r2,zero
  809580:	10001d1e 	bne	r2,zero,8095f8 <close+0xd0>
  {
    /*
     * If the associated file system/device has a close function, call it so 
     * that any necessary cleanup code can run.
     */

    rval = (fd->dev->close) ? fd->dev->close(fd) : 0;
  809584:	e0bffb17 	ldw	r2,-20(fp)
  809588:	10800017 	ldw	r2,0(r2)
  80958c:	10800417 	ldw	r2,16(r2)
  809590:	1005003a 	cmpeq	r2,r2,zero
  809594:	1000071e 	bne	r2,zero,8095b4 <close+0x8c>
  809598:	e0bffb17 	ldw	r2,-20(fp)
  80959c:	10800017 	ldw	r2,0(r2)
  8095a0:	10800417 	ldw	r2,16(r2)
  8095a4:	e13ffb17 	ldw	r4,-20(fp)
  8095a8:	103ee83a 	callr	r2
  8095ac:	e0bfff15 	stw	r2,-4(fp)
  8095b0:	00000106 	br	8095b8 <close+0x90>
  8095b4:	e03fff15 	stw	zero,-4(fp)
  8095b8:	e0bfff17 	ldw	r2,-4(fp)
  8095bc:	e0bffc15 	stw	r2,-16(fp)

    /* Free the file descriptor structure and return. */

    alt_release_fd (fildes);
  8095c0:	e13ffa17 	ldw	r4,-24(fp)
  8095c4:	0809ce40 	call	809ce4 <alt_release_fd>
    if (rval < 0)
  8095c8:	e0bffc17 	ldw	r2,-16(fp)
  8095cc:	1004403a 	cmpge	r2,r2,zero
  8095d0:	1000071e 	bne	r2,zero,8095f0 <close+0xc8>
    {
      ALT_ERRNO = -rval;
  8095d4:	08096240 	call	809624 <alt_get_errno>
  8095d8:	e0fffc17 	ldw	r3,-16(fp)
  8095dc:	00c7c83a 	sub	r3,zero,r3
  8095e0:	10c00015 	stw	r3,0(r2)
      return -1;
  8095e4:	00bfffc4 	movi	r2,-1
  8095e8:	e0bffd15 	stw	r2,-12(fp)
  8095ec:	00000806 	br	809610 <close+0xe8>
    }
    return 0;
  8095f0:	e03ffd15 	stw	zero,-12(fp)
  8095f4:	00000606 	br	809610 <close+0xe8>
  }
  else
  {
    ALT_ERRNO = EBADFD;
  8095f8:	08096240 	call	809624 <alt_get_errno>
  8095fc:	1007883a 	mov	r3,r2
  809600:	00801444 	movi	r2,81
  809604:	18800015 	stw	r2,0(r3)
    return -1;
  809608:	00bfffc4 	movi	r2,-1
  80960c:	e0bffd15 	stw	r2,-12(fp)
  }
}
  809610:	e0bffd17 	ldw	r2,-12(fp)
  809614:	dfc00717 	ldw	ra,28(sp)
  809618:	df000617 	ldw	fp,24(sp)
  80961c:	dec00804 	addi	sp,sp,32
  809620:	f800283a 	ret

00809624 <alt_get_errno>:
  809624:	defffd04 	addi	sp,sp,-12
  809628:	dfc00215 	stw	ra,8(sp)
  80962c:	df000115 	stw	fp,4(sp)
  809630:	df000104 	addi	fp,sp,4
  809634:	d0a01517 	ldw	r2,-32684(gp)
  809638:	1005003a 	cmpeq	r2,r2,zero
  80963c:	1000041e 	bne	r2,zero,809650 <alt_get_errno+0x2c>
  809640:	d0a01517 	ldw	r2,-32684(gp)
  809644:	103ee83a 	callr	r2
  809648:	e0bfff15 	stw	r2,-4(fp)
  80964c:	00000206 	br	809658 <alt_get_errno+0x34>
  809650:	d0a03004 	addi	r2,gp,-32576
  809654:	e0bfff15 	stw	r2,-4(fp)
  809658:	e0bfff17 	ldw	r2,-4(fp)
  80965c:	dfc00217 	ldw	ra,8(sp)
  809660:	df000117 	ldw	fp,4(sp)
  809664:	dec00304 	addi	sp,sp,12
  809668:	f800283a 	ret

0080966c <alt_dev_null_write>:
 * indicates that the data has been successfully transmitted.
 */

static int alt_dev_null_write (alt_fd* fd, const char* ptr, int len)
{
  80966c:	defffc04 	addi	sp,sp,-16
  809670:	df000315 	stw	fp,12(sp)
  809674:	df000304 	addi	fp,sp,12
  809678:	e13ffd15 	stw	r4,-12(fp)
  80967c:	e17ffe15 	stw	r5,-8(fp)
  809680:	e1bfff15 	stw	r6,-4(fp)
  return len;
  809684:	e0bfff17 	ldw	r2,-4(fp)
}
  809688:	df000317 	ldw	fp,12(sp)
  80968c:	dec00404 	addi	sp,sp,16
  809690:	f800283a 	ret

00809694 <fstat>:

#else /* !ALT_USE_DIRECT_DRIVERS */

int ALT_FSTAT (int file, struct stat *st)
{
  809694:	defff904 	addi	sp,sp,-28
  809698:	dfc00615 	stw	ra,24(sp)
  80969c:	df000515 	stw	fp,20(sp)
  8096a0:	df000504 	addi	fp,sp,20
  8096a4:	e13ffb15 	stw	r4,-20(fp)
  8096a8:	e17ffc15 	stw	r5,-16(fp)
  alt_fd*  fd;

  /*
   * A common error case is that when the file descriptor was created, the call
   * to open() failed resulting in a negative file descriptor. This is trapped
   * below so that we don't try and process an invalid file descriptor.
   */

  fd = (file < 0) ? NULL : &alt_fd_list[file];
  8096ac:	e0bffb17 	ldw	r2,-20(fp)
  8096b0:	1004803a 	cmplt	r2,r2,zero
  8096b4:	1000091e 	bne	r2,zero,8096dc <fstat+0x48>
  8096b8:	e13ffb17 	ldw	r4,-20(fp)
  8096bc:	01400304 	movi	r5,12
  8096c0:	08007a40 	call	8007a4 <__mulsi3>
  8096c4:	1007883a 	mov	r3,r2
  8096c8:	00802074 	movhi	r2,129
  8096cc:	1083b504 	addi	r2,r2,3796
  8096d0:	1887883a 	add	r3,r3,r2
  8096d4:	e0ffff15 	stw	r3,-4(fp)
  8096d8:	00000106 	br	8096e0 <fstat+0x4c>
  8096dc:	e03fff15 	stw	zero,-4(fp)
  8096e0:	e0bfff17 	ldw	r2,-4(fp)
  8096e4:	e0bffd15 	stw	r2,-12(fp)
  
  if (fd)
  8096e8:	e0bffd17 	ldw	r2,-12(fp)
  8096ec:	1005003a 	cmpeq	r2,r2,zero
  8096f0:	1000121e 	bne	r2,zero,80973c <fstat+0xa8>
  {
    /* Call the drivers fstat() function to fill out the "st" structure. */

    if (fd->dev->fstat)
  8096f4:	e0bffd17 	ldw	r2,-12(fp)
  8096f8:	10800017 	ldw	r2,0(r2)
  8096fc:	10800817 	ldw	r2,32(r2)
  809700:	1005003a 	cmpeq	r2,r2,zero
  809704:	1000081e 	bne	r2,zero,809728 <fstat+0x94>
    {
      return fd->dev->fstat(fd, st);
  809708:	e0bffd17 	ldw	r2,-12(fp)
  80970c:	10800017 	ldw	r2,0(r2)
  809710:	10800817 	ldw	r2,32(r2)
  809714:	e13ffd17 	ldw	r4,-12(fp)
  809718:	e17ffc17 	ldw	r5,-16(fp)
  80971c:	103ee83a 	callr	r2
  809720:	e0bffe15 	stw	r2,-8(fp)
  809724:	00000b06 	br	809754 <fstat+0xc0>
    }

    /* 
     * If no function is provided, mark the fd as belonging to a character 
     * device.
     */
 
    else
    {
      st->st_mode = _IFCHR;
  809728:	e0fffc17 	ldw	r3,-16(fp)
  80972c:	00880004 	movi	r2,8192
  809730:	18800115 	stw	r2,4(r3)
      return 0;
  809734:	e03ffe15 	stw	zero,-8(fp)
  809738:	00000606 	br	809754 <fstat+0xc0>
    }
  }
  else
  {
    ALT_ERRNO = EBADFD;
  80973c:	08097680 	call	809768 <alt_get_errno>
  809740:	1007883a 	mov	r3,r2
  809744:	00801444 	movi	r2,81
  809748:	18800015 	stw	r2,0(r3)
    return -1;
  80974c:	00bfffc4 	movi	r2,-1
  809750:	e0bffe15 	stw	r2,-8(fp)
  }
}
  809754:	e0bffe17 	ldw	r2,-8(fp)
  809758:	dfc00617 	ldw	ra,24(sp)
  80975c:	df000517 	ldw	fp,20(sp)
  809760:	dec00704 	addi	sp,sp,28
  809764:	f800283a 	ret

00809768 <alt_get_errno>:
  809768:	defffd04 	addi	sp,sp,-12
  80976c:	dfc00215 	stw	ra,8(sp)
  809770:	df000115 	stw	fp,4(sp)
  809774:	df000104 	addi	fp,sp,4
  809778:	d0a01517 	ldw	r2,-32684(gp)
  80977c:	1005003a 	cmpeq	r2,r2,zero
  809780:	1000041e 	bne	r2,zero,809794 <alt_get_errno+0x2c>
  809784:	d0a01517 	ldw	r2,-32684(gp)
  809788:	103ee83a 	callr	r2
  80978c:	e0bfff15 	stw	r2,-4(fp)
  809790:	00000206 	br	80979c <alt_get_errno+0x34>
  809794:	d0a03004 	addi	r2,gp,-32576
  809798:	e0bfff15 	stw	r2,-4(fp)
  80979c:	e0bfff17 	ldw	r2,-4(fp)
  8097a0:	dfc00217 	ldw	ra,8(sp)
  8097a4:	df000117 	ldw	fp,4(sp)
  8097a8:	dec00304 	addi	sp,sp,12
  8097ac:	f800283a 	ret

008097b0 <isatty>:
 * ALT_ISATTY is mapped onto the isatty() system call in alt_syscall.h
 */
 
int ALT_ISATTY (int file)
{
  8097b0:	deffeb04 	addi	sp,sp,-84
  8097b4:	dfc01415 	stw	ra,80(sp)
  8097b8:	df001315 	stw	fp,76(sp)
  8097bc:	df001304 	addi	fp,sp,76
  8097c0:	e13fed15 	stw	r4,-76(fp)
  alt_fd*     fd;
  struct stat stat;

  /*
   * A common error case is that when the file descriptor was created, the call
   * to open() failed resulting in a negative file descriptor. This is trapped
   * below so that we don't try and process an invalid file descriptor.
   */

  fd = (file < 0) ? NULL : &alt_fd_list[file];
  8097c4:	e0bfed17 	ldw	r2,-76(fp)
  8097c8:	1004803a 	cmplt	r2,r2,zero
  8097cc:	1000091e 	bne	r2,zero,8097f4 <isatty+0x44>
  8097d0:	e13fed17 	ldw	r4,-76(fp)
  8097d4:	01400304 	movi	r5,12
  8097d8:	08007a40 	call	8007a4 <__mulsi3>
  8097dc:	1007883a 	mov	r3,r2
  8097e0:	00802074 	movhi	r2,129
  8097e4:	1083b504 	addi	r2,r2,3796
  8097e8:	1887883a 	add	r3,r3,r2
  8097ec:	e0ffff15 	stw	r3,-4(fp)
  8097f0:	00000106 	br	8097f8 <isatty+0x48>
  8097f4:	e03fff15 	stw	zero,-4(fp)
  8097f8:	e0bfff17 	ldw	r2,-4(fp)
  8097fc:	e0bfee15 	stw	r2,-72(fp)
  
  if (fd)
  809800:	e0bfee17 	ldw	r2,-72(fp)
  809804:	1005003a 	cmpeq	r2,r2,zero
  809808:	10000f1e 	bne	r2,zero,809848 <isatty+0x98>
  {
    /*
     * If a device driver does not provide an fstat() function, then it is 
     * treated as a terminal device by default.
     */

    if (!fd->dev->fstat)
  80980c:	e0bfee17 	ldw	r2,-72(fp)
  809810:	10800017 	ldw	r2,0(r2)
  809814:	10800817 	ldw	r2,32(r2)
  809818:	1004c03a 	cmpne	r2,r2,zero
  80981c:	1000031e 	bne	r2,zero,80982c <isatty+0x7c>
    {
      return 1;
  809820:	00800044 	movi	r2,1
  809824:	e0bffe15 	stw	r2,-8(fp)
  809828:	00000c06 	br	80985c <isatty+0xac>
    }

    /*
     * If a driver does provide an implementation of the fstat() function, then
     * this is called so that the device can identify itself.
     */ 

    else
    {
      fstat (file, &stat);
  80982c:	e17fef04 	addi	r5,fp,-68
  809830:	e13fed17 	ldw	r4,-76(fp)
  809834:	08096940 	call	809694 <fstat>
      return (stat.st_mode == _IFCHR) ? 1 : 0;
  809838:	e0bff017 	ldw	r2,-64(fp)
  80983c:	10880020 	cmpeqi	r2,r2,8192
  809840:	e0bffe15 	stw	r2,-8(fp)
  809844:	00000506 	br	80985c <isatty+0xac>
    }
  }
  else
  {
    ALT_ERRNO = EBADFD;
  809848:	08098700 	call	809870 <alt_get_errno>
  80984c:	1007883a 	mov	r3,r2
  809850:	00801444 	movi	r2,81
  809854:	18800015 	stw	r2,0(r3)
    return 0;
  809858:	e03ffe15 	stw	zero,-8(fp)
  }
}
  80985c:	e0bffe17 	ldw	r2,-8(fp)
  809860:	dfc01417 	ldw	ra,80(sp)
  809864:	df001317 	ldw	fp,76(sp)
  809868:	dec01504 	addi	sp,sp,84
  80986c:	f800283a 	ret

00809870 <alt_get_errno>:
  809870:	defffd04 	addi	sp,sp,-12
  809874:	dfc00215 	stw	ra,8(sp)
  809878:	df000115 	stw	fp,4(sp)
  80987c:	df000104 	addi	fp,sp,4
  809880:	d0a01517 	ldw	r2,-32684(gp)
  809884:	1005003a 	cmpeq	r2,r2,zero
  809888:	1000041e 	bne	r2,zero,80989c <alt_get_errno+0x2c>
  80988c:	d0a01517 	ldw	r2,-32684(gp)
  809890:	103ee83a 	callr	r2
  809894:	e0bfff15 	stw	r2,-4(fp)
  809898:	00000206 	br	8098a4 <alt_get_errno+0x34>
  80989c:	d0a03004 	addi	r2,gp,-32576
  8098a0:	e0bfff15 	stw	r2,-4(fp)
  8098a4:	e0bfff17 	ldw	r2,-4(fp)
  8098a8:	dfc00217 	ldw	ra,8(sp)
  8098ac:	df000117 	ldw	fp,4(sp)
  8098b0:	dec00304 	addi	sp,sp,12
  8098b4:	f800283a 	ret

008098b8 <alt_load>:
 * RAM any sections that are required.
 */  

void alt_load (void)
{
  8098b8:	defffe04 	addi	sp,sp,-8
  8098bc:	dfc00115 	stw	ra,4(sp)
  8098c0:	df000015 	stw	fp,0(sp)
  8098c4:	d839883a 	mov	fp,sp
  /* 
   * Copy the .rwdata section. 
   */

  alt_load_section (&__flash_rwdata_start, 
  8098c8:	01002074 	movhi	r4,129
  8098cc:	2101bd04 	addi	r4,r4,1780
  8098d0:	01402074 	movhi	r5,129
  8098d4:	2941bd04 	addi	r5,r5,1780
  8098d8:	01802074 	movhi	r6,129
  8098dc:	31887d04 	addi	r6,r6,8692
  8098e0:	08099340 	call	809934 <alt_load_section>
		                &__ram_rwdata_start,
		                &__ram_rwdata_end);

  /*
   * Copy the exception handler.
   */

  alt_load_section (&__flash_exceptions_start, 
  8098e4:	01002034 	movhi	r4,128
  8098e8:	21000004 	addi	r4,r4,0
  8098ec:	01404234 	movhi	r5,264
  8098f0:	29400804 	addi	r5,r5,32
  8098f4:	01804234 	movhi	r6,264
  8098f8:	31807204 	addi	r6,r6,456
  8098fc:	08099340 	call	809934 <alt_load_section>
		                &__ram_exceptions_start,
		                &__ram_exceptions_end);

  /*
   * Copy the .rodata section.
   */

  alt_load_section (&__flash_rodata_start, 
  809900:	01002074 	movhi	r4,129
  809904:	21004304 	addi	r4,r4,268
  809908:	01402074 	movhi	r5,129
  80990c:	29404304 	addi	r5,r5,268
  809910:	01802074 	movhi	r6,129
  809914:	3181bd04 	addi	r6,r6,1780
  809918:	08099340 	call	809934 <alt_load_section>
		                &__ram_rodata_start,
		                &__ram_rodata_end);
  
  /*
   * Now ensure that the caches are in synch.
   */
  
  alt_dcache_flush_all();
  80991c:	080f3580 	call	80f358 <alt_dcache_flush_all>
  alt_icache_flush_all();
  809920:	080f5a80 	call	80f5a8 <alt_icache_flush_all>
}
  809924:	dfc00117 	ldw	ra,4(sp)
  809928:	df000017 	ldw	fp,0(sp)
  80992c:	dec00204 	addi	sp,sp,8
  809930:	f800283a 	ret

00809934 <alt_load_section>:
  809934:	defffc04 	addi	sp,sp,-16
  809938:	df000315 	stw	fp,12(sp)
  80993c:	df000304 	addi	fp,sp,12
  809940:	e13ffd15 	stw	r4,-12(fp)
  809944:	e17ffe15 	stw	r5,-8(fp)
  809948:	e1bfff15 	stw	r6,-4(fp)
  80994c:	e0fffe17 	ldw	r3,-8(fp)
  809950:	e0bffd17 	ldw	r2,-12(fp)
  809954:	18800e26 	beq	r3,r2,809990 <alt_load_section+0x5c>
  809958:	e0fffe17 	ldw	r3,-8(fp)
  80995c:	e0bfff17 	ldw	r2,-4(fp)
  809960:	18800b26 	beq	r3,r2,809990 <alt_load_section+0x5c>
  809964:	e17ffe04 	addi	r5,fp,-8
  809968:	28c00017 	ldw	r3,0(r5)
  80996c:	e0bffd17 	ldw	r2,-12(fp)
  809970:	11000017 	ldw	r4,0(r2)
  809974:	10800104 	addi	r2,r2,4
  809978:	e0bffd15 	stw	r2,-12(fp)
  80997c:	1805883a 	mov	r2,r3
  809980:	11000015 	stw	r4,0(r2)
  809984:	18c00104 	addi	r3,r3,4
  809988:	28c00015 	stw	r3,0(r5)
  80998c:	003ff206 	br	809958 <alt_load_section+0x24>
  809990:	df000317 	ldw	fp,12(sp)
  809994:	dec00404 	addi	sp,sp,16
  809998:	f800283a 	ret

0080999c <lseek>:
 *
 */

off_t ALT_LSEEK (int file, off_t ptr, int dir)
{
  80999c:	defff804 	addi	sp,sp,-32
  8099a0:	dfc00715 	stw	ra,28(sp)
  8099a4:	df000615 	stw	fp,24(sp)
  8099a8:	df000604 	addi	fp,sp,24
  8099ac:	e13ffa15 	stw	r4,-24(fp)
  8099b0:	e17ffb15 	stw	r5,-20(fp)
  8099b4:	e1bffc15 	stw	r6,-16(fp)
  alt_fd* fd;
  off_t   rc = 0; 
  8099b8:	e03ffe15 	stw	zero,-8(fp)

  /*
   * A common error case is that when the file descriptor was created, the call
   * to open() failed resulting in a negative file descriptor. This is trapped
   * below so that we don't try and process an invalid file descriptor.
   */

  fd = (file < 0) ? NULL : &alt_fd_list[file];
  8099bc:	e0bffa17 	ldw	r2,-24(fp)
  8099c0:	1004803a 	cmplt	r2,r2,zero
  8099c4:	1000091e 	bne	r2,zero,8099ec <lseek+0x50>
  8099c8:	e13ffa17 	ldw	r4,-24(fp)
  8099cc:	01400304 	movi	r5,12
  8099d0:	08007a40 	call	8007a4 <__mulsi3>
  8099d4:	1007883a 	mov	r3,r2
  8099d8:	00802074 	movhi	r2,129
  8099dc:	1083b504 	addi	r2,r2,3796
  8099e0:	1887883a 	add	r3,r3,r2
  8099e4:	e0ffff15 	stw	r3,-4(fp)
  8099e8:	00000106 	br	8099f0 <lseek+0x54>
  8099ec:	e03fff15 	stw	zero,-4(fp)
  8099f0:	e0bfff17 	ldw	r2,-4(fp)
  8099f4:	e0bffd15 	stw	r2,-12(fp)
  
  if (fd) 
  8099f8:	e0bffd17 	ldw	r2,-12(fp)
  8099fc:	1005003a 	cmpeq	r2,r2,zero
  809a00:	1000111e 	bne	r2,zero,809a48 <lseek+0xac>
  {
    /*
     * If the device driver provides an implementation of the lseek() function,
     * then call that to process the request.
     */
 
    if (fd->dev->lseek)
  809a04:	e0bffd17 	ldw	r2,-12(fp)
  809a08:	10800017 	ldw	r2,0(r2)
  809a0c:	10800717 	ldw	r2,28(r2)
  809a10:	1005003a 	cmpeq	r2,r2,zero
  809a14:	1000091e 	bne	r2,zero,809a3c <lseek+0xa0>
    {
      rc = fd->dev->lseek(fd, ptr, dir);
  809a18:	e0bffd17 	ldw	r2,-12(fp)
  809a1c:	10800017 	ldw	r2,0(r2)
  809a20:	10800717 	ldw	r2,28(r2)
  809a24:	e13ffd17 	ldw	r4,-12(fp)
  809a28:	e17ffb17 	ldw	r5,-20(fp)
  809a2c:	e1bffc17 	ldw	r6,-16(fp)
  809a30:	103ee83a 	callr	r2
  809a34:	e0bffe15 	stw	r2,-8(fp)
  809a38:	00000506 	br	809a50 <lseek+0xb4>
    }
    /*
     * Otherwise return an error.
     */

    else
    {
      rc = -ENOTSUP;
  809a3c:	00bfde84 	movi	r2,-134
  809a40:	e0bffe15 	stw	r2,-8(fp)
  809a44:	00000206 	br	809a50 <lseek+0xb4>
    }
  }
  else  
  {
    rc = -EBADFD;
  809a48:	00bfebc4 	movi	r2,-81
  809a4c:	e0bffe15 	stw	r2,-8(fp)
  }

  if (rc < 0)
  809a50:	e0bffe17 	ldw	r2,-8(fp)
  809a54:	1004403a 	cmpge	r2,r2,zero
  809a58:	1000071e 	bne	r2,zero,809a78 <lseek+0xdc>
  {
    ALT_ERRNO = -rc;
  809a5c:	0809a8c0 	call	809a8c <alt_get_errno>
  809a60:	1007883a 	mov	r3,r2
  809a64:	e0bffe17 	ldw	r2,-8(fp)
  809a68:	0085c83a 	sub	r2,zero,r2
  809a6c:	18800015 	stw	r2,0(r3)
    rc = -1;
  809a70:	00bfffc4 	movi	r2,-1
  809a74:	e0bffe15 	stw	r2,-8(fp)
  }

  return rc;
  809a78:	e0bffe17 	ldw	r2,-8(fp)
}
  809a7c:	dfc00717 	ldw	ra,28(sp)
  809a80:	df000617 	ldw	fp,24(sp)
  809a84:	dec00804 	addi	sp,sp,32
  809a88:	f800283a 	ret

00809a8c <alt_get_errno>:
  809a8c:	defffd04 	addi	sp,sp,-12
  809a90:	dfc00215 	stw	ra,8(sp)
  809a94:	df000115 	stw	fp,4(sp)
  809a98:	df000104 	addi	fp,sp,4
  809a9c:	d0a01517 	ldw	r2,-32684(gp)
  809aa0:	1005003a 	cmpeq	r2,r2,zero
  809aa4:	1000041e 	bne	r2,zero,809ab8 <alt_get_errno+0x2c>
  809aa8:	d0a01517 	ldw	r2,-32684(gp)
  809aac:	103ee83a 	callr	r2
  809ab0:	e0bfff15 	stw	r2,-4(fp)
  809ab4:	00000206 	br	809ac0 <alt_get_errno+0x34>
  809ab8:	d0a03004 	addi	r2,gp,-32576
  809abc:	e0bfff15 	stw	r2,-4(fp)
  809ac0:	e0bfff17 	ldw	r2,-4(fp)
  809ac4:	dfc00217 	ldw	ra,8(sp)
  809ac8:	df000117 	ldw	fp,4(sp)
  809acc:	dec00304 	addi	sp,sp,12
  809ad0:	f800283a 	ret

00809ad4 <alt_main>:
 * the users application, i.e. main().
 */

void alt_main (void)
{
  809ad4:	defffc04 	addi	sp,sp,-16
  809ad8:	dfc00315 	stw	ra,12(sp)
  809adc:	df000215 	stw	fp,8(sp)
  809ae0:	df000204 	addi	fp,sp,8
  int result;

  /* ALT LOG - please see HAL/sys/alt_log_printf.h for details */
  ALT_LOG_PRINT_BOOT("[alt_main.c] Entering alt_main, calling alt_irq_init.\r\n");
  /* Initialize the interrupt controller. */
  alt_irq_init (NULL);
  809ae4:	0009883a 	mov	r4,zero
  809ae8:	0809f800 	call	809f80 <alt_irq_init>
  809aec:	e03fff15 	stw	zero,-4(fp)

  /* Initialize the operating system */
  ALT_LOG_PRINT_BOOT("[alt_main.c] Done alt_irq_init, calling alt_os_init.\r\n");
  ALT_OS_INIT();

  /*
   * Initialize the semaphore used to control access to the file descriptor
   * list.
   */

  ALT_LOG_PRINT_BOOT("[alt_main.c] Done OS Init, calling alt_sem_create.\r\n");
  ALT_SEM_CREATE (&alt_fd_list_lock, 1);

  /* Initialize the device drivers/software components. */
  ALT_LOG_PRINT_BOOT("[alt_main.c] Calling alt_sys_init.\r\n");
  alt_sys_init();
  809af0:	0809fb00 	call	809fb0 <alt_sys_init>
  ALT_LOG_PRINT_BOOT("[alt_main.c] Done alt_sys_init.\r\n");

#if !defined(ALT_USE_DIRECT_DRIVERS) && (defined(ALT_STDIN_PRESENT) || defined(ALT_STDOUT_PRESENT) || defined(ALT_STDERR_PRESENT))

  /*
   * Redirect stdio to the apropriate devices now that the devices have
   * been initialized. This is only done if the user has requested these
   * devices be present (not equal to /dev/null) and if direct drivers
   * aren't being used.
   */

    ALT_LOG_PRINT_BOOT("[alt_main.c] Redirecting IO.\r\n");
    alt_io_redirect(ALT_STDOUT, ALT_STDIN, ALT_STDERR);
  809af4:	01002074 	movhi	r4,129
  809af8:	2101a204 	addi	r4,r4,1672
  809afc:	01402074 	movhi	r5,129
  809b00:	2941a204 	addi	r5,r5,1672
  809b04:	01802074 	movhi	r6,129
  809b08:	3181a204 	addi	r6,r6,1672
  809b0c:	080f69c0 	call	80f69c <alt_io_redirect>
#endif

#ifndef ALT_NO_C_PLUS_PLUS
  /* 
   * Call the C++ constructors 
   */

  ALT_LOG_PRINT_BOOT("[alt_main.c] Calling C++ constructors.\r\n");
  _do_ctors ();
  809b10:	080f4680 	call	80f468 <_do_ctors>
#endif /* ALT_NO_C_PLUS_PLUS */

#if !defined(ALT_NO_C_PLUS_PLUS) && !defined(ALT_NO_CLEAN_EXIT) && !defined(ALT_NO_EXIT)
  /*
   * Set the C++ destructors to be called at system shutdown. This is only done
   * if a clean exit has been requested (i.e. the exit() function has not been
   * redefined as _exit()). This is in the interest of reducing code footprint,
   * in that the atexit() overhead is removed when it's not needed.
   */

  ALT_LOG_PRINT_BOOT("[alt_main.c] Calling atexit.\r\n");
  atexit (_do_dtors);
  809b14:	01002074 	movhi	r4,129
  809b18:	213d3004 	addi	r4,r4,-2880
  809b1c:	080fecc0 	call	80fecc <atexit>
#endif

  /*
   * Finally, call main(). The return code is then passed to a subsequent
   * call to exit() unless the application is never supposed to exit.
   */

  ALT_LOG_PRINT_BOOT("[alt_main.c] Calling main.\r\n");

#ifdef ALT_NO_EXIT
  main (alt_argc, alt_argv, alt_envp);
#else
  result = main (alt_argc, alt_argv, alt_envp);
  809b20:	d1201617 	ldw	r4,-32680(gp)
  809b24:	d1601717 	ldw	r5,-32676(gp)
  809b28:	d1a01817 	ldw	r6,-32672(gp)
  809b2c:	08001e40 	call	8001e4 <main>
  809b30:	e0bffe15 	stw	r2,-8(fp)
  close(STDOUT_FILENO);
  809b34:	01000044 	movi	r4,1
  809b38:	08095280 	call	809528 <close>
  exit (result);
  809b3c:	e13ffe17 	ldw	r4,-8(fp)
  809b40:	080ff680 	call	80ff68 <exit>

00809b44 <__malloc_lock>:
 * this requires that malloc is never called by an interrupt service routine.
 */

void __malloc_lock ( struct _reent *_r )
{
  809b44:	defffe04 	addi	sp,sp,-8
  809b48:	df000115 	stw	fp,4(sp)
  809b4c:	df000104 	addi	fp,sp,4
  809b50:	e13fff15 	stw	r4,-4(fp)
  809b54:	df000117 	ldw	fp,4(sp)
  809b58:	dec00204 	addi	sp,sp,8
  809b5c:	f800283a 	ret

00809b60 <__malloc_unlock>:
}

/*
 *
 */

void __malloc_unlock ( struct _reent *_r )
{
  809b60:	defffe04 	addi	sp,sp,-8
  809b64:	df000115 	stw	fp,4(sp)
  809b68:	df000104 	addi	fp,sp,4
  809b6c:	e13fff15 	stw	r4,-4(fp)
  809b70:	df000117 	ldw	fp,4(sp)
  809b74:	dec00204 	addi	sp,sp,8
  809b78:	f800283a 	ret

00809b7c <read>:

#else /* !ALT_USE_DIRECT_DRIVERS */

int ALT_READ (int file, void *ptr, size_t len)
{
  809b7c:	defff704 	addi	sp,sp,-36
  809b80:	dfc00815 	stw	ra,32(sp)
  809b84:	df000715 	stw	fp,28(sp)
  809b88:	df000704 	addi	fp,sp,28
  809b8c:	e13ff915 	stw	r4,-28(fp)
  809b90:	e17ffa15 	stw	r5,-24(fp)
  809b94:	e1bffb15 	stw	r6,-20(fp)
  alt_fd*  fd;
  int      rval;

  /*
   * A common error case is that when the file descriptor was created, the call
   * to open() failed resulting in a negative file descriptor. This is trapped
   * below so that we don't try and process an invalid file descriptor.
   */

  fd = (file < 0) ? NULL : &alt_fd_list[file];
  809b98:	e0bff917 	ldw	r2,-28(fp)
  809b9c:	1004803a 	cmplt	r2,r2,zero
  809ba0:	1000091e 	bne	r2,zero,809bc8 <read+0x4c>
  809ba4:	e13ff917 	ldw	r4,-28(fp)
  809ba8:	01400304 	movi	r5,12
  809bac:	08007a40 	call	8007a4 <__mulsi3>
  809bb0:	1007883a 	mov	r3,r2
  809bb4:	00802074 	movhi	r2,129
  809bb8:	1083b504 	addi	r2,r2,3796
  809bbc:	1887883a 	add	r3,r3,r2
  809bc0:	e0ffff15 	stw	r3,-4(fp)
  809bc4:	00000106 	br	809bcc <read+0x50>
  809bc8:	e03fff15 	stw	zero,-4(fp)
  809bcc:	e0bfff17 	ldw	r2,-4(fp)
  809bd0:	e0bffc15 	stw	r2,-16(fp)
  
  if (fd)
  809bd4:	e0bffc17 	ldw	r2,-16(fp)
  809bd8:	1005003a 	cmpeq	r2,r2,zero
  809bdc:	1000241e 	bne	r2,zero,809c70 <read+0xf4>
  {
    /*
     * If the file has not been opened with read access, or if the driver does
     * not provide an implementation of read(), generate an error. Otherwise
     * call the drivers read() function to process the request.
     */

    if (((fd->fd_flags & O_ACCMODE) != O_WRONLY) && 
  809be0:	e0bffc17 	ldw	r2,-16(fp)
  809be4:	10800217 	ldw	r2,8(r2)
  809be8:	108000cc 	andi	r2,r2,3
  809bec:	10800060 	cmpeqi	r2,r2,1
  809bf0:	10001a1e 	bne	r2,zero,809c5c <read+0xe0>
  809bf4:	e0bffc17 	ldw	r2,-16(fp)
  809bf8:	10800017 	ldw	r2,0(r2)
  809bfc:	10800517 	ldw	r2,20(r2)
  809c00:	1005003a 	cmpeq	r2,r2,zero
  809c04:	1000151e 	bne	r2,zero,809c5c <read+0xe0>
        (fd->dev->read))
      {
        if ((rval = fd->dev->read(fd, ptr, len)) < 0)
  809c08:	e0bffc17 	ldw	r2,-16(fp)
  809c0c:	10800017 	ldw	r2,0(r2)
  809c10:	10800517 	ldw	r2,20(r2)
  809c14:	e13ffc17 	ldw	r4,-16(fp)
  809c18:	e17ffa17 	ldw	r5,-24(fp)
  809c1c:	e1bffb17 	ldw	r6,-20(fp)
  809c20:	103ee83a 	callr	r2
  809c24:	e0bffd15 	stw	r2,-12(fp)
  809c28:	e0bffd17 	ldw	r2,-12(fp)
  809c2c:	1004403a 	cmpge	r2,r2,zero
  809c30:	1000071e 	bne	r2,zero,809c50 <read+0xd4>
        {
          ALT_ERRNO = -rval;
  809c34:	0809c9c0 	call	809c9c <alt_get_errno>
  809c38:	e0fffd17 	ldw	r3,-12(fp)
  809c3c:	00c7c83a 	sub	r3,zero,r3
  809c40:	10c00015 	stw	r3,0(r2)
          return -1;
  809c44:	00bfffc4 	movi	r2,-1
  809c48:	e0bffe15 	stw	r2,-8(fp)
  809c4c:	00000e06 	br	809c88 <read+0x10c>
        }
        return rval;
  809c50:	e0bffd17 	ldw	r2,-12(fp)
  809c54:	e0bffe15 	stw	r2,-8(fp)
  809c58:	00000b06 	br	809c88 <read+0x10c>
      }
      else
      {
        ALT_ERRNO = EACCES;
  809c5c:	0809c9c0 	call	809c9c <alt_get_errno>
  809c60:	1007883a 	mov	r3,r2
  809c64:	00800344 	movi	r2,13
  809c68:	18800015 	stw	r2,0(r3)
  809c6c:	00000406 	br	809c80 <read+0x104>
      }
    }
  else
  {
    ALT_ERRNO = EBADFD;
  809c70:	0809c9c0 	call	809c9c <alt_get_errno>
  809c74:	1007883a 	mov	r3,r2
  809c78:	00801444 	movi	r2,81
  809c7c:	18800015 	stw	r2,0(r3)
  }
  return -1;
  809c80:	00bfffc4 	movi	r2,-1
  809c84:	e0bffe15 	stw	r2,-8(fp)
}
  809c88:	e0bffe17 	ldw	r2,-8(fp)
  809c8c:	dfc00817 	ldw	ra,32(sp)
  809c90:	df000717 	ldw	fp,28(sp)
  809c94:	dec00904 	addi	sp,sp,36
  809c98:	f800283a 	ret

00809c9c <alt_get_errno>:
  809c9c:	defffd04 	addi	sp,sp,-12
  809ca0:	dfc00215 	stw	ra,8(sp)
  809ca4:	df000115 	stw	fp,4(sp)
  809ca8:	df000104 	addi	fp,sp,4
  809cac:	d0a01517 	ldw	r2,-32684(gp)
  809cb0:	1005003a 	cmpeq	r2,r2,zero
  809cb4:	1000041e 	bne	r2,zero,809cc8 <alt_get_errno+0x2c>
  809cb8:	d0a01517 	ldw	r2,-32684(gp)
  809cbc:	103ee83a 	callr	r2
  809cc0:	e0bfff15 	stw	r2,-4(fp)
  809cc4:	00000206 	br	809cd0 <alt_get_errno+0x34>
  809cc8:	d0a03004 	addi	r2,gp,-32576
  809ccc:	e0bfff15 	stw	r2,-4(fp)
  809cd0:	e0bfff17 	ldw	r2,-4(fp)
  809cd4:	dfc00217 	ldw	ra,8(sp)
  809cd8:	df000117 	ldw	fp,4(sp)
  809cdc:	dec00304 	addi	sp,sp,12
  809ce0:	f800283a 	ret

00809ce4 <alt_release_fd>:
 * error cannont be released backed to the pool. They are always reserved.
 */

void alt_release_fd (int fd)
{
  809ce4:	defffc04 	addi	sp,sp,-16
  809ce8:	dfc00315 	stw	ra,12(sp)
  809cec:	df000215 	stw	fp,8(sp)
  809cf0:	dc000115 	stw	r16,4(sp)
  809cf4:	df000204 	addi	fp,sp,8
  809cf8:	e13ffe15 	stw	r4,-8(fp)
  if (fd > 2)
  809cfc:	e0bffe17 	ldw	r2,-8(fp)
  809d00:	108000d0 	cmplti	r2,r2,3
  809d04:	10000f1e 	bne	r2,zero,809d44 <alt_release_fd+0x60>
  {
    alt_fd_list[fd].fd_flags = 0;
  809d08:	04002074 	movhi	r16,129
  809d0c:	8403b504 	addi	r16,r16,3796
  809d10:	e13ffe17 	ldw	r4,-8(fp)
  809d14:	01400304 	movi	r5,12
  809d18:	08007a40 	call	8007a4 <__mulsi3>
  809d1c:	1405883a 	add	r2,r2,r16
  809d20:	10800204 	addi	r2,r2,8
  809d24:	10000015 	stw	zero,0(r2)
    alt_fd_list[fd].dev      = 0;
  809d28:	04002074 	movhi	r16,129
  809d2c:	8403b504 	addi	r16,r16,3796
  809d30:	e13ffe17 	ldw	r4,-8(fp)
  809d34:	01400304 	movi	r5,12
  809d38:	08007a40 	call	8007a4 <__mulsi3>
  809d3c:	1405883a 	add	r2,r2,r16
  809d40:	10000015 	stw	zero,0(r2)
  }
}
  809d44:	dfc00317 	ldw	ra,12(sp)
  809d48:	df000217 	ldw	fp,8(sp)
  809d4c:	dc000117 	ldw	r16,4(sp)
  809d50:	dec00404 	addi	sp,sp,16
  809d54:	f800283a 	ret

00809d58 <sbrk>:
 
caddr_t ALT_SBRK (int incr) __attribute__ ((no_instrument_function ));

caddr_t ALT_SBRK (int incr)
{ 
  809d58:	defff904 	addi	sp,sp,-28
  809d5c:	df000615 	stw	fp,24(sp)
  809d60:	df000604 	addi	fp,sp,24
  809d64:	e13ffa15 	stw	r4,-24(fp)
  809d68:	0005303a 	rdctl	r2,status
  809d6c:	e0bffe15 	stw	r2,-8(fp)
  809d70:	e0fffe17 	ldw	r3,-8(fp)
  809d74:	00bfff84 	movi	r2,-2
  809d78:	1884703a 	and	r2,r3,r2
  809d7c:	1001703a 	wrctl	status,r2
  809d80:	e0bffe17 	ldw	r2,-8(fp)
  809d84:	e0bffd15 	stw	r2,-12(fp)
  809d88:	e0bffd17 	ldw	r2,-12(fp)
  809d8c:	e0bffb15 	stw	r2,-20(fp)
  alt_irq_context context;
  char *prev_heap_end; 

  context = alt_irq_disable_all();

  /* Always return data aligned on a word boundary */
  heap_end = (char *)(((unsigned int)heap_end + 3) & ~3);
  809d90:	d0a01917 	ldw	r2,-32668(gp)
  809d94:	10c000c4 	addi	r3,r2,3
  809d98:	00bfff04 	movi	r2,-4
  809d9c:	1884703a 	and	r2,r3,r2
  809da0:	d0a01915 	stw	r2,-32668(gp)

#ifdef ALT_MAX_HEAP_BYTES
  /*  
   * User specified a maximum heap size.  Return -1 if it would
   * be exceeded by this sbrk call.
   */
  if (((heap_end + incr) - __alt_heap_start) > ALT_MAX_HEAP_BYTES) {
    alt_irq_enable_all(context);
    return (caddr_t)-1;
  }
#else
  if ((heap_end + incr) > __alt_heap_limit) {
  809da4:	d0e01917 	ldw	r3,-32668(gp)
  809da8:	e0bffa17 	ldw	r2,-24(fp)
  809dac:	1887883a 	add	r3,r3,r2
  809db0:	00804034 	movhi	r2,256
  809db4:	10800004 	addi	r2,r2,0
  809db8:	10c0072e 	bgeu	r2,r3,809dd8 <sbrk+0x80>
  809dbc:	e0bffb17 	ldw	r2,-20(fp)
  809dc0:	e0bffe15 	stw	r2,-8(fp)
  809dc4:	e0bffe17 	ldw	r2,-8(fp)
  809dc8:	1001703a 	wrctl	status,r2
    alt_irq_enable_all(context);
    return (caddr_t)-1;
  809dcc:	00bfffc4 	movi	r2,-1
  809dd0:	e0bfff15 	stw	r2,-4(fp)
  809dd4:	00000c06 	br	809e08 <sbrk+0xb0>
  }
#endif

  prev_heap_end = heap_end; 
  809dd8:	d0a01917 	ldw	r2,-32668(gp)
  809ddc:	e0bffc15 	stw	r2,-16(fp)
  heap_end += incr; 
  809de0:	d0e01917 	ldw	r3,-32668(gp)
  809de4:	e0bffa17 	ldw	r2,-24(fp)
  809de8:	1885883a 	add	r2,r3,r2
  809dec:	d0a01915 	stw	r2,-32668(gp)
  809df0:	e0bffb17 	ldw	r2,-20(fp)
  809df4:	e0bffe15 	stw	r2,-8(fp)
  809df8:	e0bffe17 	ldw	r2,-8(fp)
  809dfc:	1001703a 	wrctl	status,r2

#ifdef ALT_STACK_CHECK
  /*
   * If the stack and heap are contiguous then extending the heap reduces the
   * space available for the stack.  If we are still using the default stack
   * then adjust the stack limit to note this, while checking for stack
   * pointer overflow. 
   * If the stack limit isn't pointing at the top of the heap then the code
   * is using a different stack so none of this needs to be done.
   */

  if (alt_stack_limit() == prev_heap_end)
  {
    if (alt_stack_pointer() <= heap_end)
      alt_report_stack_overflow();

    alt_set_stack_limit(heap_end);
  }

#ifdef ALT_EXCEPTION_STACK
  /*
   * If we are executing from the exception stack then compare against the
   * stack we switched away from as well.  The exception stack is a fixed
   * size so doesn't need to be checked.
   */

  if (alt_exception_old_stack_limit == prev_heap_end)
  {
    if (alt_exception_old_stack_limit <= heap_end)
      alt_report_stack_overflow();

    alt_exception_old_stack_limit = heap_end;
  }
#endif

#endif

  alt_irq_enable_all(context);

  return (caddr_t) prev_heap_end; 
  809e00:	e0bffc17 	ldw	r2,-16(fp)
  809e04:	e0bfff15 	stw	r2,-4(fp)
} 
  809e08:	e0bfff17 	ldw	r2,-4(fp)
  809e0c:	df000617 	ldw	fp,24(sp)
  809e10:	dec00704 	addi	sp,sp,28
  809e14:	f800283a 	ret

00809e18 <write>:

#else /* !ALT_USE_DIRECT_DRIVERS */

int ALT_WRITE (int file, const void *ptr, size_t len)
{
  809e18:	defff704 	addi	sp,sp,-36
  809e1c:	dfc00815 	stw	ra,32(sp)
  809e20:	df000715 	stw	fp,28(sp)
  809e24:	df000704 	addi	fp,sp,28
  809e28:	e13ff915 	stw	r4,-28(fp)
  809e2c:	e17ffa15 	stw	r5,-24(fp)
  809e30:	e1bffb15 	stw	r6,-20(fp)
  alt_fd*  fd;
  int      rval;

  /*
   * A common error case is that when the file descriptor was created, the call
   * to open() failed resulting in a negative file descriptor. This is trapped
   * below so that we don't try and process an invalid file descriptor.
   */

  fd = (file < 0) ? NULL : &alt_fd_list[file];
  809e34:	e0bff917 	ldw	r2,-28(fp)
  809e38:	1004803a 	cmplt	r2,r2,zero
  809e3c:	1000091e 	bne	r2,zero,809e64 <write+0x4c>
  809e40:	e13ff917 	ldw	r4,-28(fp)
  809e44:	01400304 	movi	r5,12
  809e48:	08007a40 	call	8007a4 <__mulsi3>
  809e4c:	1007883a 	mov	r3,r2
  809e50:	00802074 	movhi	r2,129
  809e54:	1083b504 	addi	r2,r2,3796
  809e58:	1887883a 	add	r3,r3,r2
  809e5c:	e0ffff15 	stw	r3,-4(fp)
  809e60:	00000106 	br	809e68 <write+0x50>
  809e64:	e03fff15 	stw	zero,-4(fp)
  809e68:	e0bfff17 	ldw	r2,-4(fp)
  809e6c:	e0bffc15 	stw	r2,-16(fp)
  
  if (fd)
  809e70:	e0bffc17 	ldw	r2,-16(fp)
  809e74:	1005003a 	cmpeq	r2,r2,zero
  809e78:	1000241e 	bne	r2,zero,809f0c <write+0xf4>
  {
    /*
     * If the file has not been opened with write access, or if the driver does
     * not provide an implementation of write(), generate an error. Otherwise
     * call the drivers write() function to process the request.
     */

    if (((fd->fd_flags & O_ACCMODE) != O_RDONLY) && fd->dev->write)
  809e7c:	e0bffc17 	ldw	r2,-16(fp)
  809e80:	10800217 	ldw	r2,8(r2)
  809e84:	108000cc 	andi	r2,r2,3
  809e88:	1005003a 	cmpeq	r2,r2,zero
  809e8c:	10001a1e 	bne	r2,zero,809ef8 <write+0xe0>
  809e90:	e0bffc17 	ldw	r2,-16(fp)
  809e94:	10800017 	ldw	r2,0(r2)
  809e98:	10800617 	ldw	r2,24(r2)
  809e9c:	1005003a 	cmpeq	r2,r2,zero
  809ea0:	1000151e 	bne	r2,zero,809ef8 <write+0xe0>
    {
      
      /* ALT_LOG - see altera_hal/HAL/inc/sys/alt_log_printf.h */
      ALT_LOG_WRITE_FUNCTION(ptr,len);

      if ((rval = fd->dev->write(fd, ptr, len)) < 0)
  809ea4:	e0bffc17 	ldw	r2,-16(fp)
  809ea8:	10800017 	ldw	r2,0(r2)
  809eac:	10800617 	ldw	r2,24(r2)
  809eb0:	e13ffc17 	ldw	r4,-16(fp)
  809eb4:	e17ffa17 	ldw	r5,-24(fp)
  809eb8:	e1bffb17 	ldw	r6,-20(fp)
  809ebc:	103ee83a 	callr	r2
  809ec0:	e0bffd15 	stw	r2,-12(fp)
  809ec4:	e0bffd17 	ldw	r2,-12(fp)
  809ec8:	1004403a 	cmpge	r2,r2,zero
  809ecc:	1000071e 	bne	r2,zero,809eec <write+0xd4>
      {
        ALT_ERRNO = -rval;
  809ed0:	0809f380 	call	809f38 <alt_get_errno>
  809ed4:	e0fffd17 	ldw	r3,-12(fp)
  809ed8:	00c7c83a 	sub	r3,zero,r3
  809edc:	10c00015 	stw	r3,0(r2)
        return -1;
  809ee0:	00bfffc4 	movi	r2,-1
  809ee4:	e0bffe15 	stw	r2,-8(fp)
  809ee8:	00000e06 	br	809f24 <write+0x10c>
      }
      return rval;
  809eec:	e0bffd17 	ldw	r2,-12(fp)
  809ef0:	e0bffe15 	stw	r2,-8(fp)
  809ef4:	00000b06 	br	809f24 <write+0x10c>
    }
    else
    {
      ALT_ERRNO = EACCES;
  809ef8:	0809f380 	call	809f38 <alt_get_errno>
  809efc:	1007883a 	mov	r3,r2
  809f00:	00800344 	movi	r2,13
  809f04:	18800015 	stw	r2,0(r3)
  809f08:	00000406 	br	809f1c <write+0x104>
    }
  }
  else  
  {
    ALT_ERRNO = EBADFD;
  809f0c:	0809f380 	call	809f38 <alt_get_errno>
  809f10:	1007883a 	mov	r3,r2
  809f14:	00801444 	movi	r2,81
  809f18:	18800015 	stw	r2,0(r3)
  }
  return -1;
  809f1c:	00bfffc4 	movi	r2,-1
  809f20:	e0bffe15 	stw	r2,-8(fp)
}
  809f24:	e0bffe17 	ldw	r2,-8(fp)
  809f28:	dfc00817 	ldw	ra,32(sp)
  809f2c:	df000717 	ldw	fp,28(sp)
  809f30:	dec00904 	addi	sp,sp,36
  809f34:	f800283a 	ret

00809f38 <alt_get_errno>:
  809f38:	defffd04 	addi	sp,sp,-12
  809f3c:	dfc00215 	stw	ra,8(sp)
  809f40:	df000115 	stw	fp,4(sp)
  809f44:	df000104 	addi	fp,sp,4
  809f48:	d0a01517 	ldw	r2,-32684(gp)
  809f4c:	1005003a 	cmpeq	r2,r2,zero
  809f50:	1000041e 	bne	r2,zero,809f64 <alt_get_errno+0x2c>
  809f54:	d0a01517 	ldw	r2,-32684(gp)
  809f58:	103ee83a 	callr	r2
  809f5c:	e0bfff15 	stw	r2,-4(fp)
  809f60:	00000206 	br	809f6c <alt_get_errno+0x34>
  809f64:	d0a03004 	addi	r2,gp,-32576
  809f68:	e0bfff15 	stw	r2,-4(fp)
  809f6c:	e0bfff17 	ldw	r2,-4(fp)
  809f70:	dfc00217 	ldw	ra,8(sp)
  809f74:	df000117 	ldw	fp,4(sp)
  809f78:	dec00304 	addi	sp,sp,12
  809f7c:	f800283a 	ret

00809f80 <alt_irq_init>:
 * present for backwards-compatibility.
 */

void alt_irq_init ( const void* base )
{
  809f80:	defffd04 	addi	sp,sp,-12
  809f84:	dfc00215 	stw	ra,8(sp)
  809f88:	df000115 	stw	fp,4(sp)
  809f8c:	df000104 	addi	fp,sp,4
  809f90:	e13fff15 	stw	r4,-4(fp)
    ALTERA_NIOS2_IRQ_INIT ( CPU_0, cpu_0);
  809f94:	080fd080 	call	80fd08 <altera_nios2_irq_init>
  809f98:	00800044 	movi	r2,1
  809f9c:	1001703a 	wrctl	status,r2
    alt_irq_cpu_enable_interrupts();
}
  809fa0:	dfc00217 	ldw	ra,8(sp)
  809fa4:	df000117 	ldw	fp,4(sp)
  809fa8:	dec00304 	addi	sp,sp,12
  809fac:	f800283a 	ret

00809fb0 <alt_sys_init>:

/*
 * Initialize the non-interrupt controller devices.
 * Called after alt_irq_init().
 */

void alt_sys_init( void )
{
  809fb0:	defffe04 	addi	sp,sp,-8
  809fb4:	dfc00115 	stw	ra,4(sp)
  809fb8:	df000015 	stw	fp,0(sp)
  809fbc:	d839883a 	mov	fp,sp
    ALTERA_AVALON_JTAG_UART_INIT ( JTAG_UART_0, jtag_uart_0);
  809fc0:	01002074 	movhi	r4,129
  809fc4:	21041f04 	addi	r4,r4,4220
  809fc8:	000b883a 	mov	r5,zero
  809fcc:	000d883a 	mov	r6,zero
  809fd0:	080a17c0 	call	80a17c <altera_avalon_jtag_uart_init>
  809fd4:	01002074 	movhi	r4,129
  809fd8:	21041504 	addi	r4,r4,4180
  809fdc:	080a0140 	call	80a014 <alt_dev_reg>
    ALTERA_AVALON_SYSID_INIT ( SYSID, sysid);
    ALTERA_UP_AVALON_AUDIO_AND_VIDEO_CONFIG_INIT ( AUDIO_AND_VIDEO_CONFIG_0, audio_and_video_config_0);
  809fe0:	01002074 	movhi	r4,129
  809fe4:	21082d04 	addi	r4,r4,8372
  809fe8:	080a0140 	call	80a014 <alt_dev_reg>
    ALTERA_UP_AVALON_AUDIO_INIT ( AUDIO, audio);
  809fec:	01002074 	movhi	r4,129
  809ff0:	21083904 	addi	r4,r4,8420
  809ff4:	080a0140 	call	80a014 <alt_dev_reg>
    ALTERA_UP_SD_CARD_AVALON_INTERFACE_INIT ( SDCARD, SDCARD);
  809ff8:	01002074 	movhi	r4,129
  809ffc:	21084504 	addi	r4,r4,8468
  80a000:	080a0140 	call	80a014 <alt_dev_reg>
}
  80a004:	dfc00117 	ldw	ra,4(sp)
  80a008:	df000017 	ldw	fp,0(sp)
  80a00c:	dec00204 	addi	sp,sp,8
  80a010:	f800283a 	ret

0080a014 <alt_dev_reg>:
  80a014:	defffd04 	addi	sp,sp,-12
  80a018:	dfc00215 	stw	ra,8(sp)
  80a01c:	df000115 	stw	fp,4(sp)
  80a020:	df000104 	addi	fp,sp,4
  80a024:	e13fff15 	stw	r4,-4(fp)
  80a028:	e13fff17 	ldw	r4,-4(fp)
  80a02c:	d1601204 	addi	r5,gp,-32696
  80a030:	080f3700 	call	80f370 <alt_dev_llist_insert>
  80a034:	dfc00217 	ldw	ra,8(sp)
  80a038:	df000117 	ldw	fp,4(sp)
  80a03c:	dec00304 	addi	sp,sp,12
  80a040:	f800283a 	ret

0080a044 <altera_avalon_jtag_uart_read_fd>:
 */

int 
altera_avalon_jtag_uart_read_fd(alt_fd* fd, char* buffer, int space)
{
  80a044:	defffa04 	addi	sp,sp,-24
  80a048:	dfc00515 	stw	ra,20(sp)
  80a04c:	df000415 	stw	fp,16(sp)
  80a050:	df000404 	addi	fp,sp,16
  80a054:	e13ffc15 	stw	r4,-16(fp)
  80a058:	e17ffd15 	stw	r5,-12(fp)
  80a05c:	e1bffe15 	stw	r6,-8(fp)
    altera_avalon_jtag_uart_dev* dev = (altera_avalon_jtag_uart_dev*) fd->dev; 
  80a060:	e0bffc17 	ldw	r2,-16(fp)
  80a064:	10800017 	ldw	r2,0(r2)
  80a068:	e0bfff15 	stw	r2,-4(fp)

    return altera_avalon_jtag_uart_read(&dev->state, buffer, space,
  80a06c:	e0bfff17 	ldw	r2,-4(fp)
  80a070:	11000a04 	addi	r4,r2,40
  80a074:	e0bffc17 	ldw	r2,-16(fp)
  80a078:	e17ffd17 	ldw	r5,-12(fp)
  80a07c:	e1bffe17 	ldw	r6,-8(fp)
  80a080:	11c00217 	ldw	r7,8(r2)
  80a084:	080a6780 	call	80a678 <altera_avalon_jtag_uart_read>
      fd->fd_flags);
}
  80a088:	dfc00517 	ldw	ra,20(sp)
  80a08c:	df000417 	ldw	fp,16(sp)
  80a090:	dec00604 	addi	sp,sp,24
  80a094:	f800283a 	ret

0080a098 <altera_avalon_jtag_uart_write_fd>:

int 
altera_avalon_jtag_uart_write_fd(alt_fd* fd, const char* buffer, int space)
{
  80a098:	defffa04 	addi	sp,sp,-24
  80a09c:	dfc00515 	stw	ra,20(sp)
  80a0a0:	df000415 	stw	fp,16(sp)
  80a0a4:	df000404 	addi	fp,sp,16
  80a0a8:	e13ffc15 	stw	r4,-16(fp)
  80a0ac:	e17ffd15 	stw	r5,-12(fp)
  80a0b0:	e1bffe15 	stw	r6,-8(fp)
    altera_avalon_jtag_uart_dev* dev = (altera_avalon_jtag_uart_dev*) fd->dev; 
  80a0b4:	e0bffc17 	ldw	r2,-16(fp)
  80a0b8:	10800017 	ldw	r2,0(r2)
  80a0bc:	e0bfff15 	stw	r2,-4(fp)

    return altera_avalon_jtag_uart_write(&dev->state, buffer, space,
  80a0c0:	e0bfff17 	ldw	r2,-4(fp)
  80a0c4:	11000a04 	addi	r4,r2,40
  80a0c8:	e0bffc17 	ldw	r2,-16(fp)
  80a0cc:	e17ffd17 	ldw	r5,-12(fp)
  80a0d0:	e1bffe17 	ldw	r6,-8(fp)
  80a0d4:	11c00217 	ldw	r7,8(r2)
  80a0d8:	080a8ac0 	call	80a8ac <altera_avalon_jtag_uart_write>
      fd->fd_flags);
}
  80a0dc:	dfc00517 	ldw	ra,20(sp)
  80a0e0:	df000417 	ldw	fp,16(sp)
  80a0e4:	dec00604 	addi	sp,sp,24
  80a0e8:	f800283a 	ret

0080a0ec <altera_avalon_jtag_uart_close_fd>:

#ifndef ALTERA_AVALON_JTAG_UART_SMALL

int 
altera_avalon_jtag_uart_close_fd(alt_fd* fd)
{
  80a0ec:	defffc04 	addi	sp,sp,-16
  80a0f0:	dfc00315 	stw	ra,12(sp)
  80a0f4:	df000215 	stw	fp,8(sp)
  80a0f8:	df000204 	addi	fp,sp,8
  80a0fc:	e13ffe15 	stw	r4,-8(fp)
    altera_avalon_jtag_uart_dev* dev = (altera_avalon_jtag_uart_dev*) fd->dev; 
  80a100:	e0bffe17 	ldw	r2,-8(fp)
  80a104:	10800017 	ldw	r2,0(r2)
  80a108:	e0bfff15 	stw	r2,-4(fp)

    return altera_avalon_jtag_uart_close(&dev->state, fd->fd_flags);
  80a10c:	e0bfff17 	ldw	r2,-4(fp)
  80a110:	11000a04 	addi	r4,r2,40
  80a114:	e0bffe17 	ldw	r2,-8(fp)
  80a118:	11400217 	ldw	r5,8(r2)
  80a11c:	080a5140 	call	80a514 <altera_avalon_jtag_uart_close>
}
  80a120:	dfc00317 	ldw	ra,12(sp)
  80a124:	df000217 	ldw	fp,8(sp)
  80a128:	dec00404 	addi	sp,sp,16
  80a12c:	f800283a 	ret

0080a130 <altera_avalon_jtag_uart_ioctl_fd>:

int 
altera_avalon_jtag_uart_ioctl_fd(alt_fd* fd, int req, void* arg)
{
  80a130:	defffa04 	addi	sp,sp,-24
  80a134:	dfc00515 	stw	ra,20(sp)
  80a138:	df000415 	stw	fp,16(sp)
  80a13c:	df000404 	addi	fp,sp,16
  80a140:	e13ffc15 	stw	r4,-16(fp)
  80a144:	e17ffd15 	stw	r5,-12(fp)
  80a148:	e1bffe15 	stw	r6,-8(fp)
    altera_avalon_jtag_uart_dev* dev = (altera_avalon_jtag_uart_dev*) fd->dev;
  80a14c:	e0bffc17 	ldw	r2,-16(fp)
  80a150:	10800017 	ldw	r2,0(r2)
  80a154:	e0bfff15 	stw	r2,-4(fp)

    return altera_avalon_jtag_uart_ioctl(&dev->state, req, arg);
  80a158:	e0bfff17 	ldw	r2,-4(fp)
  80a15c:	11000a04 	addi	r4,r2,40
  80a160:	e17ffd17 	ldw	r5,-12(fp)
  80a164:	e1bffe17 	ldw	r6,-8(fp)
  80a168:	080a5800 	call	80a580 <altera_avalon_jtag_uart_ioctl>
}
  80a16c:	dfc00517 	ldw	ra,20(sp)
  80a170:	df000417 	ldw	fp,16(sp)
  80a174:	dec00604 	addi	sp,sp,24
  80a178:	f800283a 	ret

0080a17c <altera_avalon_jtag_uart_init>:
 */

void altera_avalon_jtag_uart_init(altera_avalon_jtag_uart_state* sp, 
                                  int irq_controller_id, int irq)
{
  80a17c:	defff704 	addi	sp,sp,-36
  80a180:	dfc00815 	stw	ra,32(sp)
  80a184:	df000715 	stw	fp,28(sp)
  80a188:	df000704 	addi	fp,sp,28
  80a18c:	e13ff915 	stw	r4,-28(fp)
  80a190:	e17ffa15 	stw	r5,-24(fp)
  80a194:	e1bffb15 	stw	r6,-20(fp)
  80a198:	e03ffc15 	stw	zero,-16(fp)
  80a19c:	e03ffd15 	stw	zero,-12(fp)
  80a1a0:	e03ffe15 	stw	zero,-8(fp)
  ALT_FLAG_CREATE(&sp->events, 0);
  ALT_SEM_CREATE(&sp->read_lock, 1);
  ALT_SEM_CREATE(&sp->write_lock, 1);

  /* enable read interrupts at the device */
  sp->irq_enable = ALTERA_AVALON_JTAG_UART_CONTROL_RE_MSK;
  80a1a4:	e0fff917 	ldw	r3,-28(fp)
  80a1a8:	00800044 	movi	r2,1
  80a1ac:	18800815 	stw	r2,32(r3)

  IOWR_ALTERA_AVALON_JTAG_UART_CONTROL(sp->base, sp->irq_enable); 
  80a1b0:	e0bff917 	ldw	r2,-28(fp)
  80a1b4:	10800017 	ldw	r2,0(r2)
  80a1b8:	10800104 	addi	r2,r2,4
  80a1bc:	1007883a 	mov	r3,r2
  80a1c0:	e0bff917 	ldw	r2,-28(fp)
  80a1c4:	10800817 	ldw	r2,32(r2)
  80a1c8:	18800035 	stwio	r2,0(r3)
  
  /* register the interrupt handler */
#ifdef ALT_ENHANCED_INTERRUPT_API_PRESENT
  alt_ic_isr_register(irq_controller_id, irq, altera_avalon_jtag_uart_irq, 
                      sp, NULL);
#else
  alt_irq_register(irq, sp, altera_avalon_jtag_uart_irq);
  80a1cc:	e13ffb17 	ldw	r4,-20(fp)
  80a1d0:	e17ff917 	ldw	r5,-28(fp)
  80a1d4:	01802074 	movhi	r6,129
  80a1d8:	31a88d04 	addi	r6,r6,-24012
  80a1dc:	080f7100 	call	80f710 <alt_irq_register>
#endif  

  /* Register an alarm to go off every second to check for presence of host */
  sp->host_inactive = 0;
  80a1e0:	e0bff917 	ldw	r2,-28(fp)
  80a1e4:	10000915 	stw	zero,36(r2)
  80a1e8:	d0a02917 	ldw	r2,-32604(gp)
  80a1ec:	e0bfff15 	stw	r2,-4(fp)
  80a1f0:	e17fff17 	ldw	r5,-4(fp)
  80a1f4:	e0bff917 	ldw	r2,-28(fp)
  80a1f8:	11000204 	addi	r4,r2,8
  80a1fc:	01802074 	movhi	r6,129
  80a200:	31a91504 	addi	r6,r6,-23468
  80a204:	e1fff917 	ldw	r7,-28(fp)
  80a208:	080f2040 	call	80f204 <alt_alarm_start>
  80a20c:	1004403a 	cmpge	r2,r2,zero
  80a210:	1000041e 	bne	r2,zero,80a224 <altera_avalon_jtag_uart_init+0xa8>

  if (alt_alarm_start(&sp->alarm, alt_ticks_per_second(), 
    &altera_avalon_jtag_uart_timeout, sp) < 0)
  {
    /* If we can't set the alarm then record "don't know if host present" 
     * and behave as though the host is present.
     */
    sp->timeout = INT_MAX;
  80a214:	e0fff917 	ldw	r3,-28(fp)
  80a218:	00a00034 	movhi	r2,32768
  80a21c:	10bfffc4 	addi	r2,r2,-1
  80a220:	18800115 	stw	r2,4(r3)
  }

  /* ALT_LOG - see altera_hal/HAL/inc/sys/alt_log_printf.h */ 
  ALT_LOG_JTAG_UART_ALARM_REGISTER(sp, sp->base);
}
  80a224:	dfc00817 	ldw	ra,32(sp)
  80a228:	df000717 	ldw	fp,28(sp)
  80a22c:	dec00904 	addi	sp,sp,36
  80a230:	f800283a 	ret

0080a234 <altera_avalon_jtag_uart_irq>:

/*
 * Interrupt routine
 */ 
#ifdef ALT_ENHANCED_INTERRUPT_API_PRESENT
static void altera_avalon_jtag_uart_irq(void* context)
#else
static void altera_avalon_jtag_uart_irq(void* context, alt_u32 id)
#endif
{
  80a234:	defff704 	addi	sp,sp,-36
  80a238:	df000815 	stw	fp,32(sp)
  80a23c:	df000804 	addi	fp,sp,32
  80a240:	e13ff815 	stw	r4,-32(fp)
  80a244:	e17ff915 	stw	r5,-28(fp)
  altera_avalon_jtag_uart_state* sp = (altera_avalon_jtag_uart_state*) context;
  80a248:	e0bff817 	ldw	r2,-32(fp)
  80a24c:	e0bffa15 	stw	r2,-24(fp)
  unsigned int base = sp->base;
  80a250:	e0bffa17 	ldw	r2,-24(fp)
  80a254:	10800017 	ldw	r2,0(r2)
  80a258:	e0bffb15 	stw	r2,-20(fp)

  /* ALT_LOG - see altera_hal/HAL/inc/sys/alt_log_printf.h */ 
  ALT_LOG_JTAG_UART_ISR_FUNCTION(base, sp);

  for ( ; ; )
  {
    unsigned int control = IORD_ALTERA_AVALON_JTAG_UART_CONTROL(base);
  80a25c:	e0bffb17 	ldw	r2,-20(fp)
  80a260:	10800104 	addi	r2,r2,4
  80a264:	10800037 	ldwio	r2,0(r2)
  80a268:	e0bffc15 	stw	r2,-16(fp)

    /* Return once nothing more to do */
    if ((control & (ALTERA_AVALON_JTAG_UART_CONTROL_RI_MSK | ALTERA_AVALON_JTAG_UART_CONTROL_WI_MSK)) == 0)
  80a26c:	e0bffc17 	ldw	r2,-16(fp)
  80a270:	1080c00c 	andi	r2,r2,768
  80a274:	1004c03a 	cmpne	r2,r2,zero
  80a278:	1000011e 	bne	r2,zero,80a280 <altera_avalon_jtag_uart_irq+0x4c>
      break;
  80a27c:	00007206 	br	80a448 <altera_avalon_jtag_uart_irq+0x214>

    if (control & ALTERA_AVALON_JTAG_UART_CONTROL_RI_MSK)
  80a280:	e0bffc17 	ldw	r2,-16(fp)
  80a284:	1080400c 	andi	r2,r2,256
  80a288:	1005003a 	cmpeq	r2,r2,zero
  80a28c:	1000371e 	bne	r2,zero,80a36c <altera_avalon_jtag_uart_irq+0x138>
    {
      /* process a read irq.  Start by assuming that there is data in the
       * receive FIFO (otherwise why would we have been interrupted?)
       */
      unsigned int data = 1 << ALTERA_AVALON_JTAG_UART_DATA_RAVAIL_OFST;
  80a290:	00800074 	movhi	r2,1
  80a294:	10800004 	addi	r2,r2,0
  80a298:	e0bffd15 	stw	r2,-12(fp)

      for ( ; ; )
      {
        /* Check whether there is space in the buffer.  If not then we must not
         * read any characters from the buffer as they will be lost.
         */
        unsigned int next = (sp->rx_in + 1) % ALTERA_AVALON_JTAG_UART_BUF_LEN;
  80a29c:	e0bffa17 	ldw	r2,-24(fp)
  80a2a0:	10800a17 	ldw	r2,40(r2)
  80a2a4:	10800044 	addi	r2,r2,1
  80a2a8:	1081ffcc 	andi	r2,r2,2047
  80a2ac:	e0bffe15 	stw	r2,-8(fp)
        if (next == sp->rx_out)
  80a2b0:	e0bffa17 	ldw	r2,-24(fp)
  80a2b4:	10c00b17 	ldw	r3,44(r2)
  80a2b8:	e0bffe17 	ldw	r2,-8(fp)
  80a2bc:	1880011e 	bne	r3,r2,80a2c4 <altera_avalon_jtag_uart_irq+0x90>
          break;
  80a2c0:	00001706 	br	80a320 <altera_avalon_jtag_uart_irq+0xec>

        /* Try to remove a character from the FIFO and find out whether there
         * are any more characters remaining.
         */
        data = IORD_ALTERA_AVALON_JTAG_UART_DATA(base);
  80a2c4:	e0bffb17 	ldw	r2,-20(fp)
  80a2c8:	10800037 	ldwio	r2,0(r2)
  80a2cc:	e0bffd15 	stw	r2,-12(fp)
        
        if ((data & ALTERA_AVALON_JTAG_UART_DATA_RVALID_MSK) == 0)
  80a2d0:	e0bffd17 	ldw	r2,-12(fp)
  80a2d4:	10a0000c 	andi	r2,r2,32768
  80a2d8:	1004c03a 	cmpne	r2,r2,zero
  80a2dc:	1000011e 	bne	r2,zero,80a2e4 <altera_avalon_jtag_uart_irq+0xb0>
          break;
  80a2e0:	00000f06 	br	80a320 <altera_avalon_jtag_uart_irq+0xec>

        sp->rx_buf[sp->rx_in] = (data & ALTERA_AVALON_JTAG_UART_DATA_DATA_MSK) >> ALTERA_AVALON_JTAG_UART_DATA_DATA_OFST;
  80a2e4:	e0fffa17 	ldw	r3,-24(fp)
  80a2e8:	e0bffa17 	ldw	r2,-24(fp)
  80a2ec:	10800a17 	ldw	r2,40(r2)
  80a2f0:	1885883a 	add	r2,r3,r2
  80a2f4:	10c00e04 	addi	r3,r2,56
  80a2f8:	e0bffd17 	ldw	r2,-12(fp)
  80a2fc:	18800005 	stb	r2,0(r3)
        sp->rx_in = (sp->rx_in + 1) % ALTERA_AVALON_JTAG_UART_BUF_LEN;
  80a300:	e0fffa17 	ldw	r3,-24(fp)
  80a304:	e0bffa17 	ldw	r2,-24(fp)
  80a308:	10800a17 	ldw	r2,40(r2)
  80a30c:	10800044 	addi	r2,r2,1
  80a310:	1081ffcc 	andi	r2,r2,2047
  80a314:	18800a15 	stw	r2,40(r3)
  80a318:	e03fff15 	stw	zero,-4(fp)
  80a31c:	003fdf06 	br	80a29c <altera_avalon_jtag_uart_irq+0x68>

        /* Post an event to notify jtag_uart_read that a character has been read */
        ALT_FLAG_POST (sp->events, ALT_JTAG_UART_READ_RDY, OS_FLAG_SET);
      }

      if (data & ALTERA_AVALON_JTAG_UART_DATA_RAVAIL_MSK)
  80a320:	e0bffd17 	ldw	r2,-12(fp)
  80a324:	10bfffec 	andhi	r2,r2,65535
  80a328:	1005003a 	cmpeq	r2,r2,zero
  80a32c:	10000f1e 	bne	r2,zero,80a36c <altera_avalon_jtag_uart_irq+0x138>
      {
        /* If there is still data available here then the buffer is full 
         * so turn off receive interrupts until some space becomes available.
         */
        sp->irq_enable &= ~ALTERA_AVALON_JTAG_UART_CONTROL_RE_MSK;
  80a330:	e13ffa17 	ldw	r4,-24(fp)
  80a334:	e0bffa17 	ldw	r2,-24(fp)
  80a338:	10c00817 	ldw	r3,32(r2)
  80a33c:	00bfff84 	movi	r2,-2
  80a340:	1884703a 	and	r2,r3,r2
  80a344:	20800815 	stw	r2,32(r4)
        IOWR_ALTERA_AVALON_JTAG_UART_CONTROL(base, sp->irq_enable);
  80a348:	e0bffb17 	ldw	r2,-20(fp)
  80a34c:	10800104 	addi	r2,r2,4
  80a350:	1007883a 	mov	r3,r2
  80a354:	e0bffa17 	ldw	r2,-24(fp)
  80a358:	10800817 	ldw	r2,32(r2)
  80a35c:	18800035 	stwio	r2,0(r3)
        
        /* Dummy read to ensure IRQ is cleared prior to ISR completion */
        IORD_ALTERA_AVALON_JTAG_UART_CONTROL(base);
  80a360:	e0bffb17 	ldw	r2,-20(fp)
  80a364:	10800104 	addi	r2,r2,4
  80a368:	10800037 	ldwio	r2,0(r2)
      }
    }

    if (control & ALTERA_AVALON_JTAG_UART_CONTROL_WI_MSK)
  80a36c:	e0bffc17 	ldw	r2,-16(fp)
  80a370:	1080800c 	andi	r2,r2,512
  80a374:	1005003a 	cmpeq	r2,r2,zero
  80a378:	103fb81e 	bne	r2,zero,80a25c <altera_avalon_jtag_uart_irq+0x28>
    {
      /* process a write irq */
      unsigned int space = (control & ALTERA_AVALON_JTAG_UART_CONTROL_WSPACE_MSK) >> ALTERA_AVALON_JTAG_UART_CONTROL_WSPACE_OFST;
  80a37c:	e0bffc17 	ldw	r2,-16(fp)
  80a380:	10bfffec 	andhi	r2,r2,65535
  80a384:	1004d43a 	srli	r2,r2,16
  80a388:	e0bfff15 	stw	r2,-4(fp)

      while (space > 0 && sp->tx_out != sp->tx_in)
  80a38c:	e0bfff17 	ldw	r2,-4(fp)
  80a390:	1005003a 	cmpeq	r2,r2,zero
  80a394:	1000181e 	bne	r2,zero,80a3f8 <altera_avalon_jtag_uart_irq+0x1c4>
  80a398:	e0bffa17 	ldw	r2,-24(fp)
  80a39c:	e0fffa17 	ldw	r3,-24(fp)
  80a3a0:	11000d17 	ldw	r4,52(r2)
  80a3a4:	18800c17 	ldw	r2,48(r3)
  80a3a8:	20801326 	beq	r4,r2,80a3f8 <altera_avalon_jtag_uart_irq+0x1c4>
      {
        IOWR_ALTERA_AVALON_JTAG_UART_DATA(base, sp->tx_buf[sp->tx_out]);
  80a3ac:	e13ffb17 	ldw	r4,-20(fp)
  80a3b0:	e0fffa17 	ldw	r3,-24(fp)
  80a3b4:	e0bffa17 	ldw	r2,-24(fp)
  80a3b8:	10800d17 	ldw	r2,52(r2)
  80a3bc:	1885883a 	add	r2,r3,r2
  80a3c0:	10820e04 	addi	r2,r2,2104
  80a3c4:	10800007 	ldb	r2,0(r2)
  80a3c8:	20800035 	stwio	r2,0(r4)

        sp->tx_out = (sp->tx_out + 1) % ALTERA_AVALON_JTAG_UART_BUF_LEN;
  80a3cc:	e0fffa17 	ldw	r3,-24(fp)
  80a3d0:	e0bffa17 	ldw	r2,-24(fp)
  80a3d4:	10800d17 	ldw	r2,52(r2)
  80a3d8:	10800044 	addi	r2,r2,1
  80a3dc:	1081ffcc 	andi	r2,r2,2047
  80a3e0:	18800d15 	stw	r2,52(r3)
  80a3e4:	e03ffe15 	stw	zero,-8(fp)

        /* Post an event to notify jtag_uart_write that a character has been written */
        ALT_FLAG_POST (sp->events, ALT_JTAG_UART_WRITE_RDY, OS_FLAG_SET);

        space--;
  80a3e8:	e0bfff17 	ldw	r2,-4(fp)
  80a3ec:	10bfffc4 	addi	r2,r2,-1
  80a3f0:	e0bfff15 	stw	r2,-4(fp)
  80a3f4:	003fe506 	br	80a38c <altera_avalon_jtag_uart_irq+0x158>
      }

      if (space > 0)
  80a3f8:	e0bfff17 	ldw	r2,-4(fp)
  80a3fc:	1005003a 	cmpeq	r2,r2,zero
  80a400:	103f961e 	bne	r2,zero,80a25c <altera_avalon_jtag_uart_irq+0x28>
      {
        /* If we don't have any more data available then turn off the TX interrupt */
        sp->irq_enable &= ~ALTERA_AVALON_JTAG_UART_CONTROL_WE_MSK;
  80a404:	e13ffa17 	ldw	r4,-24(fp)
  80a408:	e0bffa17 	ldw	r2,-24(fp)
  80a40c:	10c00817 	ldw	r3,32(r2)
  80a410:	00bfff44 	movi	r2,-3
  80a414:	1884703a 	and	r2,r3,r2
  80a418:	20800815 	stw	r2,32(r4)
        IOWR_ALTERA_AVALON_JTAG_UART_CONTROL(sp->base, sp->irq_enable);
  80a41c:	e0bffa17 	ldw	r2,-24(fp)
  80a420:	10800017 	ldw	r2,0(r2)
  80a424:	10800104 	addi	r2,r2,4
  80a428:	1007883a 	mov	r3,r2
  80a42c:	e0bffa17 	ldw	r2,-24(fp)
  80a430:	10800817 	ldw	r2,32(r2)
  80a434:	18800035 	stwio	r2,0(r3)
        
        /* Dummy read to ensure IRQ is cleared prior to ISR completion */
        IORD_ALTERA_AVALON_JTAG_UART_CONTROL(base);
  80a438:	e0bffb17 	ldw	r2,-20(fp)
  80a43c:	10800104 	addi	r2,r2,4
  80a440:	10800037 	ldwio	r2,0(r2)
  80a444:	003f8506 	br	80a25c <altera_avalon_jtag_uart_irq+0x28>
      }
    }
  }
}
  80a448:	df000817 	ldw	fp,32(sp)
  80a44c:	dec00904 	addi	sp,sp,36
  80a450:	f800283a 	ret

0080a454 <altera_avalon_jtag_uart_timeout>:

/*
 * Timeout routine is called every second
 */

static alt_u32 
altera_avalon_jtag_uart_timeout(void* context) 
{
  80a454:	defffb04 	addi	sp,sp,-20
  80a458:	df000415 	stw	fp,16(sp)
  80a45c:	df000404 	addi	fp,sp,16
  80a460:	e13ffc15 	stw	r4,-16(fp)
  altera_avalon_jtag_uart_state* sp = (altera_avalon_jtag_uart_state *) context;
  80a464:	e0bffc17 	ldw	r2,-16(fp)
  80a468:	e0bffd15 	stw	r2,-12(fp)

  unsigned int control = IORD_ALTERA_AVALON_JTAG_UART_CONTROL(sp->base);
  80a46c:	e0bffd17 	ldw	r2,-12(fp)
  80a470:	10800017 	ldw	r2,0(r2)
  80a474:	10800104 	addi	r2,r2,4
  80a478:	10800037 	ldwio	r2,0(r2)
  80a47c:	e0bffe15 	stw	r2,-8(fp)

  if (control & ALTERA_AVALON_JTAG_UART_CONTROL_AC_MSK)
  80a480:	e0bffe17 	ldw	r2,-8(fp)
  80a484:	1081000c 	andi	r2,r2,1024
  80a488:	1005003a 	cmpeq	r2,r2,zero
  80a48c:	10000b1e 	bne	r2,zero,80a4bc <altera_avalon_jtag_uart_timeout+0x68>
  {
    IOWR_ALTERA_AVALON_JTAG_UART_CONTROL(sp->base, sp->irq_enable | ALTERA_AVALON_JTAG_UART_CONTROL_AC_MSK);
  80a490:	e0bffd17 	ldw	r2,-12(fp)
  80a494:	10800017 	ldw	r2,0(r2)
  80a498:	10800104 	addi	r2,r2,4
  80a49c:	1007883a 	mov	r3,r2
  80a4a0:	e0bffd17 	ldw	r2,-12(fp)
  80a4a4:	10800817 	ldw	r2,32(r2)
  80a4a8:	10810014 	ori	r2,r2,1024
  80a4ac:	18800035 	stwio	r2,0(r3)
    sp->host_inactive = 0;
  80a4b0:	e0bffd17 	ldw	r2,-12(fp)
  80a4b4:	10000915 	stw	zero,36(r2)
  80a4b8:	00001006 	br	80a4fc <altera_avalon_jtag_uart_timeout+0xa8>
  }
  else if (sp->host_inactive < INT_MAX - 2) {
  80a4bc:	e0bffd17 	ldw	r2,-12(fp)
  80a4c0:	10c00917 	ldw	r3,36(r2)
  80a4c4:	00a00034 	movhi	r2,32768
  80a4c8:	10bfff04 	addi	r2,r2,-4
  80a4cc:	10c00b36 	bltu	r2,r3,80a4fc <altera_avalon_jtag_uart_timeout+0xa8>
    sp->host_inactive++;
  80a4d0:	e0fffd17 	ldw	r3,-12(fp)
  80a4d4:	e0bffd17 	ldw	r2,-12(fp)
  80a4d8:	10800917 	ldw	r2,36(r2)
  80a4dc:	10800044 	addi	r2,r2,1
  80a4e0:	18800915 	stw	r2,36(r3)
    
    if (sp->host_inactive >= sp->timeout) {
  80a4e4:	e0bffd17 	ldw	r2,-12(fp)
  80a4e8:	e0fffd17 	ldw	r3,-12(fp)
  80a4ec:	11000917 	ldw	r4,36(r2)
  80a4f0:	18800117 	ldw	r2,4(r3)
  80a4f4:	20800136 	bltu	r4,r2,80a4fc <altera_avalon_jtag_uart_timeout+0xa8>
  80a4f8:	e03fff15 	stw	zero,-4(fp)
  80a4fc:	d0a02917 	ldw	r2,-32604(gp)
  80a500:	e0bfff15 	stw	r2,-4(fp)
  80a504:	e0bfff17 	ldw	r2,-4(fp)
      /* Post an event to indicate host is inactive (for jtag_uart_read */
      ALT_FLAG_POST (sp->events, ALT_JTAG_UART_TIMEOUT, OS_FLAG_SET);
    }
  }

  return alt_ticks_per_second();
}
  80a508:	df000417 	ldw	fp,16(sp)
  80a50c:	dec00504 	addi	sp,sp,20
  80a510:	f800283a 	ret

0080a514 <altera_avalon_jtag_uart_close>:

/*
 * The close() routine is implemented to drain the JTAG UART transmit buffer
 * when not in "small" mode. This routine will wait for transimt data to be
 * emptied unless a timeout from host-activity occurs. If the driver flags
 * have been set to non-blocking mode, this routine will exit immediately if
 * any data remains. This routine should be called indirectly (i.e. though
 * the C library close() routine) so that the file descriptor associated 
 * with the relevant stream (i.e. stdout) can be closed as well. This routine
 * does not manage file descriptors.
 * 
 * The close routine is not implemented for the small driver; instead it will
 * map to null. This is because the small driver simply waits while characters
 * are transmitted; there is no interrupt-serviced buffer to empty 
 */
int altera_avalon_jtag_uart_close(altera_avalon_jtag_uart_state* sp, int flags)
{
  80a514:	defffc04 	addi	sp,sp,-16
  80a518:	df000315 	stw	fp,12(sp)
  80a51c:	df000304 	addi	fp,sp,12
  80a520:	e13ffd15 	stw	r4,-12(fp)
  80a524:	e17ffe15 	stw	r5,-8(fp)
  /* 
   * Wait for all transmit data to be emptied by the JTAG UART ISR, or
   * for a host-inactivity timeout, in which case transmit data will be lost
   */
  while ( (sp->tx_out != sp->tx_in) && (sp->host_inactive < sp->timeout) ) {
  80a528:	e0bffd17 	ldw	r2,-12(fp)
  80a52c:	e0fffd17 	ldw	r3,-12(fp)
  80a530:	11000d17 	ldw	r4,52(r2)
  80a534:	18800c17 	ldw	r2,48(r3)
  80a538:	20800c26 	beq	r4,r2,80a56c <altera_avalon_jtag_uart_close+0x58>
  80a53c:	e0bffd17 	ldw	r2,-12(fp)
  80a540:	e0fffd17 	ldw	r3,-12(fp)
  80a544:	11000917 	ldw	r4,36(r2)
  80a548:	18800117 	ldw	r2,4(r3)
  80a54c:	2080072e 	bgeu	r4,r2,80a56c <altera_avalon_jtag_uart_close+0x58>
    if (flags & O_NONBLOCK) {
  80a550:	e0bffe17 	ldw	r2,-8(fp)
  80a554:	1090000c 	andi	r2,r2,16384
  80a558:	1005003a 	cmpeq	r2,r2,zero
  80a55c:	103ff21e 	bne	r2,zero,80a528 <altera_avalon_jtag_uart_close+0x14>
      return -EWOULDBLOCK; 
  80a560:	00bffd44 	movi	r2,-11
  80a564:	e0bfff15 	stw	r2,-4(fp)
  80a568:	00000106 	br	80a570 <altera_avalon_jtag_uart_close+0x5c>
    }
  }

  return 0;
  80a56c:	e03fff15 	stw	zero,-4(fp)
}
  80a570:	e0bfff17 	ldw	r2,-4(fp)
  80a574:	df000317 	ldw	fp,12(sp)
  80a578:	dec00404 	addi	sp,sp,16
  80a57c:	f800283a 	ret

0080a580 <altera_avalon_jtag_uart_ioctl>:

int 
altera_avalon_jtag_uart_ioctl(altera_avalon_jtag_uart_state* sp, int req,
  void* arg)
{
  80a580:	defff704 	addi	sp,sp,-36
  80a584:	df000815 	stw	fp,32(sp)
  80a588:	df000804 	addi	fp,sp,32
  80a58c:	e13ff815 	stw	r4,-32(fp)
  80a590:	e17ff915 	stw	r5,-28(fp)
  80a594:	e1bffa15 	stw	r6,-24(fp)
  int rc = -ENOTTY;
  80a598:	00bff9c4 	movi	r2,-25
  80a59c:	e0bffb15 	stw	r2,-20(fp)

  switch (req)
  80a5a0:	e0bff917 	ldw	r2,-28(fp)
  80a5a4:	e0bfff15 	stw	r2,-4(fp)
  80a5a8:	e0ffff17 	ldw	r3,-4(fp)
  80a5ac:	189a8060 	cmpeqi	r2,r3,27137
  80a5b0:	1000041e 	bne	r2,zero,80a5c4 <altera_avalon_jtag_uart_ioctl+0x44>
  80a5b4:	e0ffff17 	ldw	r3,-4(fp)
  80a5b8:	189a80a0 	cmpeqi	r2,r3,27138
  80a5bc:	10001d1e 	bne	r2,zero,80a634 <altera_avalon_jtag_uart_ioctl+0xb4>
  80a5c0:	00002906 	br	80a668 <altera_avalon_jtag_uart_ioctl+0xe8>
  {
  case TIOCSTIMEOUT:
    /* Set the time to wait until assuming host is not connected */
    if (sp->timeout != INT_MAX)
  80a5c4:	e0bff817 	ldw	r2,-32(fp)
  80a5c8:	10c00117 	ldw	r3,4(r2)
  80a5cc:	00a00034 	movhi	r2,32768
  80a5d0:	10bfffc4 	addi	r2,r2,-1
  80a5d4:	18802426 	beq	r3,r2,80a668 <altera_avalon_jtag_uart_ioctl+0xe8>
    {
      int timeout = *((int *)arg);
  80a5d8:	e0bffa17 	ldw	r2,-24(fp)
  80a5dc:	10800017 	ldw	r2,0(r2)
  80a5e0:	e0bffc15 	stw	r2,-16(fp)
      sp->timeout = (timeout >= 2 && timeout < INT_MAX) ? timeout : INT_MAX - 1;
  80a5e4:	e0bff817 	ldw	r2,-32(fp)
  80a5e8:	e0bffd15 	stw	r2,-12(fp)
  80a5ec:	e0bffc17 	ldw	r2,-16(fp)
  80a5f0:	10800090 	cmplti	r2,r2,2
  80a5f4:	1000071e 	bne	r2,zero,80a614 <altera_avalon_jtag_uart_ioctl+0x94>
  80a5f8:	e0fffc17 	ldw	r3,-16(fp)
  80a5fc:	00a00034 	movhi	r2,32768
  80a600:	10bfffc4 	addi	r2,r2,-1
  80a604:	18800326 	beq	r3,r2,80a614 <altera_avalon_jtag_uart_ioctl+0x94>
  80a608:	e0fffc17 	ldw	r3,-16(fp)
  80a60c:	e0fffe15 	stw	r3,-8(fp)
  80a610:	00000306 	br	80a620 <altera_avalon_jtag_uart_ioctl+0xa0>
  80a614:	00a00034 	movhi	r2,32768
  80a618:	10bfff84 	addi	r2,r2,-2
  80a61c:	e0bffe15 	stw	r2,-8(fp)
  80a620:	e0fffe17 	ldw	r3,-8(fp)
  80a624:	e0bffd17 	ldw	r2,-12(fp)
  80a628:	10c00115 	stw	r3,4(r2)
      rc = 0;
  80a62c:	e03ffb15 	stw	zero,-20(fp)
    }
    break;
  80a630:	00000d06 	br	80a668 <altera_avalon_jtag_uart_ioctl+0xe8>

  case TIOCGCONNECTED:
    /* Find out whether host is connected */
    if (sp->timeout != INT_MAX)
  80a634:	e0bff817 	ldw	r2,-32(fp)
  80a638:	10c00117 	ldw	r3,4(r2)
  80a63c:	00a00034 	movhi	r2,32768
  80a640:	10bfffc4 	addi	r2,r2,-1
  80a644:	18800826 	beq	r3,r2,80a668 <altera_avalon_jtag_uart_ioctl+0xe8>
    {
      *((int *)arg) = (sp->host_inactive < sp->timeout) ? 1 : 0;
  80a648:	e17ffa17 	ldw	r5,-24(fp)
  80a64c:	e0bff817 	ldw	r2,-32(fp)
  80a650:	e0fff817 	ldw	r3,-32(fp)
  80a654:	11000917 	ldw	r4,36(r2)
  80a658:	18800117 	ldw	r2,4(r3)
  80a65c:	2085803a 	cmpltu	r2,r4,r2
  80a660:	28800015 	stw	r2,0(r5)
      rc = 0;
  80a664:	e03ffb15 	stw	zero,-20(fp)
    }
    break;

  default:
    break;
  }

  return rc;
  80a668:	e0bffb17 	ldw	r2,-20(fp)
}
  80a66c:	df000817 	ldw	fp,32(sp)
  80a670:	dec00904 	addi	sp,sp,36
  80a674:	f800283a 	ret

0080a678 <altera_avalon_jtag_uart_read>:

int 
altera_avalon_jtag_uart_read(altera_avalon_jtag_uart_state* sp, 
  char * buffer, int space, int flags)
{
  80a678:	defff204 	addi	sp,sp,-56
  80a67c:	dfc00d15 	stw	ra,52(sp)
  80a680:	df000c15 	stw	fp,48(sp)
  80a684:	df000c04 	addi	fp,sp,48
  80a688:	e13ff415 	stw	r4,-48(fp)
  80a68c:	e17ff515 	stw	r5,-44(fp)
  80a690:	e1bff615 	stw	r6,-40(fp)
  80a694:	e1fff715 	stw	r7,-36(fp)
  char * ptr = buffer;
  80a698:	e0bff517 	ldw	r2,-44(fp)
  80a69c:	e0bff815 	stw	r2,-32(fp)
  80a6a0:	e03ffb15 	stw	zero,-20(fp)

  alt_irq_context context;
  unsigned int n;

  /*
   * When running in a multi threaded environment, obtain the "read_lock"
   * semaphore. This ensures that reading from the device is thread-safe.
   */
  ALT_SEM_PEND (sp->read_lock, 0);

  while (space > 0)
  80a6a4:	e0bff617 	ldw	r2,-40(fp)
  80a6a8:	10800050 	cmplti	r2,r2,1
  80a6ac:	10004b1e 	bne	r2,zero,80a7dc <altera_avalon_jtag_uart_read+0x164>
  {
    unsigned int in, out;

    /* Read as much data as possible */
    do
    {
      in  = sp->rx_in;
  80a6b0:	e0bff417 	ldw	r2,-48(fp)
  80a6b4:	10800a17 	ldw	r2,40(r2)
  80a6b8:	e0bffc15 	stw	r2,-16(fp)
      out = sp->rx_out;
  80a6bc:	e0bff417 	ldw	r2,-48(fp)
  80a6c0:	10800b17 	ldw	r2,44(r2)
  80a6c4:	e0bffd15 	stw	r2,-12(fp)

      if (in >= out)
  80a6c8:	e0fffc17 	ldw	r3,-16(fp)
  80a6cc:	e0bffd17 	ldw	r2,-12(fp)
  80a6d0:	18800536 	bltu	r3,r2,80a6e8 <altera_avalon_jtag_uart_read+0x70>
        n = in - out;
  80a6d4:	e0bffc17 	ldw	r2,-16(fp)
  80a6d8:	e0fffd17 	ldw	r3,-12(fp)
  80a6dc:	10c5c83a 	sub	r2,r2,r3
  80a6e0:	e0bffa15 	stw	r2,-24(fp)
  80a6e4:	00000406 	br	80a6f8 <altera_avalon_jtag_uart_read+0x80>
      else
        n = ALTERA_AVALON_JTAG_UART_BUF_LEN - out;
  80a6e8:	00820004 	movi	r2,2048
  80a6ec:	e0fffd17 	ldw	r3,-12(fp)
  80a6f0:	10c5c83a 	sub	r2,r2,r3
  80a6f4:	e0bffa15 	stw	r2,-24(fp)

      if (n == 0)
  80a6f8:	e0bffa17 	ldw	r2,-24(fp)
  80a6fc:	1004c03a 	cmpne	r2,r2,zero
  80a700:	1000011e 	bne	r2,zero,80a708 <altera_avalon_jtag_uart_read+0x90>
        break; /* No more data available */
  80a704:	00001e06 	br	80a780 <altera_avalon_jtag_uart_read+0x108>

      if (n > space)
  80a708:	e0fff617 	ldw	r3,-40(fp)
  80a70c:	e0bffa17 	ldw	r2,-24(fp)
  80a710:	1880022e 	bgeu	r3,r2,80a71c <altera_avalon_jtag_uart_read+0xa4>
        n = space;
  80a714:	e0bff617 	ldw	r2,-40(fp)
  80a718:	e0bffa15 	stw	r2,-24(fp)

      memcpy(ptr, sp->rx_buf + out, n);
  80a71c:	e0fff417 	ldw	r3,-48(fp)
  80a720:	e0bffd17 	ldw	r2,-12(fp)
  80a724:	1885883a 	add	r2,r3,r2
  80a728:	11400e04 	addi	r5,r2,56
  80a72c:	e13ff817 	ldw	r4,-32(fp)
  80a730:	e1bffa17 	ldw	r6,-24(fp)
  80a734:	08056f40 	call	8056f4 <memcpy>
      ptr   += n;
  80a738:	e0fff817 	ldw	r3,-32(fp)
  80a73c:	e0bffa17 	ldw	r2,-24(fp)
  80a740:	1885883a 	add	r2,r3,r2
  80a744:	e0bff815 	stw	r2,-32(fp)
      space -= n;
  80a748:	e0fff617 	ldw	r3,-40(fp)
  80a74c:	e0bffa17 	ldw	r2,-24(fp)
  80a750:	1885c83a 	sub	r2,r3,r2
  80a754:	e0bff615 	stw	r2,-40(fp)

      sp->rx_out = (out + n) % ALTERA_AVALON_JTAG_UART_BUF_LEN;
  80a758:	e13ff417 	ldw	r4,-48(fp)
  80a75c:	e0fffd17 	ldw	r3,-12(fp)
  80a760:	e0bffa17 	ldw	r2,-24(fp)
  80a764:	1885883a 	add	r2,r3,r2
  80a768:	1081ffcc 	andi	r2,r2,2047
  80a76c:	20800b15 	stw	r2,44(r4)
    }
  80a770:	e0bff617 	ldw	r2,-40(fp)
  80a774:	10800050 	cmplti	r2,r2,1
  80a778:	1000011e 	bne	r2,zero,80a780 <altera_avalon_jtag_uart_read+0x108>
  80a77c:	003fcc06 	br	80a6b0 <altera_avalon_jtag_uart_read+0x38>
    while (space > 0);

    /* If we read any data then return it */
    if (ptr != buffer)
  80a780:	e0fff817 	ldw	r3,-32(fp)
  80a784:	e0bff517 	ldw	r2,-44(fp)
  80a788:	18800126 	beq	r3,r2,80a790 <altera_avalon_jtag_uart_read+0x118>
      break;
  80a78c:	00001306 	br	80a7dc <altera_avalon_jtag_uart_read+0x164>

    /* If in non-blocking mode then return error */
    if (flags & O_NONBLOCK)
  80a790:	e0bff717 	ldw	r2,-36(fp)
  80a794:	1090000c 	andi	r2,r2,16384
  80a798:	1005003a 	cmpeq	r2,r2,zero
  80a79c:	1000011e 	bne	r2,zero,80a7a4 <altera_avalon_jtag_uart_read+0x12c>
      break;
  80a7a0:	00000e06 	br	80a7dc <altera_avalon_jtag_uart_read+0x164>

#ifdef __ucosii__
    /* OS Present: Pend on a flag if the OS is running, otherwise spin */
    if(OSRunning == OS_TRUE) {
      /*
       * When running in a multi-threaded mode, we pend on the read event
       * flag set and timeout event flag set in the isr. This avoids wasting CPU
       * cycles waiting in this thread, when we could be doing something more
       * profitable elsewhere.
       */
      ALT_FLAG_PEND (sp->events,
                     ALT_JTAG_UART_READ_RDY | ALT_JTAG_UART_TIMEOUT,
                     OS_FLAG_WAIT_SET_ANY + OS_FLAG_CONSUME,
                     0);
    }
    else {
      /* Spin until more data arrives or until host disconnects */
      while (in == sp->rx_in && sp->host_inactive < sp->timeout)
        ;
    }
#else
    /* No OS: Always spin */
    while (in == sp->rx_in && sp->host_inactive < sp->timeout)
  80a7a4:	e0bff417 	ldw	r2,-48(fp)
  80a7a8:	10c00a17 	ldw	r3,40(r2)
  80a7ac:	e0bffc17 	ldw	r2,-16(fp)
  80a7b0:	1880061e 	bne	r3,r2,80a7cc <altera_avalon_jtag_uart_read+0x154>
  80a7b4:	e0bff417 	ldw	r2,-48(fp)
  80a7b8:	e0fff417 	ldw	r3,-48(fp)
  80a7bc:	11000917 	ldw	r4,36(r2)
  80a7c0:	18800117 	ldw	r2,4(r3)
  80a7c4:	2080012e 	bgeu	r4,r2,80a7cc <altera_avalon_jtag_uart_read+0x154>
  80a7c8:	003ff606 	br	80a7a4 <altera_avalon_jtag_uart_read+0x12c>
      ;
#endif /* __ucosii__ */

    if (in == sp->rx_in)
  80a7cc:	e0bff417 	ldw	r2,-48(fp)
  80a7d0:	10c00a17 	ldw	r3,40(r2)
  80a7d4:	e0bffc17 	ldw	r2,-16(fp)
  80a7d8:	18bfb21e 	bne	r3,r2,80a6a4 <altera_avalon_jtag_uart_read+0x2c>
  80a7dc:	e03ffd15 	stw	zero,-12(fp)
      break;
  }

  /*
   * Now that access to the circular buffer is complete, release the read
   * semaphore so that other threads can access the buffer.
   */

  ALT_SEM_POST (sp->read_lock);

  if (ptr != buffer)
  80a7e0:	e0fff817 	ldw	r3,-32(fp)
  80a7e4:	e0bff517 	ldw	r2,-44(fp)
  80a7e8:	18801a26 	beq	r3,r2,80a854 <altera_avalon_jtag_uart_read+0x1dc>
  80a7ec:	0005303a 	rdctl	r2,status
  80a7f0:	e0bffe15 	stw	r2,-8(fp)
  80a7f4:	e0fffe17 	ldw	r3,-8(fp)
  80a7f8:	00bfff84 	movi	r2,-2
  80a7fc:	1884703a 	and	r2,r3,r2
  80a800:	1001703a 	wrctl	status,r2
  80a804:	e0bffe17 	ldw	r2,-8(fp)
  80a808:	e0bffc15 	stw	r2,-16(fp)
  80a80c:	e0bffc17 	ldw	r2,-16(fp)
  80a810:	e0bff915 	stw	r2,-28(fp)
  {
    /* If we read any data then there is space in the buffer so enable interrupts */
    context = alt_irq_disable_all();
    sp->irq_enable |= ALTERA_AVALON_JTAG_UART_CONTROL_RE_MSK;
  80a814:	e0fff417 	ldw	r3,-48(fp)
  80a818:	e0bff417 	ldw	r2,-48(fp)
  80a81c:	10800817 	ldw	r2,32(r2)
  80a820:	10800054 	ori	r2,r2,1
  80a824:	18800815 	stw	r2,32(r3)
    IOWR_ALTERA_AVALON_JTAG_UART_CONTROL(sp->base, sp->irq_enable);
  80a828:	e0bff417 	ldw	r2,-48(fp)
  80a82c:	10800017 	ldw	r2,0(r2)
  80a830:	10800104 	addi	r2,r2,4
  80a834:	1007883a 	mov	r3,r2
  80a838:	e0bff417 	ldw	r2,-48(fp)
  80a83c:	10800817 	ldw	r2,32(r2)
  80a840:	18800035 	stwio	r2,0(r3)
  80a844:	e0bff917 	ldw	r2,-28(fp)
  80a848:	e0bffe15 	stw	r2,-8(fp)
  80a84c:	e0bffe17 	ldw	r2,-8(fp)
  80a850:	1001703a 	wrctl	status,r2
    alt_irq_enable_all(context);
  }

  if (ptr != buffer)
  80a854:	e0fff817 	ldw	r3,-32(fp)
  80a858:	e0bff517 	ldw	r2,-44(fp)
  80a85c:	18800526 	beq	r3,r2,80a874 <altera_avalon_jtag_uart_read+0x1fc>
    return ptr - buffer;
  80a860:	e0bff817 	ldw	r2,-32(fp)
  80a864:	e0fff517 	ldw	r3,-44(fp)
  80a868:	10c5c83a 	sub	r2,r2,r3
  80a86c:	e0bfff15 	stw	r2,-4(fp)
  80a870:	00000906 	br	80a898 <altera_avalon_jtag_uart_read+0x220>
  else if (flags & O_NONBLOCK)
  80a874:	e0bff717 	ldw	r2,-36(fp)
  80a878:	1090000c 	andi	r2,r2,16384
  80a87c:	1005003a 	cmpeq	r2,r2,zero
  80a880:	1000031e 	bne	r2,zero,80a890 <altera_avalon_jtag_uart_read+0x218>
    return -EWOULDBLOCK;
  80a884:	00bffd44 	movi	r2,-11
  80a888:	e0bfff15 	stw	r2,-4(fp)
  80a88c:	00000206 	br	80a898 <altera_avalon_jtag_uart_read+0x220>
  else
    return -EIO;
  80a890:	00bffec4 	movi	r2,-5
  80a894:	e0bfff15 	stw	r2,-4(fp)
}
  80a898:	e0bfff17 	ldw	r2,-4(fp)
  80a89c:	dfc00d17 	ldw	ra,52(sp)
  80a8a0:	df000c17 	ldw	fp,48(sp)
  80a8a4:	dec00e04 	addi	sp,sp,56
  80a8a8:	f800283a 	ret

0080a8ac <altera_avalon_jtag_uart_write>:

int 
altera_avalon_jtag_uart_write(altera_avalon_jtag_uart_state* sp, 
  const char * ptr, int count, int flags)
{
  80a8ac:	defff104 	addi	sp,sp,-60
  80a8b0:	dfc00e15 	stw	ra,56(sp)
  80a8b4:	df000d15 	stw	fp,52(sp)
  80a8b8:	df000d04 	addi	fp,sp,52
  80a8bc:	e13ff315 	stw	r4,-52(fp)
  80a8c0:	e17ff415 	stw	r5,-48(fp)
  80a8c4:	e1bff515 	stw	r6,-44(fp)
  80a8c8:	e1fff615 	stw	r7,-40(fp)
  /* Remove warning at optimisation level 03 by seting out to 0 */
  unsigned int in, out=0;
  80a8cc:	e03ff815 	stw	zero,-32(fp)
  unsigned int n;
  alt_irq_context context;

  const char * start = ptr;
  80a8d0:	e0bff417 	ldw	r2,-48(fp)
  80a8d4:	e0bffb15 	stw	r2,-20(fp)
  80a8d8:	e03ffc15 	stw	zero,-16(fp)

  /*
   * When running in a multi threaded environment, obtain the "write_lock"
   * semaphore. This ensures that writing to the device is thread-safe.
   */
  ALT_SEM_PEND (sp->write_lock, 0);

  do
  {
    /* Copy as much as we can into the transmit buffer */
    while (count > 0)
  80a8dc:	e0bff517 	ldw	r2,-44(fp)
  80a8e0:	10800050 	cmplti	r2,r2,1
  80a8e4:	10003a1e 	bne	r2,zero,80a9d0 <altera_avalon_jtag_uart_write+0x124>
    {
      /* We need a stable value of the out pointer to calculate the space available */
      in  = sp->tx_in;
  80a8e8:	e0bff317 	ldw	r2,-52(fp)
  80a8ec:	10800c17 	ldw	r2,48(r2)
  80a8f0:	e0bff715 	stw	r2,-36(fp)
      out = sp->tx_out;
  80a8f4:	e0bff317 	ldw	r2,-52(fp)
  80a8f8:	10800d17 	ldw	r2,52(r2)
  80a8fc:	e0bff815 	stw	r2,-32(fp)

      if (in < out)
  80a900:	e0fff717 	ldw	r3,-36(fp)
  80a904:	e0bff817 	ldw	r2,-32(fp)
  80a908:	1880062e 	bgeu	r3,r2,80a924 <altera_avalon_jtag_uart_write+0x78>
        n = out - 1 - in;
  80a90c:	e0fff817 	ldw	r3,-32(fp)
  80a910:	e0bff717 	ldw	r2,-36(fp)
  80a914:	1885c83a 	sub	r2,r3,r2
  80a918:	10bfffc4 	addi	r2,r2,-1
  80a91c:	e0bff915 	stw	r2,-28(fp)
  80a920:	00000c06 	br	80a954 <altera_avalon_jtag_uart_write+0xa8>
      else if (out > 0)
  80a924:	e0bff817 	ldw	r2,-32(fp)
  80a928:	1005003a 	cmpeq	r2,r2,zero
  80a92c:	1000051e 	bne	r2,zero,80a944 <altera_avalon_jtag_uart_write+0x98>
        n = ALTERA_AVALON_JTAG_UART_BUF_LEN - in;
  80a930:	00820004 	movi	r2,2048
  80a934:	e0fff717 	ldw	r3,-36(fp)
  80a938:	10c5c83a 	sub	r2,r2,r3
  80a93c:	e0bff915 	stw	r2,-28(fp)
  80a940:	00000406 	br	80a954 <altera_avalon_jtag_uart_write+0xa8>
      else
        n = ALTERA_AVALON_JTAG_UART_BUF_LEN - 1 - in;
  80a944:	0081ffc4 	movi	r2,2047
  80a948:	e0fff717 	ldw	r3,-36(fp)
  80a94c:	10c5c83a 	sub	r2,r2,r3
  80a950:	e0bff915 	stw	r2,-28(fp)

      if (n == 0)
  80a954:	e0bff917 	ldw	r2,-28(fp)
  80a958:	1004c03a 	cmpne	r2,r2,zero
  80a95c:	1000011e 	bne	r2,zero,80a964 <altera_avalon_jtag_uart_write+0xb8>
        break;
  80a960:	00001b06 	br	80a9d0 <altera_avalon_jtag_uart_write+0x124>

      if (n > count)
  80a964:	e0fff517 	ldw	r3,-44(fp)
  80a968:	e0bff917 	ldw	r2,-28(fp)
  80a96c:	1880022e 	bgeu	r3,r2,80a978 <altera_avalon_jtag_uart_write+0xcc>
        n = count;
  80a970:	e0bff517 	ldw	r2,-44(fp)
  80a974:	e0bff915 	stw	r2,-28(fp)

      memcpy(sp->tx_buf + in, ptr, n);
  80a978:	e0fff317 	ldw	r3,-52(fp)
  80a97c:	e0bff717 	ldw	r2,-36(fp)
  80a980:	1885883a 	add	r2,r3,r2
  80a984:	11020e04 	addi	r4,r2,2104
  80a988:	e17ff417 	ldw	r5,-48(fp)
  80a98c:	e1bff917 	ldw	r6,-28(fp)
  80a990:	08056f40 	call	8056f4 <memcpy>
      ptr   += n;
  80a994:	e0fff417 	ldw	r3,-48(fp)
  80a998:	e0bff917 	ldw	r2,-28(fp)
  80a99c:	1885883a 	add	r2,r3,r2
  80a9a0:	e0bff415 	stw	r2,-48(fp)
      count -= n;
  80a9a4:	e0fff517 	ldw	r3,-44(fp)
  80a9a8:	e0bff917 	ldw	r2,-28(fp)
  80a9ac:	1885c83a 	sub	r2,r3,r2
  80a9b0:	e0bff515 	stw	r2,-44(fp)

      sp->tx_in = (in + n) % ALTERA_AVALON_JTAG_UART_BUF_LEN;
  80a9b4:	e13ff317 	ldw	r4,-52(fp)
  80a9b8:	e0fff717 	ldw	r3,-36(fp)
  80a9bc:	e0bff917 	ldw	r2,-28(fp)
  80a9c0:	1885883a 	add	r2,r3,r2
  80a9c4:	1081ffcc 	andi	r2,r2,2047
  80a9c8:	20800c15 	stw	r2,48(r4)
  80a9cc:	003fc306 	br	80a8dc <altera_avalon_jtag_uart_write+0x30>
  80a9d0:	0005303a 	rdctl	r2,status
  80a9d4:	e0bffe15 	stw	r2,-8(fp)
  80a9d8:	e0fffe17 	ldw	r3,-8(fp)
  80a9dc:	00bfff84 	movi	r2,-2
  80a9e0:	1884703a 	and	r2,r3,r2
  80a9e4:	1001703a 	wrctl	status,r2
  80a9e8:	e0bffe17 	ldw	r2,-8(fp)
  80a9ec:	e0bffd15 	stw	r2,-12(fp)
  80a9f0:	e0bffd17 	ldw	r2,-12(fp)
  80a9f4:	e0bffa15 	stw	r2,-24(fp)
    }

    /*
     * If interrupts are disabled then we could transmit here, we only need 
     * to enable interrupts if there is no space left in the FIFO
     *
     * For now kick the interrupt routine every time to make it transmit 
     * the data 
     */
    context = alt_irq_disable_all();
    sp->irq_enable |= ALTERA_AVALON_JTAG_UART_CONTROL_WE_MSK;
  80a9f8:	e0fff317 	ldw	r3,-52(fp)
  80a9fc:	e0bff317 	ldw	r2,-52(fp)
  80aa00:	10800817 	ldw	r2,32(r2)
  80aa04:	10800094 	ori	r2,r2,2
  80aa08:	18800815 	stw	r2,32(r3)
    IOWR_ALTERA_AVALON_JTAG_UART_CONTROL(sp->base, sp->irq_enable);
  80aa0c:	e0bff317 	ldw	r2,-52(fp)
  80aa10:	10800017 	ldw	r2,0(r2)
  80aa14:	10800104 	addi	r2,r2,4
  80aa18:	1007883a 	mov	r3,r2
  80aa1c:	e0bff317 	ldw	r2,-52(fp)
  80aa20:	10800817 	ldw	r2,32(r2)
  80aa24:	18800035 	stwio	r2,0(r3)
  80aa28:	e0bffa17 	ldw	r2,-24(fp)
  80aa2c:	e0bffe15 	stw	r2,-8(fp)
  80aa30:	e0bffe17 	ldw	r2,-8(fp)
  80aa34:	1001703a 	wrctl	status,r2
    alt_irq_enable_all(context);

    /* 
     * If there is any data left then either return now or block until 
     * some has been sent 
     */
    /* consider: test whether there is anything there while doing this and delay for at most 2s. */
    if (count > 0)
  80aa38:	e0bff517 	ldw	r2,-44(fp)
  80aa3c:	10800050 	cmplti	r2,r2,1
  80aa40:	1000141e 	bne	r2,zero,80aa94 <altera_avalon_jtag_uart_write+0x1e8>
    {
      if (flags & O_NONBLOCK)
  80aa44:	e0bff617 	ldw	r2,-40(fp)
  80aa48:	1090000c 	andi	r2,r2,16384
  80aa4c:	1005003a 	cmpeq	r2,r2,zero
  80aa50:	1000011e 	bne	r2,zero,80aa58 <altera_avalon_jtag_uart_write+0x1ac>
        break;
  80aa54:	00001306 	br	80aaa4 <altera_avalon_jtag_uart_write+0x1f8>

#ifdef __ucosii__
      /* OS Present: Pend on a flag if the OS is running, otherwise spin */
      if(OSRunning == OS_TRUE) {
        /*
         * When running in a multi-threaded mode, we pend on the write event
         * flag set or the timeout flag in the isr. This avoids wasting CPU
         * cycles waiting in this thread, when we could be doing something
         * more profitable elsewhere.
         */
        ALT_FLAG_PEND (sp->events,
                       ALT_JTAG_UART_WRITE_RDY | ALT_JTAG_UART_TIMEOUT,
                       OS_FLAG_WAIT_SET_ANY + OS_FLAG_CONSUME,
                       0);
      }
      else {
        /*
         * OS not running: Wait for data to be removed from buffer.
         * Once the interrupt routine has removed some data then we
         * will be able to insert some more.
         */
        while (out == sp->tx_out && sp->host_inactive < sp->timeout)
          ;
      }
#else
      /*
       * No OS present: Always wait for data to be removed from buffer.  Once
       * the interrupt routine has removed some data then we will be able to
       * insert some more.
       */
      while (out == sp->tx_out && sp->host_inactive < sp->timeout)
  80aa58:	e0bff317 	ldw	r2,-52(fp)
  80aa5c:	10c00d17 	ldw	r3,52(r2)
  80aa60:	e0bff817 	ldw	r2,-32(fp)
  80aa64:	1880061e 	bne	r3,r2,80aa80 <altera_avalon_jtag_uart_write+0x1d4>
  80aa68:	e0bff317 	ldw	r2,-52(fp)
  80aa6c:	e0fff317 	ldw	r3,-52(fp)
  80aa70:	11000917 	ldw	r4,36(r2)
  80aa74:	18800117 	ldw	r2,4(r3)
  80aa78:	2080012e 	bgeu	r4,r2,80aa80 <altera_avalon_jtag_uart_write+0x1d4>
  80aa7c:	003ff606 	br	80aa58 <altera_avalon_jtag_uart_write+0x1ac>
        ;
#endif /* __ucosii__ */

      if (out == sp->tx_out)
  80aa80:	e0bff317 	ldw	r2,-52(fp)
  80aa84:	10c00d17 	ldw	r3,52(r2)
  80aa88:	e0bff817 	ldw	r2,-32(fp)
  80aa8c:	1880011e 	bne	r3,r2,80aa94 <altera_avalon_jtag_uart_write+0x1e8>
        break;
  80aa90:	00000406 	br	80aaa4 <altera_avalon_jtag_uart_write+0x1f8>
    }
  }
  80aa94:	e0bff517 	ldw	r2,-44(fp)
  80aa98:	10800050 	cmplti	r2,r2,1
  80aa9c:	1000011e 	bne	r2,zero,80aaa4 <altera_avalon_jtag_uart_write+0x1f8>
  80aaa0:	003f8e06 	br	80a8dc <altera_avalon_jtag_uart_write+0x30>
  80aaa4:	e03ffe15 	stw	zero,-8(fp)
  while (count > 0);

  /*
   * Now that access to the circular buffer is complete, release the write
   * semaphore so that other threads can access the buffer.
   */
  ALT_SEM_POST (sp->write_lock);

  if (ptr != start)
  80aaa8:	e0fff417 	ldw	r3,-48(fp)
  80aaac:	e0bffb17 	ldw	r2,-20(fp)
  80aab0:	18800526 	beq	r3,r2,80aac8 <altera_avalon_jtag_uart_write+0x21c>
    return ptr - start;
  80aab4:	e0bff417 	ldw	r2,-48(fp)
  80aab8:	e0fffb17 	ldw	r3,-20(fp)
  80aabc:	10c5c83a 	sub	r2,r2,r3
  80aac0:	e0bfff15 	stw	r2,-4(fp)
  80aac4:	00000906 	br	80aaec <altera_avalon_jtag_uart_write+0x240>
  else if (flags & O_NONBLOCK)
  80aac8:	e0bff617 	ldw	r2,-40(fp)
  80aacc:	1090000c 	andi	r2,r2,16384
  80aad0:	1005003a 	cmpeq	r2,r2,zero
  80aad4:	1000031e 	bne	r2,zero,80aae4 <altera_avalon_jtag_uart_write+0x238>
    return -EWOULDBLOCK;
  80aad8:	00bffd44 	movi	r2,-11
  80aadc:	e0bfff15 	stw	r2,-4(fp)
  80aae0:	00000206 	br	80aaec <altera_avalon_jtag_uart_write+0x240>
  else
    return -EIO; /* Host not connected */
  80aae4:	00bffec4 	movi	r2,-5
  80aae8:	e0bfff15 	stw	r2,-4(fp)
}
  80aaec:	e0bfff17 	ldw	r2,-4(fp)
  80aaf0:	dfc00e17 	ldw	ra,56(sp)
  80aaf4:	df000d17 	ldw	fp,52(sp)
  80aaf8:	dec00f04 	addi	sp,sp,60
  80aafc:	f800283a 	ret

0080ab00 <alt_up_audio_open_dev>:

///////////////////////////////////////////////////////////////////////////
// Direct functions
alt_up_audio_dev* alt_up_audio_open_dev(const char* name)
{
  80ab00:	defffc04 	addi	sp,sp,-16
  80ab04:	dfc00315 	stw	ra,12(sp)
  80ab08:	df000215 	stw	fp,8(sp)
  80ab0c:	df000204 	addi	fp,sp,8
  80ab10:	e13ffe15 	stw	r4,-8(fp)
  // find the device from the device list 
  // (see altera_hal/HAL/inc/priv/alt_file.h 
  // and altera_hal/HAL/src/alt_find_dev.c 
  // for details)
  alt_up_audio_dev *dev = (alt_up_audio_dev*)alt_find_dev(name, &alt_dev_list);
  80ab14:	e13ffe17 	ldw	r4,-8(fp)
  80ab18:	d1601204 	addi	r5,gp,-32696
  80ab1c:	080f5180 	call	80f518 <alt_find_dev>
  80ab20:	e0bfff15 	stw	r2,-4(fp)
  return dev;
  80ab24:	e0bfff17 	ldw	r2,-4(fp)
}
  80ab28:	dfc00317 	ldw	ra,12(sp)
  80ab2c:	df000217 	ldw	fp,8(sp)
  80ab30:	dec00404 	addi	sp,sp,16
  80ab34:	f800283a 	ret

0080ab38 <alt_up_audio_enable_read_interrupt>:

void alt_up_audio_enable_read_interrupt(alt_up_audio_dev *audio)
{
  80ab38:	defffd04 	addi	sp,sp,-12
  80ab3c:	df000215 	stw	fp,8(sp)
  80ab40:	df000204 	addi	fp,sp,8
  80ab44:	e13ffe15 	stw	r4,-8(fp)
	unsigned int ctrl_reg;
	ctrl_reg = IORD_ALT_UP_AUDIO_CONTROL(audio->base); 
  80ab48:	e0bffe17 	ldw	r2,-8(fp)
  80ab4c:	10800a17 	ldw	r2,40(r2)
  80ab50:	10800037 	ldwio	r2,0(r2)
  80ab54:	e0bfff15 	stw	r2,-4(fp)
	// set RE to 1 while maintaining other bits the same
	ctrl_reg |= ALT_UP_AUDIO_CONTROL_RE_MSK;
  80ab58:	e0bfff17 	ldw	r2,-4(fp)
  80ab5c:	10800054 	ori	r2,r2,1
  80ab60:	e0bfff15 	stw	r2,-4(fp)
	IOWR_ALT_UP_AUDIO_CONTROL(audio->base, ctrl_reg);
  80ab64:	e0bffe17 	ldw	r2,-8(fp)
  80ab68:	10c00a17 	ldw	r3,40(r2)
  80ab6c:	e0bfff17 	ldw	r2,-4(fp)
  80ab70:	18800035 	stwio	r2,0(r3)
}
  80ab74:	df000217 	ldw	fp,8(sp)
  80ab78:	dec00304 	addi	sp,sp,12
  80ab7c:	f800283a 	ret

0080ab80 <alt_up_audio_disable_read_interrupt>:

void alt_up_audio_disable_read_interrupt(alt_up_audio_dev *audio)
{
  80ab80:	defffd04 	addi	sp,sp,-12
  80ab84:	df000215 	stw	fp,8(sp)
  80ab88:	df000204 	addi	fp,sp,8
  80ab8c:	e13ffe15 	stw	r4,-8(fp)
	unsigned int ctrl_reg;
	ctrl_reg = IORD_ALT_UP_AUDIO_CONTROL(audio->base); 
  80ab90:	e0bffe17 	ldw	r2,-8(fp)
  80ab94:	10800a17 	ldw	r2,40(r2)
  80ab98:	10800037 	ldwio	r2,0(r2)
  80ab9c:	e0bfff15 	stw	r2,-4(fp)
	// set RE to 0 while maintaining other bits the same
	ctrl_reg &= ~ALT_UP_AUDIO_CONTROL_RE_MSK;
  80aba0:	e0ffff17 	ldw	r3,-4(fp)
  80aba4:	00bfff84 	movi	r2,-2
  80aba8:	1884703a 	and	r2,r3,r2
  80abac:	e0bfff15 	stw	r2,-4(fp)
	IOWR_ALT_UP_AUDIO_CONTROL(audio->base, ctrl_reg);
  80abb0:	e0bffe17 	ldw	r2,-8(fp)
  80abb4:	10c00a17 	ldw	r3,40(r2)
  80abb8:	e0bfff17 	ldw	r2,-4(fp)
  80abbc:	18800035 	stwio	r2,0(r3)
}
  80abc0:	df000217 	ldw	fp,8(sp)
  80abc4:	dec00304 	addi	sp,sp,12
  80abc8:	f800283a 	ret

0080abcc <alt_up_audio_enable_write_interrupt>:

void alt_up_audio_enable_write_interrupt(alt_up_audio_dev *audio)
{
  80abcc:	defffd04 	addi	sp,sp,-12
  80abd0:	df000215 	stw	fp,8(sp)
  80abd4:	df000204 	addi	fp,sp,8
  80abd8:	e13ffe15 	stw	r4,-8(fp)
	unsigned int ctrl_reg;
	ctrl_reg = IORD_ALT_UP_AUDIO_CONTROL(audio->base); 
  80abdc:	e0bffe17 	ldw	r2,-8(fp)
  80abe0:	10800a17 	ldw	r2,40(r2)
  80abe4:	10800037 	ldwio	r2,0(r2)
  80abe8:	e0bfff15 	stw	r2,-4(fp)
	// set WE to 1 while maintaining other bits the same
	ctrl_reg |= ALT_UP_AUDIO_CONTROL_WE_MSK;
  80abec:	e0bfff17 	ldw	r2,-4(fp)
  80abf0:	10800094 	ori	r2,r2,2
  80abf4:	e0bfff15 	stw	r2,-4(fp)
	IOWR_ALT_UP_AUDIO_CONTROL(audio->base, ctrl_reg);
  80abf8:	e0bffe17 	ldw	r2,-8(fp)
  80abfc:	10c00a17 	ldw	r3,40(r2)
  80ac00:	e0bfff17 	ldw	r2,-4(fp)
  80ac04:	18800035 	stwio	r2,0(r3)
}
  80ac08:	df000217 	ldw	fp,8(sp)
  80ac0c:	dec00304 	addi	sp,sp,12
  80ac10:	f800283a 	ret

0080ac14 <alt_up_audio_disable_write_interrupt>:

void alt_up_audio_disable_write_interrupt(alt_up_audio_dev *audio)
{
  80ac14:	defffd04 	addi	sp,sp,-12
  80ac18:	df000215 	stw	fp,8(sp)
  80ac1c:	df000204 	addi	fp,sp,8
  80ac20:	e13ffe15 	stw	r4,-8(fp)
	unsigned int ctrl_reg;
	ctrl_reg = IORD_ALT_UP_AUDIO_CONTROL(audio->base); 
  80ac24:	e0bffe17 	ldw	r2,-8(fp)
  80ac28:	10800a17 	ldw	r2,40(r2)
  80ac2c:	10800037 	ldwio	r2,0(r2)
  80ac30:	e0bfff15 	stw	r2,-4(fp)
	// set WE to 0 while maintaining other bits the same
	ctrl_reg &= ~ALT_UP_AUDIO_CONTROL_WE_MSK;
  80ac34:	e0ffff17 	ldw	r3,-4(fp)
  80ac38:	00bfff44 	movi	r2,-3
  80ac3c:	1884703a 	and	r2,r3,r2
  80ac40:	e0bfff15 	stw	r2,-4(fp)
	IOWR_ALT_UP_AUDIO_CONTROL(audio->base, ctrl_reg);
  80ac44:	e0bffe17 	ldw	r2,-8(fp)
  80ac48:	10c00a17 	ldw	r3,40(r2)
  80ac4c:	e0bfff17 	ldw	r2,-4(fp)
  80ac50:	18800035 	stwio	r2,0(r3)
}
  80ac54:	df000217 	ldw	fp,8(sp)
  80ac58:	dec00304 	addi	sp,sp,12
  80ac5c:	f800283a 	ret

0080ac60 <alt_up_audio_read_interrupt_pending>:

int alt_up_audio_read_interrupt_pending(alt_up_audio_dev *audio)
{
  80ac60:	defffd04 	addi	sp,sp,-12
  80ac64:	df000215 	stw	fp,8(sp)
  80ac68:	df000204 	addi	fp,sp,8
  80ac6c:	e13ffe15 	stw	r4,-8(fp)
	unsigned int ctrl_reg;
	ctrl_reg = IORD_ALT_UP_AUDIO_CONTROL(audio->base); 
  80ac70:	e0bffe17 	ldw	r2,-8(fp)
  80ac74:	10800a17 	ldw	r2,40(r2)
  80ac78:	10800037 	ldwio	r2,0(r2)
  80ac7c:	e0bfff15 	stw	r2,-4(fp)
	// return 1 if RI is set to 1
	return ( (ctrl_reg & ALT_UP_AUDIO_CONTROL_RI_MSK) ? 1 : 0 );
  80ac80:	e0bfff17 	ldw	r2,-4(fp)
  80ac84:	1004d23a 	srli	r2,r2,8
  80ac88:	1080004c 	andi	r2,r2,1
}
  80ac8c:	df000217 	ldw	fp,8(sp)
  80ac90:	dec00304 	addi	sp,sp,12
  80ac94:	f800283a 	ret

0080ac98 <alt_up_audio_write_interrupt_pending>:

int alt_up_audio_write_interrupt_pending(alt_up_audio_dev *audio)
{
  80ac98:	defffd04 	addi	sp,sp,-12
  80ac9c:	df000215 	stw	fp,8(sp)
  80aca0:	df000204 	addi	fp,sp,8
  80aca4:	e13ffe15 	stw	r4,-8(fp)
	unsigned int ctrl_reg;
	ctrl_reg = IORD_ALT_UP_AUDIO_CONTROL(audio->base); 
  80aca8:	e0bffe17 	ldw	r2,-8(fp)
  80acac:	10800a17 	ldw	r2,40(r2)
  80acb0:	10800037 	ldwio	r2,0(r2)
  80acb4:	e0bfff15 	stw	r2,-4(fp)
	// return the WI value
	return ( (ctrl_reg & ALT_UP_AUDIO_CONTROL_WI_MSK) ? 1 : 0 );
  80acb8:	e0bfff17 	ldw	r2,-4(fp)
  80acbc:	1004d27a 	srli	r2,r2,9
  80acc0:	1080004c 	andi	r2,r2,1
}
  80acc4:	df000217 	ldw	fp,8(sp)
  80acc8:	dec00304 	addi	sp,sp,12
  80accc:	f800283a 	ret

0080acd0 <alt_up_audio_reset_audio_core>:

void alt_up_audio_reset_audio_core(alt_up_audio_dev *audio)
{
  80acd0:	defffd04 	addi	sp,sp,-12
  80acd4:	df000215 	stw	fp,8(sp)
  80acd8:	df000204 	addi	fp,sp,8
  80acdc:	e13ffe15 	stw	r4,-8(fp)
	unsigned int ctrl_reg;
	ctrl_reg = IORD_ALT_UP_AUDIO_CONTROL(audio->base); 
  80ace0:	e0bffe17 	ldw	r2,-8(fp)
  80ace4:	10800a17 	ldw	r2,40(r2)
  80ace8:	10800037 	ldwio	r2,0(r2)
  80acec:	e0bfff15 	stw	r2,-4(fp)
	// set CR and CW to 1 while maintaining other bits the same
	ctrl_reg |= ALT_UP_AUDIO_CONTROL_CR_MSK;
  80acf0:	e0bfff17 	ldw	r2,-4(fp)
  80acf4:	10800114 	ori	r2,r2,4
  80acf8:	e0bfff15 	stw	r2,-4(fp)
	ctrl_reg |= ALT_UP_AUDIO_CONTROL_CW_MSK;
  80acfc:	e0bfff17 	ldw	r2,-4(fp)
  80ad00:	10800214 	ori	r2,r2,8
  80ad04:	e0bfff15 	stw	r2,-4(fp)
	IOWR_ALT_UP_AUDIO_CONTROL(audio->base, ctrl_reg);
  80ad08:	e0bffe17 	ldw	r2,-8(fp)
  80ad0c:	10c00a17 	ldw	r3,40(r2)
  80ad10:	e0bfff17 	ldw	r2,-4(fp)
  80ad14:	18800035 	stwio	r2,0(r3)
	// set CR and CW to 0 while maintaining other bits the same
	ctrl_reg &= ~ALT_UP_AUDIO_CONTROL_CR_MSK;
  80ad18:	e0ffff17 	ldw	r3,-4(fp)
  80ad1c:	00bffec4 	movi	r2,-5
  80ad20:	1884703a 	and	r2,r3,r2
  80ad24:	e0bfff15 	stw	r2,-4(fp)
	ctrl_reg &= ~ALT_UP_AUDIO_CONTROL_CW_MSK;
  80ad28:	e0ffff17 	ldw	r3,-4(fp)
  80ad2c:	00bffdc4 	movi	r2,-9
  80ad30:	1884703a 	and	r2,r3,r2
  80ad34:	e0bfff15 	stw	r2,-4(fp)
	IOWR_ALT_UP_AUDIO_CONTROL(audio->base, ctrl_reg);
  80ad38:	e0bffe17 	ldw	r2,-8(fp)
  80ad3c:	10c00a17 	ldw	r3,40(r2)
  80ad40:	e0bfff17 	ldw	r2,-4(fp)
  80ad44:	18800035 	stwio	r2,0(r3)
}
  80ad48:	df000217 	ldw	fp,8(sp)
  80ad4c:	dec00304 	addi	sp,sp,12
  80ad50:	f800283a 	ret

0080ad54 <alt_up_audio_read_fifo_avail>:

/* Provides number of words of data available in the incoming FIFO: RALC or RARC */
unsigned int alt_up_audio_read_fifo_avail(alt_up_audio_dev *audio, int channel)
{
  80ad54:	defffb04 	addi	sp,sp,-20
  80ad58:	df000415 	stw	fp,16(sp)
  80ad5c:	df000404 	addi	fp,sp,16
  80ad60:	e13ffc15 	stw	r4,-16(fp)
  80ad64:	e17ffd15 	stw	r5,-12(fp)
	unsigned int fifospace;
	// read the whole fifospace register
	fifospace = IORD_ALT_UP_AUDIO_FIFOSPACE(audio->base);
  80ad68:	e0bffc17 	ldw	r2,-16(fp)
  80ad6c:	10800a17 	ldw	r2,40(r2)
  80ad70:	10800104 	addi	r2,r2,4
  80ad74:	10800037 	ldwio	r2,0(r2)
  80ad78:	e0bffe15 	stw	r2,-8(fp)
	// extract the part for proper Channel Read Space
	fifospace = (channel == ALT_UP_AUDIO_LEFT) ? 
  80ad7c:	e0bffd17 	ldw	r2,-12(fp)
  80ad80:	1004c03a 	cmpne	r2,r2,zero
  80ad84:	1000071e 	bne	r2,zero,80ada4 <alt_up_audio_read_fifo_avail+0x50>
  80ad88:	e0bffe17 	ldw	r2,-8(fp)
  80ad8c:	10bfc00c 	andi	r2,r2,65280
  80ad90:	e0bfff15 	stw	r2,-4(fp)
  80ad94:	e0bfff17 	ldw	r2,-4(fp)
  80ad98:	1004d23a 	srli	r2,r2,8
  80ad9c:	e0bfff15 	stw	r2,-4(fp)
  80ada0:	00000306 	br	80adb0 <alt_up_audio_read_fifo_avail+0x5c>
  80ada4:	e0bffe17 	ldw	r2,-8(fp)
  80ada8:	10803fcc 	andi	r2,r2,255
  80adac:	e0bfff15 	stw	r2,-4(fp)
  80adb0:	e0bfff17 	ldw	r2,-4(fp)
  80adb4:	e0bffe15 	stw	r2,-8(fp)
		(fifospace & ALT_UP_AUDIO_FIFOSPACE_RALC_MSK) >> ALT_UP_AUDIO_FIFOSPACE_RALC_OFST :
		(fifospace & ALT_UP_AUDIO_FIFOSPACE_RARC_MSK) >> ALT_UP_AUDIO_FIFOSPACE_RARC_OFST;
	return (fifospace);
  80adb8:	e0bffe17 	ldw	r2,-8(fp)
}
  80adbc:	df000417 	ldw	fp,16(sp)
  80adc0:	dec00504 	addi	sp,sp,20
  80adc4:	f800283a 	ret

0080adc8 <alt_up_audio_record_r>:

/* Checks if the read FIFO for the right channel has at least BUF_THRESHOLD data words 
 * available. If it doesn't, then just returns 0. If it does, then data is read from the
 * FIFO up to a maximum of len words, and stored into buf.
 */
unsigned int alt_up_audio_record_r(alt_up_audio_dev *audio, unsigned int *buf, int len)
{
  80adc8:	defff904 	addi	sp,sp,-28
  80adcc:	dfc00615 	stw	ra,24(sp)
  80add0:	df000515 	stw	fp,20(sp)
  80add4:	df000504 	addi	fp,sp,20
  80add8:	e13ffb15 	stw	r4,-20(fp)
  80addc:	e17ffc15 	stw	r5,-16(fp)
  80ade0:	e1bffd15 	stw	r6,-12(fp)
	unsigned int data_words = alt_up_audio_read_fifo_avail (audio, ALT_UP_AUDIO_RIGHT);
  80ade4:	e13ffb17 	ldw	r4,-20(fp)
  80ade8:	01400044 	movi	r5,1
  80adec:	080ad540 	call	80ad54 <alt_up_audio_read_fifo_avail>
  80adf0:	e0bffe15 	stw	r2,-8(fp)
	if (data_words <= BUF_THRESHOLD)
  80adf4:	e0bffe17 	ldw	r2,-8(fp)
  80adf8:	10801868 	cmpgeui	r2,r2,97
  80adfc:	1000021e 	bne	r2,zero,80ae08 <alt_up_audio_record_r+0x40>
		return 0;
  80ae00:	e03fff15 	stw	zero,-4(fp)
  80ae04:	00000606 	br	80ae20 <alt_up_audio_record_r+0x58>
	else
		return (alt_up_audio_read_fifo(audio, buf, len, ALT_UP_AUDIO_RIGHT));
  80ae08:	e13ffb17 	ldw	r4,-20(fp)
  80ae0c:	e17ffc17 	ldw	r5,-16(fp)
  80ae10:	e1bffd17 	ldw	r6,-12(fp)
  80ae14:	01c00044 	movi	r7,1
  80ae18:	080aff80 	call	80aff8 <alt_up_audio_read_fifo>
  80ae1c:	e0bfff15 	stw	r2,-4(fp)
}
  80ae20:	e0bfff17 	ldw	r2,-4(fp)
  80ae24:	dfc00617 	ldw	ra,24(sp)
  80ae28:	df000517 	ldw	fp,20(sp)
  80ae2c:	dec00704 	addi	sp,sp,28
  80ae30:	f800283a 	ret

0080ae34 <alt_up_audio_record_l>:

/* Checks if the read FIFO for the left channel has at least BUF_THRESHOLD data words 
 * available. If it doesn't, then just returns 0. If it does, then data is read from the
 * FIFO up to a maximum of len words, and stored into buf.
 */
unsigned int alt_up_audio_record_l(alt_up_audio_dev *audio, unsigned int *buf, int len)
{
  80ae34:	defff904 	addi	sp,sp,-28
  80ae38:	dfc00615 	stw	ra,24(sp)
  80ae3c:	df000515 	stw	fp,20(sp)
  80ae40:	df000504 	addi	fp,sp,20
  80ae44:	e13ffb15 	stw	r4,-20(fp)
  80ae48:	e17ffc15 	stw	r5,-16(fp)
  80ae4c:	e1bffd15 	stw	r6,-12(fp)
	unsigned int data_words = alt_up_audio_read_fifo_avail (audio, ALT_UP_AUDIO_LEFT);
  80ae50:	e13ffb17 	ldw	r4,-20(fp)
  80ae54:	000b883a 	mov	r5,zero
  80ae58:	080ad540 	call	80ad54 <alt_up_audio_read_fifo_avail>
  80ae5c:	e0bffe15 	stw	r2,-8(fp)
	if (data_words <= BUF_THRESHOLD)
  80ae60:	e0bffe17 	ldw	r2,-8(fp)
  80ae64:	10801868 	cmpgeui	r2,r2,97
  80ae68:	1000021e 	bne	r2,zero,80ae74 <alt_up_audio_record_l+0x40>
		return 0;
  80ae6c:	e03fff15 	stw	zero,-4(fp)
  80ae70:	00000606 	br	80ae8c <alt_up_audio_record_l+0x58>
	else
		return (alt_up_audio_read_fifo(audio, buf, len, ALT_UP_AUDIO_LEFT));
  80ae74:	e13ffb17 	ldw	r4,-20(fp)
  80ae78:	e17ffc17 	ldw	r5,-16(fp)
  80ae7c:	e1bffd17 	ldw	r6,-12(fp)
  80ae80:	000f883a 	mov	r7,zero
  80ae84:	080aff80 	call	80aff8 <alt_up_audio_read_fifo>
  80ae88:	e0bfff15 	stw	r2,-4(fp)
}
  80ae8c:	e0bfff17 	ldw	r2,-4(fp)
  80ae90:	dfc00617 	ldw	ra,24(sp)
  80ae94:	df000517 	ldw	fp,20(sp)
  80ae98:	dec00704 	addi	sp,sp,28
  80ae9c:	f800283a 	ret

0080aea0 <alt_up_audio_write_fifo_space>:

/* Provides the amount of empty space available in the outgoing FIFO: WSLC or WSRC */
unsigned int alt_up_audio_write_fifo_space(alt_up_audio_dev *audio, int channel)
{
  80aea0:	defffb04 	addi	sp,sp,-20
  80aea4:	df000415 	stw	fp,16(sp)
  80aea8:	df000404 	addi	fp,sp,16
  80aeac:	e13ffc15 	stw	r4,-16(fp)
  80aeb0:	e17ffd15 	stw	r5,-12(fp)
	unsigned int fifospace;
	// read the whole fifospace register
	fifospace = IORD_ALT_UP_AUDIO_FIFOSPACE(audio->base);
  80aeb4:	e0bffc17 	ldw	r2,-16(fp)
  80aeb8:	10800a17 	ldw	r2,40(r2)
  80aebc:	10800104 	addi	r2,r2,4
  80aec0:	10800037 	ldwio	r2,0(r2)
  80aec4:	e0bffe15 	stw	r2,-8(fp)
	// extract the part for proper Channel Read Space
	fifospace = (channel == ALT_UP_AUDIO_LEFT) ? 
  80aec8:	e0bffd17 	ldw	r2,-12(fp)
  80aecc:	1004c03a 	cmpne	r2,r2,zero
  80aed0:	1000071e 	bne	r2,zero,80aef0 <alt_up_audio_write_fifo_space+0x50>
  80aed4:	e0bffe17 	ldw	r2,-8(fp)
  80aed8:	10bfc02c 	andhi	r2,r2,65280
  80aedc:	e0bfff15 	stw	r2,-4(fp)
  80aee0:	e0bfff17 	ldw	r2,-4(fp)
  80aee4:	1004d63a 	srli	r2,r2,24
  80aee8:	e0bfff15 	stw	r2,-4(fp)
  80aeec:	00000606 	br	80af08 <alt_up_audio_write_fifo_space+0x68>
  80aef0:	e0bffe17 	ldw	r2,-8(fp)
  80aef4:	10803fec 	andhi	r2,r2,255
  80aef8:	e0bfff15 	stw	r2,-4(fp)
  80aefc:	e0bfff17 	ldw	r2,-4(fp)
  80af00:	1004d43a 	srli	r2,r2,16
  80af04:	e0bfff15 	stw	r2,-4(fp)
  80af08:	e0bfff17 	ldw	r2,-4(fp)
  80af0c:	e0bffe15 	stw	r2,-8(fp)
		(fifospace & ALT_UP_AUDIO_FIFOSPACE_WSLC_MSK) >> ALT_UP_AUDIO_FIFOSPACE_WSLC_OFST :
		(fifospace & ALT_UP_AUDIO_FIFOSPACE_WSRC_MSK) >> ALT_UP_AUDIO_FIFOSPACE_WSRC_OFST;
	return (fifospace);
  80af10:	e0bffe17 	ldw	r2,-8(fp)
}
  80af14:	df000417 	ldw	fp,16(sp)
  80af18:	dec00504 	addi	sp,sp,20
  80af1c:	f800283a 	ret

0080af20 <alt_up_audio_play_r>:

/* Checks if the write FIFO for the right channel has at least BUF_THRESHOLD space available.
 * If it doesn't, then just returns 0. If it does, then data from buf is written into the 
 * FIFO, up to a maximum of len words.
 */
unsigned int alt_up_audio_play_r(alt_up_audio_dev *audio, unsigned int *buf, int len)
{
  80af20:	defff904 	addi	sp,sp,-28
  80af24:	dfc00615 	stw	ra,24(sp)
  80af28:	df000515 	stw	fp,20(sp)
  80af2c:	df000504 	addi	fp,sp,20
  80af30:	e13ffb15 	stw	r4,-20(fp)
  80af34:	e17ffc15 	stw	r5,-16(fp)
  80af38:	e1bffd15 	stw	r6,-12(fp)
	unsigned int space = alt_up_audio_write_fifo_space (audio, ALT_UP_AUDIO_RIGHT);
  80af3c:	e13ffb17 	ldw	r4,-20(fp)
  80af40:	01400044 	movi	r5,1
  80af44:	080aea00 	call	80aea0 <alt_up_audio_write_fifo_space>
  80af48:	e0bffe15 	stw	r2,-8(fp)
	if (space <= BUF_THRESHOLD)
  80af4c:	e0bffe17 	ldw	r2,-8(fp)
  80af50:	10801868 	cmpgeui	r2,r2,97
  80af54:	1000021e 	bne	r2,zero,80af60 <alt_up_audio_play_r+0x40>
		return 0;
  80af58:	e03fff15 	stw	zero,-4(fp)
  80af5c:	00000606 	br	80af78 <alt_up_audio_play_r+0x58>
	else
		return (alt_up_audio_write_fifo(audio, buf, len, ALT_UP_AUDIO_RIGHT));
  80af60:	e13ffb17 	ldw	r4,-20(fp)
  80af64:	e17ffc17 	ldw	r5,-16(fp)
  80af68:	e1bffd17 	ldw	r6,-12(fp)
  80af6c:	01c00044 	movi	r7,1
  80af70:	080b0f80 	call	80b0f8 <alt_up_audio_write_fifo>
  80af74:	e0bfff15 	stw	r2,-4(fp)
}
  80af78:	e0bfff17 	ldw	r2,-4(fp)
  80af7c:	dfc00617 	ldw	ra,24(sp)
  80af80:	df000517 	ldw	fp,20(sp)
  80af84:	dec00704 	addi	sp,sp,28
  80af88:	f800283a 	ret

0080af8c <alt_up_audio_play_l>:

/* Checks if the write FIFO for the left channel has at least BUF_THRESHOLD space available.
 * If it doesn't, then just returns 0. If it does, then data from buf is written into the 
 * FIFO, up to a maximum of len words.
 */
unsigned int alt_up_audio_play_l(alt_up_audio_dev *audio, unsigned int *buf, int len)
{
  80af8c:	defff904 	addi	sp,sp,-28
  80af90:	dfc00615 	stw	ra,24(sp)
  80af94:	df000515 	stw	fp,20(sp)
  80af98:	df000504 	addi	fp,sp,20
  80af9c:	e13ffb15 	stw	r4,-20(fp)
  80afa0:	e17ffc15 	stw	r5,-16(fp)
  80afa4:	e1bffd15 	stw	r6,-12(fp)
	unsigned int space = alt_up_audio_write_fifo_space (audio, ALT_UP_AUDIO_LEFT);
  80afa8:	e13ffb17 	ldw	r4,-20(fp)
  80afac:	000b883a 	mov	r5,zero
  80afb0:	080aea00 	call	80aea0 <alt_up_audio_write_fifo_space>
  80afb4:	e0bffe15 	stw	r2,-8(fp)
	if (space <= BUF_THRESHOLD)
  80afb8:	e0bffe17 	ldw	r2,-8(fp)
  80afbc:	10801868 	cmpgeui	r2,r2,97
  80afc0:	1000021e 	bne	r2,zero,80afcc <alt_up_audio_play_l+0x40>
		return 0;
  80afc4:	e03fff15 	stw	zero,-4(fp)
  80afc8:	00000606 	br	80afe4 <alt_up_audio_play_l+0x58>
	else
		return (alt_up_audio_write_fifo(audio, buf, len, ALT_UP_AUDIO_LEFT));
  80afcc:	e13ffb17 	ldw	r4,-20(fp)
  80afd0:	e17ffc17 	ldw	r5,-16(fp)
  80afd4:	e1bffd17 	ldw	r6,-12(fp)
  80afd8:	000f883a 	mov	r7,zero
  80afdc:	080b0f80 	call	80b0f8 <alt_up_audio_write_fifo>
  80afe0:	e0bfff15 	stw	r2,-4(fp)
}
  80afe4:	e0bfff17 	ldw	r2,-4(fp)
  80afe8:	dfc00617 	ldw	ra,24(sp)
  80afec:	df000517 	ldw	fp,20(sp)
  80aff0:	dec00704 	addi	sp,sp,28
  80aff4:	f800283a 	ret

0080aff8 <alt_up_audio_read_fifo>:

int alt_up_audio_read_fifo(alt_up_audio_dev *audio, unsigned int *buf, int len, int channel)
{
  80aff8:	defff604 	addi	sp,sp,-40
  80affc:	df000915 	stw	fp,36(sp)
  80b000:	df000904 	addi	fp,sp,36
  80b004:	e13ff715 	stw	r4,-36(fp)
  80b008:	e17ff815 	stw	r5,-32(fp)
  80b00c:	e1bff915 	stw	r6,-28(fp)
  80b010:	e1fffa15 	stw	r7,-24(fp)
	unsigned int fifospace;
	int count = 0;
  80b014:	e03ffc15 	stw	zero,-16(fp)
	while ( count < len ) 
  80b018:	e0fffc17 	ldw	r3,-16(fp)
  80b01c:	e0bff917 	ldw	r2,-28(fp)
  80b020:	1880310e 	bge	r3,r2,80b0e8 <alt_up_audio_read_fifo+0xf0>
	{
		// read the whole fifospace register
		fifospace = IORD_ALT_UP_AUDIO_FIFOSPACE(audio->base);
  80b024:	e0bff717 	ldw	r2,-36(fp)
  80b028:	10800a17 	ldw	r2,40(r2)
  80b02c:	10800104 	addi	r2,r2,4
  80b030:	10800037 	ldwio	r2,0(r2)
  80b034:	e0bffb15 	stw	r2,-20(fp)
		// extract the part for proper Channel Read Space
		fifospace = (channel == ALT_UP_AUDIO_LEFT) ? 
  80b038:	e0bffa17 	ldw	r2,-24(fp)
  80b03c:	1004c03a 	cmpne	r2,r2,zero
  80b040:	1000071e 	bne	r2,zero,80b060 <alt_up_audio_read_fifo+0x68>
  80b044:	e0bffb17 	ldw	r2,-20(fp)
  80b048:	10bfc00c 	andi	r2,r2,65280
  80b04c:	e0bffd15 	stw	r2,-12(fp)
  80b050:	e0bffd17 	ldw	r2,-12(fp)
  80b054:	1004d23a 	srli	r2,r2,8
  80b058:	e0bffd15 	stw	r2,-12(fp)
  80b05c:	00000306 	br	80b06c <alt_up_audio_read_fifo+0x74>
  80b060:	e0bffb17 	ldw	r2,-20(fp)
  80b064:	10803fcc 	andi	r2,r2,255
  80b068:	e0bffd15 	stw	r2,-12(fp)
  80b06c:	e0fffd17 	ldw	r3,-12(fp)
  80b070:	e0fffb15 	stw	r3,-20(fp)
			(fifospace & ALT_UP_AUDIO_FIFOSPACE_RALC_MSK) >> ALT_UP_AUDIO_FIFOSPACE_RALC_OFST 
			:
			(fifospace & ALT_UP_AUDIO_FIFOSPACE_RARC_MSK) >> ALT_UP_AUDIO_FIFOSPACE_RARC_OFST;
		if (fifospace > 0) 
  80b074:	e0bffb17 	ldw	r2,-20(fp)
  80b078:	1005003a 	cmpeq	r2,r2,zero
  80b07c:	10001a1e 	bne	r2,zero,80b0e8 <alt_up_audio_read_fifo+0xf0>
		{
			buf[count] = (channel == ALT_UP_AUDIO_LEFT) ? 
  80b080:	e0bffc17 	ldw	r2,-16(fp)
  80b084:	100690ba 	slli	r3,r2,2
  80b088:	e0bff817 	ldw	r2,-32(fp)
  80b08c:	1887883a 	add	r3,r3,r2
  80b090:	e0fffe15 	stw	r3,-8(fp)
  80b094:	e0bffa17 	ldw	r2,-24(fp)
  80b098:	1004c03a 	cmpne	r2,r2,zero
  80b09c:	1000061e 	bne	r2,zero,80b0b8 <alt_up_audio_read_fifo+0xc0>
  80b0a0:	e0bff717 	ldw	r2,-36(fp)
  80b0a4:	10800a17 	ldw	r2,40(r2)
  80b0a8:	10800204 	addi	r2,r2,8
  80b0ac:	10800037 	ldwio	r2,0(r2)
  80b0b0:	e0bfff15 	stw	r2,-4(fp)
  80b0b4:	00000506 	br	80b0cc <alt_up_audio_read_fifo+0xd4>
  80b0b8:	e0bff717 	ldw	r2,-36(fp)
  80b0bc:	10800a17 	ldw	r2,40(r2)
  80b0c0:	10800304 	addi	r2,r2,12
  80b0c4:	10800037 	ldwio	r2,0(r2)
  80b0c8:	e0bfff15 	stw	r2,-4(fp)
  80b0cc:	e0bfff17 	ldw	r2,-4(fp)
  80b0d0:	e0fffe17 	ldw	r3,-8(fp)
  80b0d4:	18800015 	stw	r2,0(r3)
				IORD_ALT_UP_AUDIO_LEFTDATA(audio->base) :
				IORD_ALT_UP_AUDIO_RIGHTDATA(audio->base);
			count ++;
  80b0d8:	e0bffc17 	ldw	r2,-16(fp)
  80b0dc:	10800044 	addi	r2,r2,1
  80b0e0:	e0bffc15 	stw	r2,-16(fp)
  80b0e4:	003fcc06 	br	80b018 <alt_up_audio_read_fifo+0x20>
		}
		else
		{
			// no more data to read
			break;
		}
	}
	return count;
  80b0e8:	e0bffc17 	ldw	r2,-16(fp)
}
  80b0ec:	df000917 	ldw	fp,36(sp)
  80b0f0:	dec00a04 	addi	sp,sp,40
  80b0f4:	f800283a 	ret

0080b0f8 <alt_up_audio_write_fifo>:

int alt_up_audio_write_fifo(alt_up_audio_dev *audio, unsigned int *buf, int len, int channel)
{
  80b0f8:	defff804 	addi	sp,sp,-32
  80b0fc:	df000715 	stw	fp,28(sp)
  80b100:	df000704 	addi	fp,sp,28
  80b104:	e13ff915 	stw	r4,-28(fp)
  80b108:	e17ffa15 	stw	r5,-24(fp)
  80b10c:	e1bffb15 	stw	r6,-20(fp)
  80b110:	e1fffc15 	stw	r7,-16(fp)
	unsigned int fifospace;
	int count = 0;
  80b114:	e03ffe15 	stw	zero,-8(fp)
	while ( count < len ) 
  80b118:	e0fffe17 	ldw	r3,-8(fp)
  80b11c:	e0bffb17 	ldw	r2,-20(fp)
  80b120:	18803b0e 	bge	r3,r2,80b210 <alt_up_audio_write_fifo+0x118>
	{
		// read the whole fifospace register
		fifospace = IORD_ALT_UP_AUDIO_FIFOSPACE(audio->base);
  80b124:	e0bff917 	ldw	r2,-28(fp)
  80b128:	10800a17 	ldw	r2,40(r2)
  80b12c:	10800104 	addi	r2,r2,4
  80b130:	10800037 	ldwio	r2,0(r2)
  80b134:	e0bffd15 	stw	r2,-12(fp)
		// extract the part for Left Channel Write Space 
		fifospace = (channel == ALT_UP_AUDIO_LEFT) ? 
  80b138:	e0bffc17 	ldw	r2,-16(fp)
  80b13c:	1004c03a 	cmpne	r2,r2,zero
  80b140:	1000071e 	bne	r2,zero,80b160 <alt_up_audio_write_fifo+0x68>
  80b144:	e0bffd17 	ldw	r2,-12(fp)
  80b148:	10bfc02c 	andhi	r2,r2,65280
  80b14c:	e0bfff15 	stw	r2,-4(fp)
  80b150:	e0bfff17 	ldw	r2,-4(fp)
  80b154:	1004d63a 	srli	r2,r2,24
  80b158:	e0bfff15 	stw	r2,-4(fp)
  80b15c:	00000606 	br	80b178 <alt_up_audio_write_fifo+0x80>
  80b160:	e0bffd17 	ldw	r2,-12(fp)
  80b164:	10803fec 	andhi	r2,r2,255
  80b168:	e0bfff15 	stw	r2,-4(fp)
  80b16c:	e0bfff17 	ldw	r2,-4(fp)
  80b170:	1004d43a 	srli	r2,r2,16
  80b174:	e0bfff15 	stw	r2,-4(fp)
  80b178:	e0bfff17 	ldw	r2,-4(fp)
  80b17c:	e0bffd15 	stw	r2,-12(fp)
			(fifospace & ALT_UP_AUDIO_FIFOSPACE_WSLC_MSK) >> ALT_UP_AUDIO_FIFOSPACE_WSLC_OFST :
			(fifospace & ALT_UP_AUDIO_FIFOSPACE_WSRC_MSK) >> ALT_UP_AUDIO_FIFOSPACE_WSRC_OFST;
		if (fifospace > 0) 
  80b180:	e0bffd17 	ldw	r2,-12(fp)
  80b184:	1005003a 	cmpeq	r2,r2,zero
  80b188:	1000211e 	bne	r2,zero,80b210 <alt_up_audio_write_fifo+0x118>
		{
			if (channel == ALT_UP_AUDIO_LEFT) 
  80b18c:	e0bffc17 	ldw	r2,-16(fp)
  80b190:	1004c03a 	cmpne	r2,r2,zero
  80b194:	10000f1e 	bne	r2,zero,80b1d4 <alt_up_audio_write_fifo+0xdc>
				IOWR_ALT_UP_AUDIO_LEFTDATA(audio->base, buf[count++]);
  80b198:	e0bff917 	ldw	r2,-28(fp)
  80b19c:	10800a17 	ldw	r2,40(r2)
  80b1a0:	10800204 	addi	r2,r2,8
  80b1a4:	100b883a 	mov	r5,r2
  80b1a8:	e1bffe04 	addi	r6,fp,-8
  80b1ac:	30c00017 	ldw	r3,0(r6)
  80b1b0:	1805883a 	mov	r2,r3
  80b1b4:	100890ba 	slli	r4,r2,2
  80b1b8:	e0bffa17 	ldw	r2,-24(fp)
  80b1bc:	2085883a 	add	r2,r4,r2
  80b1c0:	10800017 	ldw	r2,0(r2)
  80b1c4:	28800035 	stwio	r2,0(r5)
  80b1c8:	18c00044 	addi	r3,r3,1
  80b1cc:	30c00015 	stw	r3,0(r6)
  80b1d0:	003fd106 	br	80b118 <alt_up_audio_write_fifo+0x20>
			else
				IOWR_ALT_UP_AUDIO_RIGHTDATA(audio->base, buf[count++]);
  80b1d4:	e0bff917 	ldw	r2,-28(fp)
  80b1d8:	10800a17 	ldw	r2,40(r2)
  80b1dc:	10800304 	addi	r2,r2,12
  80b1e0:	100b883a 	mov	r5,r2
  80b1e4:	e1bffe04 	addi	r6,fp,-8
  80b1e8:	30c00017 	ldw	r3,0(r6)
  80b1ec:	1805883a 	mov	r2,r3
  80b1f0:	100890ba 	slli	r4,r2,2
  80b1f4:	e0bffa17 	ldw	r2,-24(fp)
  80b1f8:	2085883a 	add	r2,r4,r2
  80b1fc:	10800017 	ldw	r2,0(r2)
  80b200:	28800035 	stwio	r2,0(r5)
  80b204:	18c00044 	addi	r3,r3,1
  80b208:	30c00015 	stw	r3,0(r6)
  80b20c:	003fc206 	br	80b118 <alt_up_audio_write_fifo+0x20>
		}
		else
		{
			// no more space to write
			break;
		}
	}
	return count;
  80b210:	e0bffe17 	ldw	r2,-8(fp)
}
  80b214:	df000717 	ldw	fp,28(sp)
  80b218:	dec00804 	addi	sp,sp,32
  80b21c:	f800283a 	ret

0080b220 <alt_up_audio_read_fifo_head>:

unsigned int alt_up_audio_read_fifo_head(alt_up_audio_dev *audio, int channel)
{
  80b220:	defffc04 	addi	sp,sp,-16
  80b224:	df000315 	stw	fp,12(sp)
  80b228:	df000304 	addi	fp,sp,12
  80b22c:	e13ffd15 	stw	r4,-12(fp)
  80b230:	e17ffe15 	stw	r5,-8(fp)
	return ( (channel == ALT_UP_AUDIO_LEFT) ?  IORD_ALT_UP_AUDIO_LEFTDATA(audio->base) :
  80b234:	e0bffe17 	ldw	r2,-8(fp)
  80b238:	1004c03a 	cmpne	r2,r2,zero
  80b23c:	1000061e 	bne	r2,zero,80b258 <alt_up_audio_read_fifo_head+0x38>
  80b240:	e0bffd17 	ldw	r2,-12(fp)
  80b244:	10800a17 	ldw	r2,40(r2)
  80b248:	10800204 	addi	r2,r2,8
  80b24c:	10800037 	ldwio	r2,0(r2)
  80b250:	e0bfff15 	stw	r2,-4(fp)
  80b254:	00000506 	br	80b26c <alt_up_audio_read_fifo_head+0x4c>
  80b258:	e0bffd17 	ldw	r2,-12(fp)
  80b25c:	10800a17 	ldw	r2,40(r2)
  80b260:	10800304 	addi	r2,r2,12
  80b264:	10800037 	ldwio	r2,0(r2)
  80b268:	e0bfff15 	stw	r2,-4(fp)
  80b26c:	e0bfff17 	ldw	r2,-4(fp)
				IORD_ALT_UP_AUDIO_RIGHTDATA(audio->base) );
}
  80b270:	df000317 	ldw	fp,12(sp)
  80b274:	dec00404 	addi	sp,sp,16
  80b278:	f800283a 	ret

0080b27c <alt_up_audio_write_fifo_head>:

void alt_up_audio_write_fifo_head(alt_up_audio_dev *audio, unsigned int data, int channel)
{
  80b27c:	defffc04 	addi	sp,sp,-16
  80b280:	df000315 	stw	fp,12(sp)
  80b284:	df000304 	addi	fp,sp,12
  80b288:	e13ffd15 	stw	r4,-12(fp)
  80b28c:	e17ffe15 	stw	r5,-8(fp)
  80b290:	e1bfff15 	stw	r6,-4(fp)
	if (channel == ALT_UP_AUDIO_LEFT) 
  80b294:	e0bfff17 	ldw	r2,-4(fp)
  80b298:	1004c03a 	cmpne	r2,r2,zero
  80b29c:	1000071e 	bne	r2,zero,80b2bc <alt_up_audio_write_fifo_head+0x40>
		IOWR_ALT_UP_AUDIO_LEFTDATA(audio->base, data);
  80b2a0:	e0bffd17 	ldw	r2,-12(fp)
  80b2a4:	10800a17 	ldw	r2,40(r2)
  80b2a8:	10800204 	addi	r2,r2,8
  80b2ac:	1007883a 	mov	r3,r2
  80b2b0:	e0bffe17 	ldw	r2,-8(fp)
  80b2b4:	18800035 	stwio	r2,0(r3)
  80b2b8:	00000606 	br	80b2d4 <alt_up_audio_write_fifo_head+0x58>
	else
		IOWR_ALT_UP_AUDIO_RIGHTDATA(audio->base, data);
  80b2bc:	e0bffd17 	ldw	r2,-12(fp)
  80b2c0:	10800a17 	ldw	r2,40(r2)
  80b2c4:	10800304 	addi	r2,r2,12
  80b2c8:	1007883a 	mov	r3,r2
  80b2cc:	e0bffe17 	ldw	r2,-8(fp)
  80b2d0:	18800035 	stwio	r2,0(r3)
}
  80b2d4:	df000317 	ldw	fp,12(sp)
  80b2d8:	dec00404 	addi	sp,sp,16
  80b2dc:	f800283a 	ret

0080b2e0 <Write_Sector_Data>:


bool Write_Sector_Data(int sector_index, int partition_offset)
// This function writes a sector at the specified address on the SD Card.
{
  80b2e0:	defffa04 	addi	sp,sp,-24
  80b2e4:	dfc00515 	stw	ra,20(sp)
  80b2e8:	df000415 	stw	fp,16(sp)
  80b2ec:	df000404 	addi	fp,sp,16
  80b2f0:	e13ffc15 	stw	r4,-16(fp)
  80b2f4:	e17ffd15 	stw	r5,-12(fp)
    bool result = false;
  80b2f8:	e03ffe15 	stw	zero,-8(fp)

    if (alt_up_sd_card_is_Present())
  80b2fc:	080dc700 	call	80dc70 <alt_up_sd_card_is_Present>
  80b300:	1005003a 	cmpeq	r2,r2,zero
  80b304:	10001e1e 	bne	r2,zero,80b380 <Write_Sector_Data+0xa0>
    {
        short int reg_state = 0xff;
  80b308:	00803fc4 	movi	r2,255
  80b30c:	e0bfff0d 	sth	r2,-4(fp)

		/* Multiply sector offset by sector size to get the address. Sector size is 512. Also,
         * the SD card reads data in 512 byte chunks, so the address must be a multiple of 512. */
        IOWR_32DIRECT(command_argument_register, 0, (sector_index + partition_offset)*512);
  80b310:	d1202017 	ldw	r4,-32640(gp)
  80b314:	e0fffc17 	ldw	r3,-16(fp)
  80b318:	e0bffd17 	ldw	r2,-12(fp)
  80b31c:	1885883a 	add	r2,r3,r2
  80b320:	1004927a 	slli	r2,r2,9
  80b324:	20800035 	stwio	r2,0(r4)
        IOWR_16DIRECT(command_register, 0, CMD_WRITE_BLOCK);
  80b328:	d0e01f17 	ldw	r3,-32644(gp)
  80b32c:	00800604 	movi	r2,24
  80b330:	1880002d 	sthio	r2,0(r3)
        do {
            reg_state = (short int) IORD_16DIRECT(aux_status_register,0);
  80b334:	d0a01c17 	ldw	r2,-32656(gp)
  80b338:	1080002b 	ldhuio	r2,0(r2)
  80b33c:	e0bfff0d 	sth	r2,-4(fp)
        } while ((reg_state & 0x04)!=0);
  80b340:	e0bfff0b 	ldhu	r2,-4(fp)
  80b344:	1080010c 	andi	r2,r2,4
  80b348:	1005003a 	cmpeq	r2,r2,zero
  80b34c:	1000011e 	bne	r2,zero,80b354 <Write_Sector_Data+0x74>
  80b350:	003ff806 	br	80b334 <Write_Sector_Data+0x54>
        // Make sure the request did not time out.
        if ((reg_state & 0x10) == 0)
  80b354:	e0bfff0b 	ldhu	r2,-4(fp)
  80b358:	1080040c 	andi	r2,r2,16
  80b35c:	1004c03a 	cmpne	r2,r2,zero
  80b360:	1000071e 	bne	r2,zero,80b380 <Write_Sector_Data+0xa0>
        {
            result = true;
  80b364:	00800044 	movi	r2,1
  80b368:	e0bffe15 	stw	r2,-8(fp)
            current_sector_modified = false;
  80b36c:	d0202515 	stw	zero,-32620(gp)
            current_sector_index = sector_index+partition_offset;
  80b370:	e0fffc17 	ldw	r3,-16(fp)
  80b374:	e0bffd17 	ldw	r2,-12(fp)
  80b378:	1885883a 	add	r2,r3,r2
  80b37c:	d0a02615 	stw	r2,-32616(gp)
        }
    }
    return result;
  80b380:	e0bffe17 	ldw	r2,-8(fp)
}
  80b384:	dfc00517 	ldw	ra,20(sp)
  80b388:	df000417 	ldw	fp,16(sp)
  80b38c:	dec00604 	addi	sp,sp,24
  80b390:	f800283a 	ret

0080b394 <Save_Modified_Sector>:


bool Save_Modified_Sector()
// If the sector has been modified, then save it to the SD Card.
{
  80b394:	defffd04 	addi	sp,sp,-12
  80b398:	dfc00215 	stw	ra,8(sp)
  80b39c:	df000115 	stw	fp,4(sp)
  80b3a0:	df000104 	addi	fp,sp,4
    bool result = true;
  80b3a4:	00800044 	movi	r2,1
  80b3a8:	e0bfff15 	stw	r2,-4(fp)
    if (current_sector_modified)
  80b3ac:	d0a02517 	ldw	r2,-32620(gp)
  80b3b0:	1005003a 	cmpeq	r2,r2,zero
  80b3b4:	1000041e 	bne	r2,zero,80b3c8 <Save_Modified_Sector+0x34>
    {
        result = Write_Sector_Data(current_sector_index, 0);
  80b3b8:	d1202617 	ldw	r4,-32616(gp)
  80b3bc:	000b883a 	mov	r5,zero
  80b3c0:	080b2e00 	call	80b2e0 <Write_Sector_Data>
  80b3c4:	e0bfff15 	stw	r2,-4(fp)
    }
    return result;
  80b3c8:	e0bfff17 	ldw	r2,-4(fp)
}
  80b3cc:	dfc00217 	ldw	ra,8(sp)
  80b3d0:	df000117 	ldw	fp,4(sp)
  80b3d4:	dec00304 	addi	sp,sp,12
  80b3d8:	f800283a 	ret

0080b3dc <Read_Sector_Data>:


bool Read_Sector_Data(int sector_index, int partition_offset)
// This function reads a sector at the specified address on the SD Card.
{
  80b3dc:	defff904 	addi	sp,sp,-28
  80b3e0:	dfc00615 	stw	ra,24(sp)
  80b3e4:	df000515 	stw	fp,20(sp)
  80b3e8:	df000504 	addi	fp,sp,20
  80b3ec:	e13ffb15 	stw	r4,-20(fp)
  80b3f0:	e17ffc15 	stw	r5,-16(fp)
	bool result = false;
  80b3f4:	e03ffd15 	stw	zero,-12(fp)

	if (alt_up_sd_card_is_Present())
  80b3f8:	080dc700 	call	80dc70 <alt_up_sd_card_is_Present>
  80b3fc:	1005003a 	cmpeq	r2,r2,zero
  80b400:	1000281e 	bne	r2,zero,80b4a4 <Read_Sector_Data+0xc8>
	{
		short int reg_state = 0xff;
  80b404:	00803fc4 	movi	r2,255
  80b408:	e0bffe0d 	sth	r2,-8(fp)

        /* Write data to the SD card if the current buffer is out of date. */
        if (current_sector_modified)
  80b40c:	d0a02517 	ldw	r2,-32620(gp)
  80b410:	1005003a 	cmpeq	r2,r2,zero
  80b414:	1000071e 	bne	r2,zero,80b434 <Read_Sector_Data+0x58>
        {
            if (Write_Sector_Data(current_sector_index, 0) == false)
  80b418:	d1202617 	ldw	r4,-32616(gp)
  80b41c:	000b883a 	mov	r5,zero
  80b420:	080b2e00 	call	80b2e0 <Write_Sector_Data>
  80b424:	1004c03a 	cmpne	r2,r2,zero
  80b428:	1000021e 	bne	r2,zero,80b434 <Read_Sector_Data+0x58>
            {
                return false;
  80b42c:	e03fff15 	stw	zero,-4(fp)
  80b430:	00001e06 	br	80b4ac <Read_Sector_Data+0xd0>
            }
        }
		/* Multiply sector offset by sector size to get the address. Sector size is 512. Also,
		 * the SD card reads data in 512 byte chunks, so the address must be a multiple of 512. */
        IOWR_32DIRECT(command_argument_register, 0, (sector_index + partition_offset)*512);
  80b434:	d1202017 	ldw	r4,-32640(gp)
  80b438:	e0fffb17 	ldw	r3,-20(fp)
  80b43c:	e0bffc17 	ldw	r2,-16(fp)
  80b440:	1885883a 	add	r2,r3,r2
  80b444:	1004927a 	slli	r2,r2,9
  80b448:	20800035 	stwio	r2,0(r4)
        IOWR_16DIRECT(command_register, 0, CMD_READ_BLOCK);
  80b44c:	d0e01f17 	ldw	r3,-32644(gp)
  80b450:	00800444 	movi	r2,17
  80b454:	1880002d 	sthio	r2,0(r3)
		do {
			reg_state = (short int) IORD_16DIRECT(aux_status_register,0);
  80b458:	d0a01c17 	ldw	r2,-32656(gp)
  80b45c:	1080002b 	ldhuio	r2,0(r2)
  80b460:	e0bffe0d 	sth	r2,-8(fp)
		} while ((reg_state & 0x04)!=0);
  80b464:	e0bffe0b 	ldhu	r2,-8(fp)
  80b468:	1080010c 	andi	r2,r2,4
  80b46c:	1005003a 	cmpeq	r2,r2,zero
  80b470:	1000011e 	bne	r2,zero,80b478 <Read_Sector_Data+0x9c>
  80b474:	003ff806 	br	80b458 <Read_Sector_Data+0x7c>
		// Make sure the request did not time out.
		if ((reg_state & 0x10) == 0)
  80b478:	e0bffe0b 	ldhu	r2,-8(fp)
  80b47c:	1080040c 	andi	r2,r2,16
  80b480:	1004c03a 	cmpne	r2,r2,zero
  80b484:	1000071e 	bne	r2,zero,80b4a4 <Read_Sector_Data+0xc8>
		{
			result = true;
  80b488:	00800044 	movi	r2,1
  80b48c:	e0bffd15 	stw	r2,-12(fp)
            current_sector_modified = false;
  80b490:	d0202515 	stw	zero,-32620(gp)
            current_sector_index = sector_index+partition_offset;
  80b494:	e0fffb17 	ldw	r3,-20(fp)
  80b498:	e0bffc17 	ldw	r2,-16(fp)
  80b49c:	1885883a 	add	r2,r3,r2
  80b4a0:	d0a02615 	stw	r2,-32616(gp)
		}
	}
	return result;
  80b4a4:	e0bffd17 	ldw	r2,-12(fp)
  80b4a8:	e0bfff15 	stw	r2,-4(fp)
}
  80b4ac:	e0bfff17 	ldw	r2,-4(fp)
  80b4b0:	dfc00617 	ldw	ra,24(sp)
  80b4b4:	df000517 	ldw	fp,20(sp)
  80b4b8:	dec00704 	addi	sp,sp,28
  80b4bc:	f800283a 	ret

0080b4c0 <get_cluster_flag>:


bool get_cluster_flag(unsigned int cluster_index, unsigned short int *flag)
// Read a cluster flag.
{
  80b4c0:	defffa04 	addi	sp,sp,-24
  80b4c4:	dfc00515 	stw	ra,20(sp)
  80b4c8:	df000415 	stw	fp,16(sp)
  80b4cc:	df000404 	addi	fp,sp,16
  80b4d0:	e13ffc15 	stw	r4,-16(fp)
  80b4d4:	e17ffd15 	stw	r5,-12(fp)
    unsigned int sector_index = (cluster_index / 256) + fat_partition_offset_in_512_byte_sectors;
  80b4d8:	e0bffc17 	ldw	r2,-16(fp)
  80b4dc:	1006d23a 	srli	r3,r2,8
  80b4e0:	d0a02217 	ldw	r2,-32632(gp)
  80b4e4:	1885883a 	add	r2,r3,r2
  80b4e8:	e0bffe15 	stw	r2,-8(fp)

    sector_index  = sector_index + boot_sector_data.first_fat_sector_offset;
  80b4ec:	00802074 	movhi	r2,129
  80b4f0:	1088a704 	addi	r2,r2,8860
  80b4f4:	e0fffe17 	ldw	r3,-8(fp)
  80b4f8:	10801117 	ldw	r2,68(r2)
  80b4fc:	1885883a 	add	r2,r3,r2
  80b500:	e0bffe15 	stw	r2,-8(fp)

    if (sector_index != current_sector_index)
  80b504:	e0fffe17 	ldw	r3,-8(fp)
  80b508:	d0a02617 	ldw	r2,-32616(gp)
  80b50c:	18800726 	beq	r3,r2,80b52c <get_cluster_flag+0x6c>
    {
        if (Read_Sector_Data(sector_index, 0) == false)
  80b510:	e13ffe17 	ldw	r4,-8(fp)
  80b514:	000b883a 	mov	r5,zero
  80b518:	080b3dc0 	call	80b3dc <Read_Sector_Data>
  80b51c:	1004c03a 	cmpne	r2,r2,zero
  80b520:	1000021e 	bne	r2,zero,80b52c <get_cluster_flag+0x6c>
        {
            return false;
  80b524:	e03fff15 	stw	zero,-4(fp)
  80b528:	00000c06 	br	80b55c <get_cluster_flag+0x9c>
        }
    }
    *flag = (unsigned short int) IORD_16DIRECT(device_pointer->base, 2*(cluster_index % 256));
  80b52c:	e17ffd17 	ldw	r5,-12(fp)
  80b530:	d1202417 	ldw	r4,-32624(gp)
  80b534:	e0bffc17 	ldw	r2,-16(fp)
  80b538:	10c03fcc 	andi	r3,r2,255
  80b53c:	1805883a 	mov	r2,r3
  80b540:	10c7883a 	add	r3,r2,r3
  80b544:	20800a17 	ldw	r2,40(r4)
  80b548:	1885883a 	add	r2,r3,r2
  80b54c:	1080002b 	ldhuio	r2,0(r2)
  80b550:	2880000d 	sth	r2,0(r5)
    return true;
  80b554:	00800044 	movi	r2,1
  80b558:	e0bfff15 	stw	r2,-4(fp)
}
  80b55c:	e0bfff17 	ldw	r2,-4(fp)
  80b560:	dfc00517 	ldw	ra,20(sp)
  80b564:	df000417 	ldw	fp,16(sp)
  80b568:	dec00604 	addi	sp,sp,24
  80b56c:	f800283a 	ret

0080b570 <mark_cluster>:


bool mark_cluster(unsigned int cluster_index, short int flag, bool first_fat)
// Place a marker on the specified cluster in a given FAT.
{
  80b570:	defff904 	addi	sp,sp,-28
  80b574:	dfc00615 	stw	ra,24(sp)
  80b578:	df000515 	stw	fp,20(sp)
  80b57c:	df000504 	addi	fp,sp,20
  80b580:	e13ffb15 	stw	r4,-20(fp)
  80b584:	e1bffd15 	stw	r6,-12(fp)
  80b588:	e17ffc0d 	sth	r5,-16(fp)
    unsigned int sector_index = (cluster_index / 256) +  fat_partition_offset_in_512_byte_sectors;
  80b58c:	e0bffb17 	ldw	r2,-20(fp)
  80b590:	1006d23a 	srli	r3,r2,8
  80b594:	d0a02217 	ldw	r2,-32632(gp)
  80b598:	1885883a 	add	r2,r3,r2
  80b59c:	e0bffe15 	stw	r2,-8(fp)

    if (first_fat)
  80b5a0:	e0bffd17 	ldw	r2,-12(fp)
  80b5a4:	1005003a 	cmpeq	r2,r2,zero
  80b5a8:	1000071e 	bne	r2,zero,80b5c8 <mark_cluster+0x58>
    {
        sector_index  = sector_index + boot_sector_data.first_fat_sector_offset;
  80b5ac:	00802074 	movhi	r2,129
  80b5b0:	1088a704 	addi	r2,r2,8860
  80b5b4:	e0fffe17 	ldw	r3,-8(fp)
  80b5b8:	10801117 	ldw	r2,68(r2)
  80b5bc:	1885883a 	add	r2,r3,r2
  80b5c0:	e0bffe15 	stw	r2,-8(fp)
  80b5c4:	00000606 	br	80b5e0 <mark_cluster+0x70>
    }
    else
    {
        sector_index  = sector_index + boot_sector_data.second_fat_sector_offset;
  80b5c8:	00802074 	movhi	r2,129
  80b5cc:	1088a704 	addi	r2,r2,8860
  80b5d0:	e0fffe17 	ldw	r3,-8(fp)
  80b5d4:	10801217 	ldw	r2,72(r2)
  80b5d8:	1885883a 	add	r2,r3,r2
  80b5dc:	e0bffe15 	stw	r2,-8(fp)
    }

    if (sector_index != current_sector_index)
  80b5e0:	e0fffe17 	ldw	r3,-8(fp)
  80b5e4:	d0a02617 	ldw	r2,-32616(gp)
  80b5e8:	18800726 	beq	r3,r2,80b608 <mark_cluster+0x98>
    {
        if (Read_Sector_Data(sector_index, 0) == false)
  80b5ec:	e13ffe17 	ldw	r4,-8(fp)
  80b5f0:	000b883a 	mov	r5,zero
  80b5f4:	080b3dc0 	call	80b3dc <Read_Sector_Data>
  80b5f8:	1004c03a 	cmpne	r2,r2,zero
  80b5fc:	1000021e 	bne	r2,zero,80b608 <mark_cluster+0x98>
        {
            return false;
  80b600:	e03fff15 	stw	zero,-4(fp)
  80b604:	00000e06 	br	80b640 <mark_cluster+0xd0>
        }
    }
    IOWR_16DIRECT(device_pointer->base, 2*(cluster_index % 256), flag);
  80b608:	d1202417 	ldw	r4,-32624(gp)
  80b60c:	e0bffb17 	ldw	r2,-20(fp)
  80b610:	10c03fcc 	andi	r3,r2,255
  80b614:	1805883a 	mov	r2,r3
  80b618:	10c7883a 	add	r3,r2,r3
  80b61c:	20800a17 	ldw	r2,40(r4)
  80b620:	1885883a 	add	r2,r3,r2
  80b624:	1007883a 	mov	r3,r2
  80b628:	e0bffc0f 	ldh	r2,-16(fp)
  80b62c:	1880002d 	sthio	r2,0(r3)
    current_sector_modified = true;
  80b630:	00800044 	movi	r2,1
  80b634:	d0a02515 	stw	r2,-32620(gp)
    return true;
  80b638:	00800044 	movi	r2,1
  80b63c:	e0bfff15 	stw	r2,-4(fp)
}
  80b640:	e0bfff17 	ldw	r2,-4(fp)
  80b644:	dfc00617 	ldw	ra,24(sp)
  80b648:	df000517 	ldw	fp,20(sp)
  80b64c:	dec00704 	addi	sp,sp,28
  80b650:	f800283a 	ret

0080b654 <Check_for_Master_Boot_Record>:


bool Check_for_Master_Boot_Record(void)
// This function reads the first 512 bytes on the SD Card. This data should
// contain the Master Boot Record. If it does, then print
// relevant information and return true. Otherwise, return false.
{
  80b654:	defff704 	addi	sp,sp,-36
  80b658:	dfc00815 	stw	ra,32(sp)
  80b65c:	df000715 	stw	fp,28(sp)
  80b660:	df000704 	addi	fp,sp,28
	bool result = false;
  80b664:	e03ff915 	stw	zero,-28(fp)
	int index;
	int end, offset, partition_size;

	/* Load the first 512 bytes of data from SD card. */
	if (Read_Sector_Data(0, 0))
  80b668:	0009883a 	mov	r4,zero
  80b66c:	000b883a 	mov	r5,zero
  80b670:	080b3dc0 	call	80b3dc <Read_Sector_Data>
  80b674:	1005003a 	cmpeq	r2,r2,zero
  80b678:	1000581e 	bne	r2,zero,80b7dc <Check_for_Master_Boot_Record+0x188>
	{
		end =  (short int) IORD_16DIRECT(device_pointer->base,0x1fe);
  80b67c:	d0a02417 	ldw	r2,-32624(gp)
  80b680:	10800a17 	ldw	r2,40(r2)
  80b684:	10807f84 	addi	r2,r2,510
  80b688:	1080002b 	ldhuio	r2,0(r2)
  80b68c:	10bfffcc 	andi	r2,r2,65535
  80b690:	10a0001c 	xori	r2,r2,32768
  80b694:	10a00004 	addi	r2,r2,-32768
  80b698:	e0bffb15 	stw	r2,-20(fp)

		// Check if the end of the sector contains an end string 0xaa55.
		if ((end & 0x0000ffff) == 0x0000aa55)
  80b69c:	e0bffb17 	ldw	r2,-20(fp)
  80b6a0:	10ffffcc 	andi	r3,r2,65535
  80b6a4:	00aa9554 	movui	r2,43605
  80b6a8:	18804c1e 	bne	r3,r2,80b7dc <Check_for_Master_Boot_Record+0x188>
		{
			// Check four partition entries and see if any are valid
			for (index = 0; index < 4; index++)
  80b6ac:	e03ffa15 	stw	zero,-24(fp)
  80b6b0:	e0bffa17 	ldw	r2,-24(fp)
  80b6b4:	10800108 	cmpgei	r2,r2,4
  80b6b8:	1000481e 	bne	r2,zero,80b7dc <Check_for_Master_Boot_Record+0x188>
			{
				int partition_data_offset = (index * 16) + 0x01be;
  80b6bc:	e0bffa17 	ldw	r2,-24(fp)
  80b6c0:	1004913a 	slli	r2,r2,4
  80b6c4:	10806f84 	addi	r2,r2,446
  80b6c8:	e0bffe15 	stw	r2,-8(fp)
				char type;

				// Read Partition type
				type = (unsigned char) IORD_8DIRECT(device_pointer->base,partition_data_offset + 0x04);
  80b6cc:	d0a02417 	ldw	r2,-32624(gp)
  80b6d0:	10c00a17 	ldw	r3,40(r2)
  80b6d4:	e0bffe17 	ldw	r2,-8(fp)
  80b6d8:	1885883a 	add	r2,r3,r2
  80b6dc:	10800104 	addi	r2,r2,4
  80b6e0:	10800023 	ldbuio	r2,0(r2)
  80b6e4:	e0bfff05 	stb	r2,-4(fp)

				// Check if this is an FAT parition
				if ((type == 1) || (type == 4) || (type == 6) || (type == 14))
  80b6e8:	e0bfff07 	ldb	r2,-4(fp)
  80b6ec:	10800060 	cmpeqi	r2,r2,1
  80b6f0:	10000a1e 	bne	r2,zero,80b71c <Check_for_Master_Boot_Record+0xc8>
  80b6f4:	e0bfff07 	ldb	r2,-4(fp)
  80b6f8:	10800120 	cmpeqi	r2,r2,4
  80b6fc:	1000071e 	bne	r2,zero,80b71c <Check_for_Master_Boot_Record+0xc8>
  80b700:	e0bfff07 	ldb	r2,-4(fp)
  80b704:	108001a0 	cmpeqi	r2,r2,6
  80b708:	1000041e 	bne	r2,zero,80b71c <Check_for_Master_Boot_Record+0xc8>
  80b70c:	e0bfff07 	ldb	r2,-4(fp)
  80b710:	108003a0 	cmpeqi	r2,r2,14
  80b714:	1000011e 	bne	r2,zero,80b71c <Check_for_Master_Boot_Record+0xc8>
  80b718:	00002c06 	br	80b7cc <Check_for_Master_Boot_Record+0x178>
				{
					// Get partition offset and size.
					offset = (((unsigned short int) IORD_16DIRECT(device_pointer->base,partition_data_offset + 0x0A)) << 16) | ((unsigned short int) IORD_16DIRECT(device_pointer->base,partition_data_offset + 0x08));
  80b71c:	d0a02417 	ldw	r2,-32624(gp)
  80b720:	10c00a17 	ldw	r3,40(r2)
  80b724:	e0bffe17 	ldw	r2,-8(fp)
  80b728:	1885883a 	add	r2,r3,r2
  80b72c:	10800284 	addi	r2,r2,10
  80b730:	1080002b 	ldhuio	r2,0(r2)
  80b734:	10bfffcc 	andi	r2,r2,65535
  80b738:	1008943a 	slli	r4,r2,16
  80b73c:	d0a02417 	ldw	r2,-32624(gp)
  80b740:	10c00a17 	ldw	r3,40(r2)
  80b744:	e0bffe17 	ldw	r2,-8(fp)
  80b748:	1885883a 	add	r2,r3,r2
  80b74c:	10800204 	addi	r2,r2,8
  80b750:	1080002b 	ldhuio	r2,0(r2)
  80b754:	10bfffcc 	andi	r2,r2,65535
  80b758:	2084b03a 	or	r2,r4,r2
  80b75c:	e0bffc15 	stw	r2,-16(fp)
					partition_size = (((unsigned short int) IORD_16DIRECT(device_pointer->base,partition_data_offset + 0x0E)) << 16) | ((unsigned short int) IORD_16DIRECT(device_pointer->base,partition_data_offset + 0x0C));
  80b760:	d0a02417 	ldw	r2,-32624(gp)
  80b764:	10c00a17 	ldw	r3,40(r2)
  80b768:	e0bffe17 	ldw	r2,-8(fp)
  80b76c:	1885883a 	add	r2,r3,r2
  80b770:	10800384 	addi	r2,r2,14
  80b774:	1080002b 	ldhuio	r2,0(r2)
  80b778:	10bfffcc 	andi	r2,r2,65535
  80b77c:	1008943a 	slli	r4,r2,16
  80b780:	d0a02417 	ldw	r2,-32624(gp)
  80b784:	10c00a17 	ldw	r3,40(r2)
  80b788:	e0bffe17 	ldw	r2,-8(fp)
  80b78c:	1885883a 	add	r2,r3,r2
  80b790:	10800304 	addi	r2,r2,12
  80b794:	1080002b 	ldhuio	r2,0(r2)
  80b798:	10bfffcc 	andi	r2,r2,65535
  80b79c:	2084b03a 	or	r2,r4,r2
  80b7a0:	e0bffd15 	stw	r2,-12(fp)

					// Check if the partition is valid
					if (partition_size > 0)
  80b7a4:	e0bffd17 	ldw	r2,-12(fp)
  80b7a8:	10800050 	cmplti	r2,r2,1
  80b7ac:	1000071e 	bne	r2,zero,80b7cc <Check_for_Master_Boot_Record+0x178>
					{
						result = true;
  80b7b0:	00800044 	movi	r2,1
  80b7b4:	e0bff915 	stw	r2,-28(fp)
						fat_partition_size_in_512_byte_sectors = partition_size;
  80b7b8:	e0bffd17 	ldw	r2,-12(fp)
  80b7bc:	d0a02315 	stw	r2,-32628(gp)
						fat_partition_offset_in_512_byte_sectors = offset;
  80b7c0:	e0bffc17 	ldw	r2,-16(fp)
  80b7c4:	d0a02215 	stw	r2,-32632(gp)
						break;
  80b7c8:	00000406 	br	80b7dc <Check_for_Master_Boot_Record+0x188>
  80b7cc:	e0bffa17 	ldw	r2,-24(fp)
  80b7d0:	10800044 	addi	r2,r2,1
  80b7d4:	e0bffa15 	stw	r2,-24(fp)
  80b7d8:	003fb506 	br	80b6b0 <Check_for_Master_Boot_Record+0x5c>
					}
				}
			}
		}
	}

	return result;
  80b7dc:	e0bff917 	ldw	r2,-28(fp)
}
  80b7e0:	dfc00817 	ldw	ra,32(sp)
  80b7e4:	df000717 	ldw	fp,28(sp)
  80b7e8:	dec00904 	addi	sp,sp,36
  80b7ec:	f800283a 	ret

0080b7f0 <Read_File_Record_At_Offset>:


bool Read_File_Record_At_Offset(int offset, t_file_record *record, unsigned int cluster_index, unsigned int sector_in_cluster)
// This function reads a file record
{
  80b7f0:	defff804 	addi	sp,sp,-32
  80b7f4:	dfc00715 	stw	ra,28(sp)
  80b7f8:	df000615 	stw	fp,24(sp)
  80b7fc:	df000604 	addi	fp,sp,24
  80b800:	e13ffa15 	stw	r4,-24(fp)
  80b804:	e17ffb15 	stw	r5,-20(fp)
  80b808:	e1bffc15 	stw	r6,-16(fp)
  80b80c:	e1fffd15 	stw	r7,-12(fp)
	bool result = false;
  80b810:	e03ffe15 	stw	zero,-8(fp)
	if (((offset & 0x01f) == 0) && (alt_up_sd_card_is_Present()) && (is_sd_card_formated_as_FAT16))
  80b814:	e0bffa17 	ldw	r2,-24(fp)
  80b818:	108007cc 	andi	r2,r2,31
  80b81c:	1004c03a 	cmpne	r2,r2,zero
  80b820:	1000791e 	bne	r2,zero,80ba08 <Read_File_Record_At_Offset+0x218>
  80b824:	080dc700 	call	80dc70 <alt_up_sd_card_is_Present>
  80b828:	1005003a 	cmpeq	r2,r2,zero
  80b82c:	1000761e 	bne	r2,zero,80ba08 <Read_File_Record_At_Offset+0x218>
  80b830:	d0a01b17 	ldw	r2,-32660(gp)
  80b834:	1005003a 	cmpeq	r2,r2,zero
  80b838:	1000731e 	bne	r2,zero,80ba08 <Read_File_Record_At_Offset+0x218>
	{
		int counter;

		for (counter = 0; counter < 8; counter++)
  80b83c:	e03fff15 	stw	zero,-4(fp)
  80b840:	e0bfff17 	ldw	r2,-4(fp)
  80b844:	10800208 	cmpgei	r2,r2,8
  80b848:	10000f1e 	bne	r2,zero,80b888 <Read_File_Record_At_Offset+0x98>
		{
			record->name[counter] = (char) IORD_8DIRECT(device_pointer->base, offset+counter);
  80b84c:	e0fffb17 	ldw	r3,-20(fp)
  80b850:	e0bfff17 	ldw	r2,-4(fp)
  80b854:	188b883a 	add	r5,r3,r2
  80b858:	d1202417 	ldw	r4,-32624(gp)
  80b85c:	e0fffa17 	ldw	r3,-24(fp)
  80b860:	e0bfff17 	ldw	r2,-4(fp)
  80b864:	1887883a 	add	r3,r3,r2
  80b868:	20800a17 	ldw	r2,40(r4)
  80b86c:	1885883a 	add	r2,r3,r2
  80b870:	10800023 	ldbuio	r2,0(r2)
  80b874:	28800005 	stb	r2,0(r5)
  80b878:	e0bfff17 	ldw	r2,-4(fp)
  80b87c:	10800044 	addi	r2,r2,1
  80b880:	e0bfff15 	stw	r2,-4(fp)
  80b884:	003fee06 	br	80b840 <Read_File_Record_At_Offset+0x50>
		}
		for (counter = 0; counter < 3; counter++)
  80b888:	e03fff15 	stw	zero,-4(fp)
  80b88c:	e0bfff17 	ldw	r2,-4(fp)
  80b890:	108000c8 	cmpgei	r2,r2,3
  80b894:	1000111e 	bne	r2,zero,80b8dc <Read_File_Record_At_Offset+0xec>
		{
			record->extension[counter] = (char) IORD_8DIRECT(device_pointer->base, offset+counter+8);
  80b898:	e0fffb17 	ldw	r3,-20(fp)
  80b89c:	e0bfff17 	ldw	r2,-4(fp)
  80b8a0:	1885883a 	add	r2,r3,r2
  80b8a4:	11400204 	addi	r5,r2,8
  80b8a8:	d1202417 	ldw	r4,-32624(gp)
  80b8ac:	e0fffa17 	ldw	r3,-24(fp)
  80b8b0:	e0bfff17 	ldw	r2,-4(fp)
  80b8b4:	1887883a 	add	r3,r3,r2
  80b8b8:	20800a17 	ldw	r2,40(r4)
  80b8bc:	1885883a 	add	r2,r3,r2
  80b8c0:	10800204 	addi	r2,r2,8
  80b8c4:	10800023 	ldbuio	r2,0(r2)
  80b8c8:	28800005 	stb	r2,0(r5)
  80b8cc:	e0bfff17 	ldw	r2,-4(fp)
  80b8d0:	10800044 	addi	r2,r2,1
  80b8d4:	e0bfff15 	stw	r2,-4(fp)
  80b8d8:	003fec06 	br	80b88c <Read_File_Record_At_Offset+0x9c>
		}
		record->attributes          =   (char) IORD_8DIRECT(device_pointer->base, offset+11);
  80b8dc:	e13ffb17 	ldw	r4,-20(fp)
  80b8e0:	d0a02417 	ldw	r2,-32624(gp)
  80b8e4:	10c00a17 	ldw	r3,40(r2)
  80b8e8:	e0bffa17 	ldw	r2,-24(fp)
  80b8ec:	1885883a 	add	r2,r3,r2
  80b8f0:	108002c4 	addi	r2,r2,11
  80b8f4:	10800023 	ldbuio	r2,0(r2)
  80b8f8:	208002c5 	stb	r2,11(r4)
		/* Ignore reserved bytes at locations 12 and 13. */
		record->create_time         =   (unsigned short int) IORD_16DIRECT(device_pointer->base, offset+14);
  80b8fc:	e13ffb17 	ldw	r4,-20(fp)
  80b900:	d0a02417 	ldw	r2,-32624(gp)
  80b904:	10c00a17 	ldw	r3,40(r2)
  80b908:	e0bffa17 	ldw	r2,-24(fp)
  80b90c:	1885883a 	add	r2,r3,r2
  80b910:	10800384 	addi	r2,r2,14
  80b914:	1080002b 	ldhuio	r2,0(r2)
  80b918:	2080030d 	sth	r2,12(r4)
		record->create_date         =   (unsigned short int) IORD_16DIRECT(device_pointer->base, offset+16);
  80b91c:	e13ffb17 	ldw	r4,-20(fp)
  80b920:	d0a02417 	ldw	r2,-32624(gp)
  80b924:	10c00a17 	ldw	r3,40(r2)
  80b928:	e0bffa17 	ldw	r2,-24(fp)
  80b92c:	1885883a 	add	r2,r3,r2
  80b930:	10800404 	addi	r2,r2,16
  80b934:	1080002b 	ldhuio	r2,0(r2)
  80b938:	2080038d 	sth	r2,14(r4)
		record->last_access_date    =   (unsigned short int) IORD_16DIRECT(device_pointer->base, offset+18);
  80b93c:	e13ffb17 	ldw	r4,-20(fp)
  80b940:	d0a02417 	ldw	r2,-32624(gp)
  80b944:	10c00a17 	ldw	r3,40(r2)
  80b948:	e0bffa17 	ldw	r2,-24(fp)
  80b94c:	1885883a 	add	r2,r3,r2
  80b950:	10800484 	addi	r2,r2,18
  80b954:	1080002b 	ldhuio	r2,0(r2)
  80b958:	2080040d 	sth	r2,16(r4)
		/* Ignore reserved bytes at locations 20 and 21. */
		record->last_modified_time  =	(unsigned short int) IORD_16DIRECT(device_pointer->base, offset+22);
  80b95c:	e13ffb17 	ldw	r4,-20(fp)
  80b960:	d0a02417 	ldw	r2,-32624(gp)
  80b964:	10c00a17 	ldw	r3,40(r2)
  80b968:	e0bffa17 	ldw	r2,-24(fp)
  80b96c:	1885883a 	add	r2,r3,r2
  80b970:	10800584 	addi	r2,r2,22
  80b974:	1080002b 	ldhuio	r2,0(r2)
  80b978:	2080048d 	sth	r2,18(r4)
		record->last_modified_date  =	(unsigned short int) IORD_16DIRECT(device_pointer->base, offset+24);
  80b97c:	e13ffb17 	ldw	r4,-20(fp)
  80b980:	d0a02417 	ldw	r2,-32624(gp)
  80b984:	10c00a17 	ldw	r3,40(r2)
  80b988:	e0bffa17 	ldw	r2,-24(fp)
  80b98c:	1885883a 	add	r2,r3,r2
  80b990:	10800604 	addi	r2,r2,24
  80b994:	1080002b 	ldhuio	r2,0(r2)
  80b998:	2080050d 	sth	r2,20(r4)
		record->start_cluster_index =	(unsigned short int) IORD_16DIRECT(device_pointer->base, offset+26);
  80b99c:	e13ffb17 	ldw	r4,-20(fp)
  80b9a0:	d0a02417 	ldw	r2,-32624(gp)
  80b9a4:	10c00a17 	ldw	r3,40(r2)
  80b9a8:	e0bffa17 	ldw	r2,-24(fp)
  80b9ac:	1885883a 	add	r2,r3,r2
  80b9b0:	10800684 	addi	r2,r2,26
  80b9b4:	1080002b 	ldhuio	r2,0(r2)
  80b9b8:	2080058d 	sth	r2,22(r4)
		record->file_size_in_bytes  =	(unsigned int) IORD_32DIRECT(device_pointer->base, offset+28);
  80b9bc:	e13ffb17 	ldw	r4,-20(fp)
  80b9c0:	d0a02417 	ldw	r2,-32624(gp)
  80b9c4:	10c00a17 	ldw	r3,40(r2)
  80b9c8:	e0bffa17 	ldw	r2,-24(fp)
  80b9cc:	1885883a 	add	r2,r3,r2
  80b9d0:	10800704 	addi	r2,r2,28
  80b9d4:	10800037 	ldwio	r2,0(r2)
  80b9d8:	20800615 	stw	r2,24(r4)
		record->file_record_cluster = cluster_index;
  80b9dc:	e0fffb17 	ldw	r3,-20(fp)
  80b9e0:	e0bffc17 	ldw	r2,-16(fp)
  80b9e4:	18800a15 	stw	r2,40(r3)
		record->file_record_sector_in_cluster = sector_in_cluster;
  80b9e8:	e0fffb17 	ldw	r3,-20(fp)
  80b9ec:	e0bffd17 	ldw	r2,-12(fp)
  80b9f0:	18800b15 	stw	r2,44(r3)
		record->file_record_offset = offset;
  80b9f4:	e0fffb17 	ldw	r3,-20(fp)
  80b9f8:	e0bffa17 	ldw	r2,-24(fp)
  80b9fc:	18800c0d 	sth	r2,48(r3)
		result = true;
  80ba00:	00800044 	movi	r2,1
  80ba04:	e0bffe15 	stw	r2,-8(fp)
	}
	return result;
  80ba08:	e0bffe17 	ldw	r2,-8(fp)
}
  80ba0c:	dfc00717 	ldw	ra,28(sp)
  80ba10:	df000617 	ldw	fp,24(sp)
  80ba14:	dec00804 	addi	sp,sp,32
  80ba18:	f800283a 	ret

0080ba1c <Write_File_Record_At_Offset>:


bool Write_File_Record_At_Offset(int offset, t_file_record *record)
// This function writes a file record at a given offset. The offset is given in bytes.
{
  80ba1c:	defff904 	addi	sp,sp,-28
  80ba20:	dfc00615 	stw	ra,24(sp)
  80ba24:	df000515 	stw	fp,20(sp)
  80ba28:	df000504 	addi	fp,sp,20
  80ba2c:	e13ffb15 	stw	r4,-20(fp)
  80ba30:	e17ffc15 	stw	r5,-16(fp)
    bool result = false;
  80ba34:	e03ffd15 	stw	zero,-12(fp)
    if (((offset & 0x01f) == 0) && (alt_up_sd_card_is_Present()) && (is_sd_card_formated_as_FAT16))
  80ba38:	e0bffb17 	ldw	r2,-20(fp)
  80ba3c:	108007cc 	andi	r2,r2,31
  80ba40:	1004c03a 	cmpne	r2,r2,zero
  80ba44:	1000891e 	bne	r2,zero,80bc6c <Write_File_Record_At_Offset+0x250>
  80ba48:	080dc700 	call	80dc70 <alt_up_sd_card_is_Present>
  80ba4c:	1005003a 	cmpeq	r2,r2,zero
  80ba50:	1000861e 	bne	r2,zero,80bc6c <Write_File_Record_At_Offset+0x250>
  80ba54:	d0a01b17 	ldw	r2,-32660(gp)
  80ba58:	1005003a 	cmpeq	r2,r2,zero
  80ba5c:	1000831e 	bne	r2,zero,80bc6c <Write_File_Record_At_Offset+0x250>
    {
        int counter;

        for (counter = 0; counter < 8; counter=counter+2)
  80ba60:	e03ffe15 	stw	zero,-8(fp)
  80ba64:	e0bffe17 	ldw	r2,-8(fp)
  80ba68:	10800208 	cmpgei	r2,r2,8
  80ba6c:	10001d1e 	bne	r2,zero,80bae4 <Write_File_Record_At_Offset+0xc8>
        {
            short int two_chars = (short int) record->name[counter+1];
  80ba70:	e0fffc17 	ldw	r3,-16(fp)
  80ba74:	e0bffe17 	ldw	r2,-8(fp)
  80ba78:	1885883a 	add	r2,r3,r2
  80ba7c:	10800044 	addi	r2,r2,1
  80ba80:	10800003 	ldbu	r2,0(r2)
  80ba84:	e0bfff0d 	sth	r2,-4(fp)
            two_chars = two_chars << 8;
  80ba88:	e0bfff0f 	ldh	r2,-4(fp)
  80ba8c:	1004923a 	slli	r2,r2,8
  80ba90:	e0bfff0d 	sth	r2,-4(fp)
            two_chars = two_chars | record->name[counter];
  80ba94:	e0fffc17 	ldw	r3,-16(fp)
  80ba98:	e0bffe17 	ldw	r2,-8(fp)
  80ba9c:	1885883a 	add	r2,r3,r2
  80baa0:	10c00003 	ldbu	r3,0(r2)
  80baa4:	e0bfff0b 	ldhu	r2,-4(fp)
  80baa8:	10c4b03a 	or	r2,r2,r3
  80baac:	e0bfff0d 	sth	r2,-4(fp)
            IOWR_16DIRECT(device_pointer->base, offset+counter, two_chars);
  80bab0:	d1202417 	ldw	r4,-32624(gp)
  80bab4:	e0fffb17 	ldw	r3,-20(fp)
  80bab8:	e0bffe17 	ldw	r2,-8(fp)
  80babc:	1887883a 	add	r3,r3,r2
  80bac0:	20800a17 	ldw	r2,40(r4)
  80bac4:	1885883a 	add	r2,r3,r2
  80bac8:	1007883a 	mov	r3,r2
  80bacc:	e0bfff0f 	ldh	r2,-4(fp)
  80bad0:	1880002d 	sthio	r2,0(r3)
  80bad4:	e0bffe17 	ldw	r2,-8(fp)
  80bad8:	10800084 	addi	r2,r2,2
  80badc:	e0bffe15 	stw	r2,-8(fp)
  80bae0:	003fe006 	br	80ba64 <Write_File_Record_At_Offset+0x48>
        }
        for (counter = 0; counter < 3; counter++)
  80bae4:	e03ffe15 	stw	zero,-8(fp)
  80bae8:	e0bffe17 	ldw	r2,-8(fp)
  80baec:	108000c8 	cmpgei	r2,r2,3
  80baf0:	1000121e 	bne	r2,zero,80bb3c <Write_File_Record_At_Offset+0x120>
        {
            IOWR_8DIRECT(device_pointer->base, offset+counter+8, record->extension[counter]);
  80baf4:	d1202417 	ldw	r4,-32624(gp)
  80baf8:	e0fffb17 	ldw	r3,-20(fp)
  80bafc:	e0bffe17 	ldw	r2,-8(fp)
  80bb00:	1887883a 	add	r3,r3,r2
  80bb04:	20800a17 	ldw	r2,40(r4)
  80bb08:	1885883a 	add	r2,r3,r2
  80bb0c:	10800204 	addi	r2,r2,8
  80bb10:	1009883a 	mov	r4,r2
  80bb14:	e0fffc17 	ldw	r3,-16(fp)
  80bb18:	e0bffe17 	ldw	r2,-8(fp)
  80bb1c:	1885883a 	add	r2,r3,r2
  80bb20:	10800204 	addi	r2,r2,8
  80bb24:	10800003 	ldbu	r2,0(r2)
  80bb28:	20800025 	stbio	r2,0(r4)
  80bb2c:	e0bffe17 	ldw	r2,-8(fp)
  80bb30:	10800044 	addi	r2,r2,1
  80bb34:	e0bffe15 	stw	r2,-8(fp)
  80bb38:	003feb06 	br	80bae8 <Write_File_Record_At_Offset+0xcc>
        }
        IOWR_8DIRECT(device_pointer->base, offset+11, record->attributes);
  80bb3c:	d0a02417 	ldw	r2,-32624(gp)
  80bb40:	10c00a17 	ldw	r3,40(r2)
  80bb44:	e0bffb17 	ldw	r2,-20(fp)
  80bb48:	1885883a 	add	r2,r3,r2
  80bb4c:	108002c4 	addi	r2,r2,11
  80bb50:	1007883a 	mov	r3,r2
  80bb54:	e0bffc17 	ldw	r2,-16(fp)
  80bb58:	108002c3 	ldbu	r2,11(r2)
  80bb5c:	18800025 	stbio	r2,0(r3)
        /* Ignore reserved bytes at locations 12 and 13. */
        IOWR_16DIRECT(device_pointer->base, offset+14, record->create_time);
  80bb60:	d0a02417 	ldw	r2,-32624(gp)
  80bb64:	10c00a17 	ldw	r3,40(r2)
  80bb68:	e0bffb17 	ldw	r2,-20(fp)
  80bb6c:	1885883a 	add	r2,r3,r2
  80bb70:	10800384 	addi	r2,r2,14
  80bb74:	1007883a 	mov	r3,r2
  80bb78:	e0bffc17 	ldw	r2,-16(fp)
  80bb7c:	1080030b 	ldhu	r2,12(r2)
  80bb80:	1880002d 	sthio	r2,0(r3)
        IOWR_16DIRECT(device_pointer->base, offset+16, record->create_date);
  80bb84:	d0a02417 	ldw	r2,-32624(gp)
  80bb88:	10c00a17 	ldw	r3,40(r2)
  80bb8c:	e0bffb17 	ldw	r2,-20(fp)
  80bb90:	1885883a 	add	r2,r3,r2
  80bb94:	10800404 	addi	r2,r2,16
  80bb98:	1007883a 	mov	r3,r2
  80bb9c:	e0bffc17 	ldw	r2,-16(fp)
  80bba0:	1080038b 	ldhu	r2,14(r2)
  80bba4:	1880002d 	sthio	r2,0(r3)
        IOWR_16DIRECT(device_pointer->base, offset+18, record->last_access_date);
  80bba8:	d0a02417 	ldw	r2,-32624(gp)
  80bbac:	10c00a17 	ldw	r3,40(r2)
  80bbb0:	e0bffb17 	ldw	r2,-20(fp)
  80bbb4:	1885883a 	add	r2,r3,r2
  80bbb8:	10800484 	addi	r2,r2,18
  80bbbc:	1007883a 	mov	r3,r2
  80bbc0:	e0bffc17 	ldw	r2,-16(fp)
  80bbc4:	1080040b 	ldhu	r2,16(r2)
  80bbc8:	1880002d 	sthio	r2,0(r3)
        /* Ignore reserved bytes at locations 20 and 21. */
        IOWR_16DIRECT(device_pointer->base, offset+22, record->last_modified_time);
  80bbcc:	d0a02417 	ldw	r2,-32624(gp)
  80bbd0:	10c00a17 	ldw	r3,40(r2)
  80bbd4:	e0bffb17 	ldw	r2,-20(fp)
  80bbd8:	1885883a 	add	r2,r3,r2
  80bbdc:	10800584 	addi	r2,r2,22
  80bbe0:	1007883a 	mov	r3,r2
  80bbe4:	e0bffc17 	ldw	r2,-16(fp)
  80bbe8:	1080048b 	ldhu	r2,18(r2)
  80bbec:	1880002d 	sthio	r2,0(r3)
        IOWR_16DIRECT(device_pointer->base, offset+24, record->last_modified_date);
  80bbf0:	d0a02417 	ldw	r2,-32624(gp)
  80bbf4:	10c00a17 	ldw	r3,40(r2)
  80bbf8:	e0bffb17 	ldw	r2,-20(fp)
  80bbfc:	1885883a 	add	r2,r3,r2
  80bc00:	10800604 	addi	r2,r2,24
  80bc04:	1007883a 	mov	r3,r2
  80bc08:	e0bffc17 	ldw	r2,-16(fp)
  80bc0c:	1080050b 	ldhu	r2,20(r2)
  80bc10:	1880002d 	sthio	r2,0(r3)
        IOWR_16DIRECT(device_pointer->base, offset+26, record->start_cluster_index);
  80bc14:	d0a02417 	ldw	r2,-32624(gp)
  80bc18:	10c00a17 	ldw	r3,40(r2)
  80bc1c:	e0bffb17 	ldw	r2,-20(fp)
  80bc20:	1885883a 	add	r2,r3,r2
  80bc24:	10800684 	addi	r2,r2,26
  80bc28:	1007883a 	mov	r3,r2
  80bc2c:	e0bffc17 	ldw	r2,-16(fp)
  80bc30:	1080058b 	ldhu	r2,22(r2)
  80bc34:	1880002d 	sthio	r2,0(r3)
        IOWR_32DIRECT(device_pointer->base, offset+28, record->file_size_in_bytes);
  80bc38:	d0a02417 	ldw	r2,-32624(gp)
  80bc3c:	10c00a17 	ldw	r3,40(r2)
  80bc40:	e0bffb17 	ldw	r2,-20(fp)
  80bc44:	1885883a 	add	r2,r3,r2
  80bc48:	10800704 	addi	r2,r2,28
  80bc4c:	1007883a 	mov	r3,r2
  80bc50:	e0bffc17 	ldw	r2,-16(fp)
  80bc54:	10800617 	ldw	r2,24(r2)
  80bc58:	18800035 	stwio	r2,0(r3)
        current_sector_modified = true;
  80bc5c:	00800044 	movi	r2,1
  80bc60:	d0a02515 	stw	r2,-32620(gp)
        result = true;
  80bc64:	00800044 	movi	r2,1
  80bc68:	e0bffd15 	stw	r2,-12(fp)
    }
    return result;
  80bc6c:	e0bffd17 	ldw	r2,-12(fp)
}
  80bc70:	dfc00617 	ldw	ra,24(sp)
  80bc74:	df000517 	ldw	fp,20(sp)
  80bc78:	dec00704 	addi	sp,sp,28
  80bc7c:	f800283a 	ret

0080bc80 <Check_for_DOS_FAT>:


bool Check_for_DOS_FAT(int FAT_partition_start_sector)
// This function reads the boot sector for the FAT file system on the SD Card.
// The offset_address should point to the sector on the card where the boot sector is located.
// The sector number is specified either in the master Boot Record, or is 0 by default for a purely FAT
// based file system. If the specified sector contains a FAT boot sector, then this function prints the
// relevant information and returns 1. Otherwise, it returns 0.
{
  80bc80:	defff704 	addi	sp,sp,-36
  80bc84:	dfc00815 	stw	ra,32(sp)
  80bc88:	df000715 	stw	fp,28(sp)
  80bc8c:	dc000615 	stw	r16,24(sp)
  80bc90:	dc400515 	stw	r17,20(sp)
  80bc94:	df000704 	addi	fp,sp,28
  80bc98:	e13ff915 	stw	r4,-28(fp)
	bool result = false;
  80bc9c:	e03ffa15 	stw	zero,-24(fp)
	int counter = 0;
  80bca0:	e03ffb15 	stw	zero,-20(fp)
	short int end;

	result = Read_Sector_Data(0, FAT_partition_start_sector);
  80bca4:	0009883a 	mov	r4,zero
  80bca8:	e17ff917 	ldw	r5,-28(fp)
  80bcac:	080b3dc0 	call	80b3dc <Read_Sector_Data>
  80bcb0:	e0bffa15 	stw	r2,-24(fp)
	end =  (short int) IORD_16DIRECT(device_pointer->base, 0x1fe);
  80bcb4:	d0a02417 	ldw	r2,-32624(gp)
  80bcb8:	10800a17 	ldw	r2,40(r2)
  80bcbc:	10807f84 	addi	r2,r2,510
  80bcc0:	1080002b 	ldhuio	r2,0(r2)
  80bcc4:	e0bffc0d 	sth	r2,-16(fp)
	if (((end & 0x0000ffff) == 0x0000aa55) && (result))
  80bcc8:	e0bffc0f 	ldh	r2,-16(fp)
  80bccc:	10ffffcc 	andi	r3,r2,65535
  80bcd0:	00aa9554 	movui	r2,43605
  80bcd4:	1881531e 	bne	r3,r2,80c224 <Check_for_DOS_FAT+0x5a4>
  80bcd8:	e0bffa17 	ldw	r2,-24(fp)
  80bcdc:	1005003a 	cmpeq	r2,r2,zero
  80bce0:	1001501e 	bne	r2,zero,80c224 <Check_for_DOS_FAT+0x5a4>
	{
		int num_clusters = 0;
  80bce4:	e03ffd15 	stw	zero,-12(fp)

		boot_sector_data.jump_instruction[0] = (char) IORD_8DIRECT(device_pointer->base, 0);
  80bce8:	00c02074 	movhi	r3,129
  80bcec:	18c8a704 	addi	r3,r3,8860
  80bcf0:	d0a02417 	ldw	r2,-32624(gp)
  80bcf4:	10800a17 	ldw	r2,40(r2)
  80bcf8:	10800023 	ldbuio	r2,0(r2)
  80bcfc:	18800005 	stb	r2,0(r3)
		boot_sector_data.jump_instruction[1] = (char) IORD_8DIRECT(device_pointer->base, 1);
  80bd00:	00c02074 	movhi	r3,129
  80bd04:	18c8a704 	addi	r3,r3,8860
  80bd08:	d0a02417 	ldw	r2,-32624(gp)
  80bd0c:	10800a17 	ldw	r2,40(r2)
  80bd10:	10800044 	addi	r2,r2,1
  80bd14:	10800023 	ldbuio	r2,0(r2)
  80bd18:	18800045 	stb	r2,1(r3)
		boot_sector_data.jump_instruction[2] = (char) IORD_8DIRECT(device_pointer->base, 2);
  80bd1c:	00c02074 	movhi	r3,129
  80bd20:	18c8a704 	addi	r3,r3,8860
  80bd24:	d0a02417 	ldw	r2,-32624(gp)
  80bd28:	10800a17 	ldw	r2,40(r2)
  80bd2c:	10800084 	addi	r2,r2,2
  80bd30:	10800023 	ldbuio	r2,0(r2)
  80bd34:	18800085 	stb	r2,2(r3)
		for (counter = 0; counter < 8; counter++)
  80bd38:	e03ffb15 	stw	zero,-20(fp)
  80bd3c:	e0bffb17 	ldw	r2,-20(fp)
  80bd40:	10800208 	cmpgei	r2,r2,8
  80bd44:	10000f1e 	bne	r2,zero,80bd84 <Check_for_DOS_FAT+0x104>
		{
			boot_sector_data.OEM_name[counter] = (char) IORD_8DIRECT(device_pointer->base, 3+counter);
  80bd48:	00c02074 	movhi	r3,129
  80bd4c:	18c8a704 	addi	r3,r3,8860
  80bd50:	e0bffb17 	ldw	r2,-20(fp)
  80bd54:	1889883a 	add	r4,r3,r2
  80bd58:	d0a02417 	ldw	r2,-32624(gp)
  80bd5c:	10c00a17 	ldw	r3,40(r2)
  80bd60:	e0bffb17 	ldw	r2,-20(fp)
  80bd64:	1885883a 	add	r2,r3,r2
  80bd68:	108000c4 	addi	r2,r2,3
  80bd6c:	10800023 	ldbuio	r2,0(r2)
  80bd70:	208000c5 	stb	r2,3(r4)
  80bd74:	e0bffb17 	ldw	r2,-20(fp)
  80bd78:	10800044 	addi	r2,r2,1
  80bd7c:	e0bffb15 	stw	r2,-20(fp)
  80bd80:	003fee06 	br	80bd3c <Check_for_DOS_FAT+0xbc>
		}
		boot_sector_data.sector_size_in_bytes = (((unsigned char) IORD_8DIRECT(device_pointer->base, 12)) << 8 ) | ((char) IORD_8DIRECT(device_pointer->base, 11));
  80bd84:	01402074 	movhi	r5,129
  80bd88:	2948a704 	addi	r5,r5,8860
  80bd8c:	d0a02417 	ldw	r2,-32624(gp)
  80bd90:	10800a17 	ldw	r2,40(r2)
  80bd94:	10800304 	addi	r2,r2,12
  80bd98:	10800023 	ldbuio	r2,0(r2)
  80bd9c:	10803fcc 	andi	r2,r2,255
  80bda0:	1008923a 	slli	r4,r2,8
  80bda4:	d0a02417 	ldw	r2,-32624(gp)
  80bda8:	10800a17 	ldw	r2,40(r2)
  80bdac:	108002c4 	addi	r2,r2,11
  80bdb0:	10800023 	ldbuio	r2,0(r2)
  80bdb4:	10c03fcc 	andi	r3,r2,255
  80bdb8:	18c0201c 	xori	r3,r3,128
  80bdbc:	18ffe004 	addi	r3,r3,-128
  80bdc0:	2005883a 	mov	r2,r4
  80bdc4:	10c4b03a 	or	r2,r2,r3
  80bdc8:	2880030d 	sth	r2,12(r5)
		boot_sector_data.sectors_per_cluster = ((unsigned char) IORD_8DIRECT(device_pointer->base, 13));
  80bdcc:	00c02074 	movhi	r3,129
  80bdd0:	18c8a704 	addi	r3,r3,8860
  80bdd4:	d0a02417 	ldw	r2,-32624(gp)
  80bdd8:	10800a17 	ldw	r2,40(r2)
  80bddc:	10800344 	addi	r2,r2,13
  80bde0:	10800023 	ldbuio	r2,0(r2)
  80bde4:	18800385 	stb	r2,14(r3)
		boot_sector_data.reserved_sectors = ((unsigned short int) IORD_16DIRECT(device_pointer->base, 14));
  80bde8:	00c02074 	movhi	r3,129
  80bdec:	18c8a704 	addi	r3,r3,8860
  80bdf0:	d0a02417 	ldw	r2,-32624(gp)
  80bdf4:	10800a17 	ldw	r2,40(r2)
  80bdf8:	10800384 	addi	r2,r2,14
  80bdfc:	1080002b 	ldhuio	r2,0(r2)
  80be00:	1880040d 	sth	r2,16(r3)
		boot_sector_data.number_of_FATs = ((unsigned char) IORD_8DIRECT(device_pointer->base, 16));
  80be04:	00c02074 	movhi	r3,129
  80be08:	18c8a704 	addi	r3,r3,8860
  80be0c:	d0a02417 	ldw	r2,-32624(gp)
  80be10:	10800a17 	ldw	r2,40(r2)
  80be14:	10800404 	addi	r2,r2,16
  80be18:	10800023 	ldbuio	r2,0(r2)
  80be1c:	18800485 	stb	r2,18(r3)
		boot_sector_data.max_number_of_dir_entires = (((unsigned short int)(((unsigned char) IORD_8DIRECT(device_pointer->base, 18)))) << 8 ) | ((unsigned char) IORD_8DIRECT(device_pointer->base, 17));
  80be20:	01402074 	movhi	r5,129
  80be24:	2948a704 	addi	r5,r5,8860
  80be28:	d0a02417 	ldw	r2,-32624(gp)
  80be2c:	10800a17 	ldw	r2,40(r2)
  80be30:	10800484 	addi	r2,r2,18
  80be34:	10800023 	ldbuio	r2,0(r2)
  80be38:	10803fcc 	andi	r2,r2,255
  80be3c:	1008923a 	slli	r4,r2,8
  80be40:	d0a02417 	ldw	r2,-32624(gp)
  80be44:	10800a17 	ldw	r2,40(r2)
  80be48:	10800444 	addi	r2,r2,17
  80be4c:	10800023 	ldbuio	r2,0(r2)
  80be50:	10c03fcc 	andi	r3,r2,255
  80be54:	2005883a 	mov	r2,r4
  80be58:	10c4b03a 	or	r2,r2,r3
  80be5c:	2880050d 	sth	r2,20(r5)
		boot_sector_data.number_of_sectors_in_partition = (((unsigned short int)(((unsigned char) IORD_8DIRECT(device_pointer->base, 20)))) << 8 ) | ((unsigned char) IORD_8DIRECT(device_pointer->base, 19));
  80be60:	01402074 	movhi	r5,129
  80be64:	2948a704 	addi	r5,r5,8860
  80be68:	d0a02417 	ldw	r2,-32624(gp)
  80be6c:	10800a17 	ldw	r2,40(r2)
  80be70:	10800504 	addi	r2,r2,20
  80be74:	10800023 	ldbuio	r2,0(r2)
  80be78:	10803fcc 	andi	r2,r2,255
  80be7c:	1008923a 	slli	r4,r2,8
  80be80:	d0a02417 	ldw	r2,-32624(gp)
  80be84:	10800a17 	ldw	r2,40(r2)
  80be88:	108004c4 	addi	r2,r2,19
  80be8c:	10800023 	ldbuio	r2,0(r2)
  80be90:	10c03fcc 	andi	r3,r2,255
  80be94:	2005883a 	mov	r2,r4
  80be98:	10c4b03a 	or	r2,r2,r3
  80be9c:	2880058d 	sth	r2,22(r5)
		boot_sector_data.media_descriptor = ((unsigned char) IORD_8DIRECT(device_pointer->base, 21));
  80bea0:	00c02074 	movhi	r3,129
  80bea4:	18c8a704 	addi	r3,r3,8860
  80bea8:	d0a02417 	ldw	r2,-32624(gp)
  80beac:	10800a17 	ldw	r2,40(r2)
  80beb0:	10800544 	addi	r2,r2,21
  80beb4:	10800023 	ldbuio	r2,0(r2)
  80beb8:	18800605 	stb	r2,24(r3)
		boot_sector_data.number_of_sectors_per_table = ((unsigned short int) IORD_16DIRECT(device_pointer->base, 22));
  80bebc:	00c02074 	movhi	r3,129
  80bec0:	18c8a704 	addi	r3,r3,8860
  80bec4:	d0a02417 	ldw	r2,-32624(gp)
  80bec8:	10800a17 	ldw	r2,40(r2)
  80becc:	10800584 	addi	r2,r2,22
  80bed0:	1080002b 	ldhuio	r2,0(r2)
  80bed4:	1880068d 	sth	r2,26(r3)
		boot_sector_data.number_of_sectors_per_track = ((unsigned short int) IORD_16DIRECT(device_pointer->base, 24));
  80bed8:	00c02074 	movhi	r3,129
  80bedc:	18c8a704 	addi	r3,r3,8860
  80bee0:	d0a02417 	ldw	r2,-32624(gp)
  80bee4:	10800a17 	ldw	r2,40(r2)
  80bee8:	10800604 	addi	r2,r2,24
  80beec:	1080002b 	ldhuio	r2,0(r2)
  80bef0:	1880070d 	sth	r2,28(r3)
		boot_sector_data.number_of_heads = ((unsigned short int) IORD_16DIRECT(device_pointer->base, 26));
  80bef4:	00c02074 	movhi	r3,129
  80bef8:	18c8a704 	addi	r3,r3,8860
  80befc:	d0a02417 	ldw	r2,-32624(gp)
  80bf00:	10800a17 	ldw	r2,40(r2)
  80bf04:	10800684 	addi	r2,r2,26
  80bf08:	1080002b 	ldhuio	r2,0(r2)
  80bf0c:	1880078d 	sth	r2,30(r3)
		boot_sector_data.number_of_hidden_sectors = ((unsigned int) IORD_32DIRECT(device_pointer->base, 28));
  80bf10:	00c02074 	movhi	r3,129
  80bf14:	18c8a704 	addi	r3,r3,8860
  80bf18:	d0a02417 	ldw	r2,-32624(gp)
  80bf1c:	10800a17 	ldw	r2,40(r2)
  80bf20:	10800704 	addi	r2,r2,28
  80bf24:	10800037 	ldwio	r2,0(r2)
  80bf28:	18800815 	stw	r2,32(r3)
		boot_sector_data.total_sector_count_if_above_32MB = ((unsigned int) IORD_32DIRECT(device_pointer->base, 32));
  80bf2c:	00c02074 	movhi	r3,129
  80bf30:	18c8a704 	addi	r3,r3,8860
  80bf34:	d0a02417 	ldw	r2,-32624(gp)
  80bf38:	10800a17 	ldw	r2,40(r2)
  80bf3c:	10800804 	addi	r2,r2,32
  80bf40:	10800037 	ldwio	r2,0(r2)
  80bf44:	18800915 	stw	r2,36(r3)
		boot_sector_data.drive_number = ((unsigned char) IORD_8DIRECT(device_pointer->base, 36));
  80bf48:	00c02074 	movhi	r3,129
  80bf4c:	18c8a704 	addi	r3,r3,8860
  80bf50:	d0a02417 	ldw	r2,-32624(gp)
  80bf54:	10800a17 	ldw	r2,40(r2)
  80bf58:	10800904 	addi	r2,r2,36
  80bf5c:	10800023 	ldbuio	r2,0(r2)
  80bf60:	18800a05 	stb	r2,40(r3)
		boot_sector_data.current_head = ((unsigned char) IORD_8DIRECT(device_pointer->base, 37));
  80bf64:	00c02074 	movhi	r3,129
  80bf68:	18c8a704 	addi	r3,r3,8860
  80bf6c:	d0a02417 	ldw	r2,-32624(gp)
  80bf70:	10800a17 	ldw	r2,40(r2)
  80bf74:	10800944 	addi	r2,r2,37
  80bf78:	10800023 	ldbuio	r2,0(r2)
  80bf7c:	18800a45 	stb	r2,41(r3)
		boot_sector_data.boot_signature = ((unsigned char) IORD_8DIRECT(device_pointer->base, 38));
  80bf80:	00c02074 	movhi	r3,129
  80bf84:	18c8a704 	addi	r3,r3,8860
  80bf88:	d0a02417 	ldw	r2,-32624(gp)
  80bf8c:	10800a17 	ldw	r2,40(r2)
  80bf90:	10800984 	addi	r2,r2,38
  80bf94:	10800023 	ldbuio	r2,0(r2)
  80bf98:	18800a85 	stb	r2,42(r3)
		boot_sector_data.first_fat_sector_offset = boot_sector_data.reserved_sectors;
  80bf9c:	00c02074 	movhi	r3,129
  80bfa0:	18c8a704 	addi	r3,r3,8860
  80bfa4:	00802074 	movhi	r2,129
  80bfa8:	1088a704 	addi	r2,r2,8860
  80bfac:	1080040b 	ldhu	r2,16(r2)
  80bfb0:	18801115 	stw	r2,68(r3)
		boot_sector_data.second_fat_sector_offset = boot_sector_data.first_fat_sector_offset + boot_sector_data.number_of_sectors_per_table;
  80bfb4:	01402074 	movhi	r5,129
  80bfb8:	2948a704 	addi	r5,r5,8860
  80bfbc:	01002074 	movhi	r4,129
  80bfc0:	2108a704 	addi	r4,r4,8860
  80bfc4:	00802074 	movhi	r2,129
  80bfc8:	1088a704 	addi	r2,r2,8860
  80bfcc:	10c0068b 	ldhu	r3,26(r2)
  80bfd0:	20801117 	ldw	r2,68(r4)
  80bfd4:	10c5883a 	add	r2,r2,r3
  80bfd8:	28801215 	stw	r2,72(r5)
		boot_sector_data.root_directory_sector_offset = boot_sector_data.second_fat_sector_offset + boot_sector_data.number_of_sectors_per_table;
  80bfdc:	01402074 	movhi	r5,129
  80bfe0:	2948a704 	addi	r5,r5,8860
  80bfe4:	01002074 	movhi	r4,129
  80bfe8:	2108a704 	addi	r4,r4,8860
  80bfec:	00802074 	movhi	r2,129
  80bff0:	1088a704 	addi	r2,r2,8860
  80bff4:	10c0068b 	ldhu	r3,26(r2)
  80bff8:	20801217 	ldw	r2,72(r4)
  80bffc:	10c5883a 	add	r2,r2,r3
  80c000:	28801315 	stw	r2,76(r5)
		boot_sector_data.data_sector_offset = boot_sector_data.root_directory_sector_offset + (32*boot_sector_data.max_number_of_dir_entires / boot_sector_data.sector_size_in_bytes);
  80c004:	04402074 	movhi	r17,129
  80c008:	8c48a704 	addi	r17,r17,8860
  80c00c:	04002074 	movhi	r16,129
  80c010:	8408a704 	addi	r16,r16,8860
  80c014:	00802074 	movhi	r2,129
  80c018:	1088a704 	addi	r2,r2,8860
  80c01c:	1080050b 	ldhu	r2,20(r2)
  80c020:	1008917a 	slli	r4,r2,5
  80c024:	00802074 	movhi	r2,129
  80c028:	1088a704 	addi	r2,r2,8860
  80c02c:	1140030b 	ldhu	r5,12(r2)
  80c030:	08006e80 	call	8006e8 <__divsi3>
  80c034:	1007883a 	mov	r3,r2
  80c038:	80801317 	ldw	r2,76(r16)
  80c03c:	10c5883a 	add	r2,r2,r3
  80c040:	88801415 	stw	r2,80(r17)

		if (boot_sector_data.number_of_sectors_in_partition > 0)
  80c044:	00802074 	movhi	r2,129
  80c048:	1088a704 	addi	r2,r2,8860
  80c04c:	1080058b 	ldhu	r2,22(r2)
  80c050:	1005003a 	cmpeq	r2,r2,zero
  80c054:	1000091e 	bne	r2,zero,80c07c <Check_for_DOS_FAT+0x3fc>
		{
			num_clusters = (boot_sector_data.number_of_sectors_in_partition / boot_sector_data.sectors_per_cluster);
  80c058:	00802074 	movhi	r2,129
  80c05c:	1088a704 	addi	r2,r2,8860
  80c060:	1100058b 	ldhu	r4,22(r2)
  80c064:	00802074 	movhi	r2,129
  80c068:	1088a704 	addi	r2,r2,8860
  80c06c:	11400383 	ldbu	r5,14(r2)
  80c070:	08006e80 	call	8006e8 <__divsi3>
  80c074:	e0bffd15 	stw	r2,-12(fp)
  80c078:	00000806 	br	80c09c <Check_for_DOS_FAT+0x41c>
		}
		else
		{
			num_clusters = (boot_sector_data.total_sector_count_if_above_32MB / boot_sector_data.sectors_per_cluster);
  80c07c:	00c02074 	movhi	r3,129
  80c080:	18c8a704 	addi	r3,r3,8860
  80c084:	00802074 	movhi	r2,129
  80c088:	1088a704 	addi	r2,r2,8860
  80c08c:	11400383 	ldbu	r5,14(r2)
  80c090:	19000917 	ldw	r4,36(r3)
  80c094:	08007840 	call	800784 <__udivsi3>
  80c098:	e0bffd15 	stw	r2,-12(fp)
		}
		if (num_clusters < 4087)
  80c09c:	e0bffd17 	ldw	r2,-12(fp)
  80c0a0:	1083fdc8 	cmpgei	r2,r2,4087
  80c0a4:	1000051e 	bne	r2,zero,80c0bc <Check_for_DOS_FAT+0x43c>
		{
			boot_sector_data.bits_for_cluster_index = 12;
  80c0a8:	00c02074 	movhi	r3,129
  80c0ac:	18c8a704 	addi	r3,r3,8860
  80c0b0:	00800304 	movi	r2,12
  80c0b4:	18801085 	stb	r2,66(r3)
  80c0b8:	00000c06 	br	80c0ec <Check_for_DOS_FAT+0x46c>
		}
		else if (num_clusters <= 65517)
  80c0bc:	e0fffd17 	ldw	r3,-12(fp)
  80c0c0:	00bffb54 	movui	r2,65517
  80c0c4:	10c00516 	blt	r2,r3,80c0dc <Check_for_DOS_FAT+0x45c>
		{
			boot_sector_data.bits_for_cluster_index = 16;
  80c0c8:	00c02074 	movhi	r3,129
  80c0cc:	18c8a704 	addi	r3,r3,8860
  80c0d0:	00800404 	movi	r2,16
  80c0d4:	18801085 	stb	r2,66(r3)
  80c0d8:	00000406 	br	80c0ec <Check_for_DOS_FAT+0x46c>
		}
		else
		{
			boot_sector_data.bits_for_cluster_index = 32;
  80c0dc:	00c02074 	movhi	r3,129
  80c0e0:	18c8a704 	addi	r3,r3,8860
  80c0e4:	00800804 	movi	r2,32
  80c0e8:	18801085 	stb	r2,66(r3)
		}

		for (counter = 0; counter < 4; counter++)
  80c0ec:	e03ffb15 	stw	zero,-20(fp)
  80c0f0:	e0bffb17 	ldw	r2,-20(fp)
  80c0f4:	10800108 	cmpgei	r2,r2,4
  80c0f8:	1000101e 	bne	r2,zero,80c13c <Check_for_DOS_FAT+0x4bc>
		{
			boot_sector_data.volume_id[counter] = ((char) IORD_8DIRECT(device_pointer->base, 39+counter));
  80c0fc:	00c02074 	movhi	r3,129
  80c100:	18c8a704 	addi	r3,r3,8860
  80c104:	e0bffb17 	ldw	r2,-20(fp)
  80c108:	1885883a 	add	r2,r3,r2
  80c10c:	11000a04 	addi	r4,r2,40
  80c110:	d0a02417 	ldw	r2,-32624(gp)
  80c114:	10c00a17 	ldw	r3,40(r2)
  80c118:	e0bffb17 	ldw	r2,-20(fp)
  80c11c:	1885883a 	add	r2,r3,r2
  80c120:	108009c4 	addi	r2,r2,39
  80c124:	10800023 	ldbuio	r2,0(r2)
  80c128:	208000c5 	stb	r2,3(r4)
  80c12c:	e0bffb17 	ldw	r2,-20(fp)
  80c130:	10800044 	addi	r2,r2,1
  80c134:	e0bffb15 	stw	r2,-20(fp)
  80c138:	003fed06 	br	80c0f0 <Check_for_DOS_FAT+0x470>
		}
		for (counter = 0; counter < 11; counter++)
  80c13c:	e03ffb15 	stw	zero,-20(fp)
  80c140:	e0bffb17 	ldw	r2,-20(fp)
  80c144:	108002c8 	cmpgei	r2,r2,11
  80c148:	1000101e 	bne	r2,zero,80c18c <Check_for_DOS_FAT+0x50c>
		{
			boot_sector_data.volume_label[counter] = ((char) IORD_8DIRECT(device_pointer->base, 43+counter));
  80c14c:	00c02074 	movhi	r3,129
  80c150:	18c8a704 	addi	r3,r3,8860
  80c154:	e0bffb17 	ldw	r2,-20(fp)
  80c158:	1885883a 	add	r2,r3,r2
  80c15c:	11000b04 	addi	r4,r2,44
  80c160:	d0a02417 	ldw	r2,-32624(gp)
  80c164:	10c00a17 	ldw	r3,40(r2)
  80c168:	e0bffb17 	ldw	r2,-20(fp)
  80c16c:	1885883a 	add	r2,r3,r2
  80c170:	10800ac4 	addi	r2,r2,43
  80c174:	10800023 	ldbuio	r2,0(r2)
  80c178:	208000c5 	stb	r2,3(r4)
  80c17c:	e0bffb17 	ldw	r2,-20(fp)
  80c180:	10800044 	addi	r2,r2,1
  80c184:	e0bffb15 	stw	r2,-20(fp)
  80c188:	003fed06 	br	80c140 <Check_for_DOS_FAT+0x4c0>
		}
		for (counter = 0; counter < 8; counter++)
  80c18c:	e03ffb15 	stw	zero,-20(fp)
  80c190:	e0bffb17 	ldw	r2,-20(fp)
  80c194:	10800208 	cmpgei	r2,r2,8
  80c198:	1000101e 	bne	r2,zero,80c1dc <Check_for_DOS_FAT+0x55c>
		{
			boot_sector_data.file_system_type[counter] = ((char) IORD_8DIRECT(device_pointer->base, 54+counter));
  80c19c:	00c02074 	movhi	r3,129
  80c1a0:	18c8a704 	addi	r3,r3,8860
  80c1a4:	e0bffb17 	ldw	r2,-20(fp)
  80c1a8:	1885883a 	add	r2,r3,r2
  80c1ac:	11000e04 	addi	r4,r2,56
  80c1b0:	d0a02417 	ldw	r2,-32624(gp)
  80c1b4:	10c00a17 	ldw	r3,40(r2)
  80c1b8:	e0bffb17 	ldw	r2,-20(fp)
  80c1bc:	1885883a 	add	r2,r3,r2
  80c1c0:	10800d84 	addi	r2,r2,54
  80c1c4:	10800023 	ldbuio	r2,0(r2)
  80c1c8:	20800085 	stb	r2,2(r4)
  80c1cc:	e0bffb17 	ldw	r2,-20(fp)
  80c1d0:	10800044 	addi	r2,r2,1
  80c1d4:	e0bffb15 	stw	r2,-20(fp)
  80c1d8:	003fed06 	br	80c190 <Check_for_DOS_FAT+0x510>
		}
		// Clear file records
		for (counter = 0; counter < MAX_FILES_OPENED; counter++)
  80c1dc:	e03ffb15 	stw	zero,-20(fp)
  80c1e0:	e0bffb17 	ldw	r2,-20(fp)
  80c1e4:	10800508 	cmpgei	r2,r2,20
  80c1e8:	10000b1e 	bne	r2,zero,80c218 <Check_for_DOS_FAT+0x598>
		{
			active_files[counter].in_use = false;
  80c1ec:	00c02074 	movhi	r3,129
  80c1f0:	18c8bc04 	addi	r3,r3,8944
  80c1f4:	e0bffb17 	ldw	r2,-20(fp)
  80c1f8:	100491ba 	slli	r2,r2,6
  80c1fc:	10c5883a 	add	r2,r2,r3
  80c200:	10800f04 	addi	r2,r2,60
  80c204:	10000015 	stw	zero,0(r2)
  80c208:	e0bffb17 	ldw	r2,-20(fp)
  80c20c:	10800044 	addi	r2,r2,1
  80c210:	e0bffb15 	stw	r2,-20(fp)
  80c214:	003ff206 	br	80c1e0 <Check_for_DOS_FAT+0x560>
		}
		result = true;
  80c218:	00800044 	movi	r2,1
  80c21c:	e0bffa15 	stw	r2,-24(fp)
  80c220:	00000106 	br	80c228 <Check_for_DOS_FAT+0x5a8>
	}
    else
    {
        result = false;
  80c224:	e03ffa15 	stw	zero,-24(fp)
    }
	return result;
  80c228:	e0bffa17 	ldw	r2,-24(fp)
}
  80c22c:	dfc00817 	ldw	ra,32(sp)
  80c230:	df000717 	ldw	fp,28(sp)
  80c234:	dc000617 	ldw	r16,24(sp)
  80c238:	dc400517 	ldw	r17,20(sp)
  80c23c:	dec00904 	addi	sp,sp,36
  80c240:	f800283a 	ret

0080c244 <Look_for_FAT16>:


bool Look_for_FAT16(void)
// Read the SD card to determine if it contains a FAT16 partition.
{
  80c244:	defffc04 	addi	sp,sp,-16
  80c248:	dfc00315 	stw	ra,12(sp)
  80c24c:	df000215 	stw	fp,8(sp)
  80c250:	df000204 	addi	fp,sp,8
	bool result = false;
  80c254:	e03ffe15 	stw	zero,-8(fp)

	if (alt_up_sd_card_is_Present())
  80c258:	080dc700 	call	80dc70 <alt_up_sd_card_is_Present>
  80c25c:	1005003a 	cmpeq	r2,r2,zero
  80c260:	10002b1e 	bne	r2,zero,80c310 <Look_for_FAT16+0xcc>
	{
		short int csd_file_format = *CSD_register_w0;
  80c264:	d0a01e17 	ldw	r2,-32648(gp)
  80c268:	1080000b 	ldhu	r2,0(r2)
  80c26c:	e0bfff0d 	sth	r2,-4(fp)

		fat_partition_offset_in_512_byte_sectors = 0;
  80c270:	d0202215 	stw	zero,-32632(gp)
		fat_partition_size_in_512_byte_sectors = 0;
  80c274:	d0202315 	stw	zero,-32628(gp)

		if (((csd_file_format & 0x8000) == 0) && ((csd_file_format & 0x0c00) != 0x0c00))
  80c278:	e0bfff0f 	ldh	r2,-4(fp)
  80c27c:	1004803a 	cmplt	r2,r2,zero
  80c280:	1000231e 	bne	r2,zero,80c310 <Look_for_FAT16+0xcc>
  80c284:	e0bfff0b 	ldhu	r2,-4(fp)
  80c288:	1083000c 	andi	r2,r2,3072
  80c28c:	10830020 	cmpeqi	r2,r2,3072
  80c290:	10001f1e 	bne	r2,zero,80c310 <Look_for_FAT16+0xcc>
		{
			if ((csd_file_format & 0x0c00) == 0x0400)
  80c294:	e0bfff0b 	ldhu	r2,-4(fp)
  80c298:	1083000c 	andi	r2,r2,3072
  80c29c:	10810018 	cmpnei	r2,r2,1024
  80c2a0:	1000031e 	bne	r2,zero,80c2b0 <Look_for_FAT16+0x6c>
			{
				/* SD Card contains files stored in a DOS FAT (floppy like) file format, without a partition table */
				result = Check_for_DOS_FAT(0);
  80c2a4:	0009883a 	mov	r4,zero
  80c2a8:	080bc800 	call	80bc80 <Check_for_DOS_FAT>
  80c2ac:	e0bffe15 	stw	r2,-8(fp)
			}
			if ((csd_file_format & 0x0c00) == 0x0000)
  80c2b0:	e0bfff0b 	ldhu	r2,-4(fp)
  80c2b4:	1083000c 	andi	r2,r2,3072
  80c2b8:	1004c03a 	cmpne	r2,r2,zero
  80c2bc:	1000061e 	bne	r2,zero,80c2d8 <Look_for_FAT16+0x94>
			{
				/* SD Card contains files stored in a Hard disk-like file format that contains a partition table */
				if (Check_for_Master_Boot_Record())
  80c2c0:	080b6540 	call	80b654 <Check_for_Master_Boot_Record>
  80c2c4:	1005003a 	cmpeq	r2,r2,zero
  80c2c8:	1000031e 	bne	r2,zero,80c2d8 <Look_for_FAT16+0x94>
				{
					result = Check_for_DOS_FAT(fat_partition_offset_in_512_byte_sectors);
  80c2cc:	d1202217 	ldw	r4,-32632(gp)
  80c2d0:	080bc800 	call	80bc80 <Check_for_DOS_FAT>
  80c2d4:	e0bffe15 	stw	r2,-8(fp)
				}
			}
			if (result == true)
  80c2d8:	e0bffe17 	ldw	r2,-8(fp)
  80c2dc:	10800058 	cmpnei	r2,r2,1
  80c2e0:	10000b1e 	bne	r2,zero,80c310 <Look_for_FAT16+0xcc>
			{
				// Accept only FAT16, not FAT12.
				if (boot_sector_data.bits_for_cluster_index != 16)
  80c2e4:	00802074 	movhi	r2,129
  80c2e8:	1088a704 	addi	r2,r2,8860
  80c2ec:	10801083 	ldbu	r2,66(r2)
  80c2f0:	10800420 	cmpeqi	r2,r2,16
  80c2f4:	1000021e 	bne	r2,zero,80c300 <Look_for_FAT16+0xbc>
				{
					result = false;
  80c2f8:	e03ffe15 	stw	zero,-8(fp)
  80c2fc:	00000406 	br	80c310 <Look_for_FAT16+0xcc>
				}
				else
				{
					fat_partition_size_in_512_byte_sectors = boot_sector_data.number_of_sectors_in_partition;
  80c300:	00802074 	movhi	r2,129
  80c304:	1088a704 	addi	r2,r2,8860
  80c308:	1080058b 	ldhu	r2,22(r2)
  80c30c:	d0a02315 	stw	r2,-32628(gp)
				}
			}
		}
	}
	return result;
  80c310:	e0bffe17 	ldw	r2,-8(fp)
}
  80c314:	dfc00317 	ldw	ra,12(sp)
  80c318:	df000217 	ldw	fp,8(sp)
  80c31c:	dec00404 	addi	sp,sp,16
  80c320:	f800283a 	ret

0080c324 <filename_to_upper_case>:


void filename_to_upper_case(char *file_name)
// Change file name to upper case.
{
  80c324:	defffb04 	addi	sp,sp,-20
  80c328:	dfc00415 	stw	ra,16(sp)
  80c32c:	df000315 	stw	fp,12(sp)
  80c330:	df000304 	addi	fp,sp,12
  80c334:	e13ffd15 	stw	r4,-12(fp)
    int index;
    int length = strlen(file_name);
  80c338:	e13ffd17 	ldw	r4,-12(fp)
  80c33c:	08070bc0 	call	8070bc <strlen>
  80c340:	e0bfff15 	stw	r2,-4(fp)

    for (index = 0; index < length; index++)
  80c344:	e03ffe15 	stw	zero,-8(fp)
  80c348:	e0fffe17 	ldw	r3,-8(fp)
  80c34c:	e0bfff17 	ldw	r2,-4(fp)
  80c350:	1880190e 	bge	r3,r2,80c3b8 <filename_to_upper_case+0x94>
    {
        if ((file_name[index] >= 'a') && (file_name[index] <= 'z'))
  80c354:	e0fffd17 	ldw	r3,-12(fp)
  80c358:	e0bffe17 	ldw	r2,-8(fp)
  80c35c:	1885883a 	add	r2,r3,r2
  80c360:	10800007 	ldb	r2,0(r2)
  80c364:	10801850 	cmplti	r2,r2,97
  80c368:	10000f1e 	bne	r2,zero,80c3a8 <filename_to_upper_case+0x84>
  80c36c:	e0fffd17 	ldw	r3,-12(fp)
  80c370:	e0bffe17 	ldw	r2,-8(fp)
  80c374:	1885883a 	add	r2,r3,r2
  80c378:	10800007 	ldb	r2,0(r2)
  80c37c:	10801ec8 	cmpgei	r2,r2,123
  80c380:	1000091e 	bne	r2,zero,80c3a8 <filename_to_upper_case+0x84>
        {
            file_name[index] = (file_name[index] - 'a') + 'A';
  80c384:	e0fffd17 	ldw	r3,-12(fp)
  80c388:	e0bffe17 	ldw	r2,-8(fp)
  80c38c:	1889883a 	add	r4,r3,r2
  80c390:	e0fffd17 	ldw	r3,-12(fp)
  80c394:	e0bffe17 	ldw	r2,-8(fp)
  80c398:	1885883a 	add	r2,r3,r2
  80c39c:	10800003 	ldbu	r2,0(r2)
  80c3a0:	10bff804 	addi	r2,r2,-32
  80c3a4:	20800005 	stb	r2,0(r4)
  80c3a8:	e0bffe17 	ldw	r2,-8(fp)
  80c3ac:	10800044 	addi	r2,r2,1
  80c3b0:	e0bffe15 	stw	r2,-8(fp)
  80c3b4:	003fe406 	br	80c348 <filename_to_upper_case+0x24>
        }
    }
}
  80c3b8:	dfc00417 	ldw	ra,16(sp)
  80c3bc:	df000317 	ldw	fp,12(sp)
  80c3c0:	dec00504 	addi	sp,sp,20
  80c3c4:	f800283a 	ret

0080c3c8 <check_file_name_for_FAT16_compliance>:


bool check_file_name_for_FAT16_compliance(char *file_name)
// Check if the file complies with FAT16 naming convention.
{
  80c3c8:	defff804 	addi	sp,sp,-32
  80c3cc:	dfc00715 	stw	ra,28(sp)
  80c3d0:	df000615 	stw	fp,24(sp)
  80c3d4:	df000604 	addi	fp,sp,24
  80c3d8:	e13ffa15 	stw	r4,-24(fp)
    int length = strlen(file_name);
  80c3dc:	e13ffa17 	ldw	r4,-24(fp)
  80c3e0:	08070bc0 	call	8070bc <strlen>
  80c3e4:	e0bffb15 	stw	r2,-20(fp)
    int index;
    int last_dir_break_position = -1;
  80c3e8:	00bfffc4 	movi	r2,-1
  80c3ec:	e0bffd15 	stw	r2,-12(fp)
    int last_period = -1;
  80c3f0:	00bfffc4 	movi	r2,-1
  80c3f4:	e0bffe15 	stw	r2,-8(fp)
    bool result = true;
  80c3f8:	00800044 	movi	r2,1
  80c3fc:	e0bfff15 	stw	r2,-4(fp)

    for(index = 0; index < length; index++)
  80c400:	e03ffc15 	stw	zero,-16(fp)
  80c404:	e0fffc17 	ldw	r3,-16(fp)
  80c408:	e0bffb17 	ldw	r2,-20(fp)
  80c40c:	1880550e 	bge	r3,r2,80c564 <check_file_name_for_FAT16_compliance+0x19c>
    {
        if ((file_name[index] == ' ') ||
  80c410:	e0fffa17 	ldw	r3,-24(fp)
  80c414:	e0bffc17 	ldw	r2,-16(fp)
  80c418:	1885883a 	add	r2,r3,r2
  80c41c:	10800007 	ldb	r2,0(r2)
  80c420:	10800820 	cmpeqi	r2,r2,32
  80c424:	1000301e 	bne	r2,zero,80c4e8 <check_file_name_for_FAT16_compliance+0x120>
  80c428:	e0bffc17 	ldw	r2,-16(fp)
  80c42c:	10ffffc4 	addi	r3,r2,-1
  80c430:	e0bffd17 	ldw	r2,-12(fp)
  80c434:	18800c1e 	bne	r3,r2,80c468 <check_file_name_for_FAT16_compliance+0xa0>
  80c438:	e0fffa17 	ldw	r3,-24(fp)
  80c43c:	e0bffc17 	ldw	r2,-16(fp)
  80c440:	1885883a 	add	r2,r3,r2
  80c444:	10800007 	ldb	r2,0(r2)
  80c448:	10801720 	cmpeqi	r2,r2,92
  80c44c:	1000261e 	bne	r2,zero,80c4e8 <check_file_name_for_FAT16_compliance+0x120>
  80c450:	e0fffa17 	ldw	r3,-24(fp)
  80c454:	e0bffc17 	ldw	r2,-16(fp)
  80c458:	1885883a 	add	r2,r3,r2
  80c45c:	10800007 	ldb	r2,0(r2)
  80c460:	10800be0 	cmpeqi	r2,r2,47
  80c464:	1000201e 	bne	r2,zero,80c4e8 <check_file_name_for_FAT16_compliance+0x120>
  80c468:	e0fffc17 	ldw	r3,-16(fp)
  80c46c:	e0bffe17 	ldw	r2,-8(fp)
  80c470:	1885c83a 	sub	r2,r3,r2
  80c474:	10800258 	cmpnei	r2,r2,9
  80c478:	1000061e 	bne	r2,zero,80c494 <check_file_name_for_FAT16_compliance+0xcc>
  80c47c:	e0fffa17 	ldw	r3,-24(fp)
  80c480:	e0bffc17 	ldw	r2,-16(fp)
  80c484:	1885883a 	add	r2,r3,r2
  80c488:	10800007 	ldb	r2,0(r2)
  80c48c:	10800b98 	cmpnei	r2,r2,46
  80c490:	1000151e 	bne	r2,zero,80c4e8 <check_file_name_for_FAT16_compliance+0x120>
  80c494:	e0fffd17 	ldw	r3,-12(fp)
  80c498:	e0bffe17 	ldw	r2,-8(fp)
  80c49c:	18801426 	beq	r3,r2,80c4f0 <check_file_name_for_FAT16_compliance+0x128>
  80c4a0:	e0fffc17 	ldw	r3,-16(fp)
  80c4a4:	e0bffe17 	ldw	r2,-8(fp)
  80c4a8:	1885c83a 	sub	r2,r3,r2
  80c4ac:	10800110 	cmplti	r2,r2,4
  80c4b0:	10000f1e 	bne	r2,zero,80c4f0 <check_file_name_for_FAT16_compliance+0x128>
  80c4b4:	e0fffa17 	ldw	r3,-24(fp)
  80c4b8:	e0bffc17 	ldw	r2,-16(fp)
  80c4bc:	1885883a 	add	r2,r3,r2
  80c4c0:	10800007 	ldb	r2,0(r2)
  80c4c4:	10801720 	cmpeqi	r2,r2,92
  80c4c8:	1000091e 	bne	r2,zero,80c4f0 <check_file_name_for_FAT16_compliance+0x128>
  80c4cc:	e0fffa17 	ldw	r3,-24(fp)
  80c4d0:	e0bffc17 	ldw	r2,-16(fp)
  80c4d4:	1885883a 	add	r2,r3,r2
  80c4d8:	10800007 	ldb	r2,0(r2)
  80c4dc:	10800bd8 	cmpnei	r2,r2,47
  80c4e0:	1000011e 	bne	r2,zero,80c4e8 <check_file_name_for_FAT16_compliance+0x120>
  80c4e4:	00000206 	br	80c4f0 <check_file_name_for_FAT16_compliance+0x128>
            ((last_dir_break_position == (index - 1)) && ((file_name[index] == '\\') || (file_name[index] == '/'))) ||
            ((index - last_period == 9) && (file_name[index] != '.')) ||
            ((last_dir_break_position != last_period) && (index - last_period > 3) &&
             (file_name[index] != '\\') && (file_name[index] != '/'))
           )
        {
            result = false;
  80c4e8:	e03fff15 	stw	zero,-4(fp)
            break;
  80c4ec:	00001d06 	br	80c564 <check_file_name_for_FAT16_compliance+0x19c>
        }
        if ((file_name[index] == '\\') || (file_name[index] == '/'))
  80c4f0:	e0fffa17 	ldw	r3,-24(fp)
  80c4f4:	e0bffc17 	ldw	r2,-16(fp)
  80c4f8:	1885883a 	add	r2,r3,r2
  80c4fc:	10800007 	ldb	r2,0(r2)
  80c500:	10801720 	cmpeqi	r2,r2,92
  80c504:	1000071e 	bne	r2,zero,80c524 <check_file_name_for_FAT16_compliance+0x15c>
  80c508:	e0fffa17 	ldw	r3,-24(fp)
  80c50c:	e0bffc17 	ldw	r2,-16(fp)
  80c510:	1885883a 	add	r2,r3,r2
  80c514:	10800007 	ldb	r2,0(r2)
  80c518:	10800be0 	cmpeqi	r2,r2,47
  80c51c:	1000011e 	bne	r2,zero,80c524 <check_file_name_for_FAT16_compliance+0x15c>
  80c520:	00000406 	br	80c534 <check_file_name_for_FAT16_compliance+0x16c>
        {
            last_period = index;
  80c524:	e0bffc17 	ldw	r2,-16(fp)
  80c528:	e0bffe15 	stw	r2,-8(fp)
            last_dir_break_position = index;
  80c52c:	e0bffc17 	ldw	r2,-16(fp)
  80c530:	e0bffd15 	stw	r2,-12(fp)
        }
        if (file_name[index] == '.')
  80c534:	e0fffa17 	ldw	r3,-24(fp)
  80c538:	e0bffc17 	ldw	r2,-16(fp)
  80c53c:	1885883a 	add	r2,r3,r2
  80c540:	10800007 	ldb	r2,0(r2)
  80c544:	10800b98 	cmpnei	r2,r2,46
  80c548:	1000021e 	bne	r2,zero,80c554 <check_file_name_for_FAT16_compliance+0x18c>
        {
            last_period = index;
  80c54c:	e0bffc17 	ldw	r2,-16(fp)
  80c550:	e0bffe15 	stw	r2,-8(fp)
  80c554:	e0bffc17 	ldw	r2,-16(fp)
  80c558:	10800044 	addi	r2,r2,1
  80c55c:	e0bffc15 	stw	r2,-16(fp)
  80c560:	003fa806 	br	80c404 <check_file_name_for_FAT16_compliance+0x3c>
        }
    }
    if ((file_name[length-1] == '\\') || (file_name[length-1] == '/'))
  80c564:	e0fffa17 	ldw	r3,-24(fp)
  80c568:	e0bffb17 	ldw	r2,-20(fp)
  80c56c:	1885883a 	add	r2,r3,r2
  80c570:	10bfffc4 	addi	r2,r2,-1
  80c574:	10800007 	ldb	r2,0(r2)
  80c578:	10801720 	cmpeqi	r2,r2,92
  80c57c:	1000081e 	bne	r2,zero,80c5a0 <check_file_name_for_FAT16_compliance+0x1d8>
  80c580:	e0fffa17 	ldw	r3,-24(fp)
  80c584:	e0bffb17 	ldw	r2,-20(fp)
  80c588:	1885883a 	add	r2,r3,r2
  80c58c:	10bfffc4 	addi	r2,r2,-1
  80c590:	10800007 	ldb	r2,0(r2)
  80c594:	10800be0 	cmpeqi	r2,r2,47
  80c598:	1000011e 	bne	r2,zero,80c5a0 <check_file_name_for_FAT16_compliance+0x1d8>
  80c59c:	00000106 	br	80c5a4 <check_file_name_for_FAT16_compliance+0x1dc>
    {
        result = false;
  80c5a0:	e03fff15 	stw	zero,-4(fp)
    }
    return result;
  80c5a4:	e0bfff17 	ldw	r2,-4(fp)
}
  80c5a8:	dfc00717 	ldw	ra,28(sp)
  80c5ac:	df000617 	ldw	fp,24(sp)
  80c5b0:	dec00804 	addi	sp,sp,32
  80c5b4:	f800283a 	ret

0080c5b8 <get_dir_divider_location>:


int get_dir_divider_location(char *name)
// Find a directory divider location.
{
  80c5b8:	defffb04 	addi	sp,sp,-20
  80c5bc:	dfc00415 	stw	ra,16(sp)
  80c5c0:	df000315 	stw	fp,12(sp)
  80c5c4:	df000304 	addi	fp,sp,12
  80c5c8:	e13ffd15 	stw	r4,-12(fp)
    int index = 0;
  80c5cc:	e03ffe15 	stw	zero,-8(fp)
    int length = strlen(name);
  80c5d0:	e13ffd17 	ldw	r4,-12(fp)
  80c5d4:	08070bc0 	call	8070bc <strlen>
  80c5d8:	e0bfff15 	stw	r2,-4(fp)

    for(index = 0; index < length; index++)
  80c5dc:	e03ffe15 	stw	zero,-8(fp)
  80c5e0:	e0fffe17 	ldw	r3,-8(fp)
  80c5e4:	e0bfff17 	ldw	r2,-4(fp)
  80c5e8:	1880100e 	bge	r3,r2,80c62c <get_dir_divider_location+0x74>
    {
        if ((name[index] == '\\') || (name[index] == '/'))
  80c5ec:	e0fffd17 	ldw	r3,-12(fp)
  80c5f0:	e0bffe17 	ldw	r2,-8(fp)
  80c5f4:	1885883a 	add	r2,r3,r2
  80c5f8:	10800007 	ldb	r2,0(r2)
  80c5fc:	10801720 	cmpeqi	r2,r2,92
  80c600:	10000a1e 	bne	r2,zero,80c62c <get_dir_divider_location+0x74>
  80c604:	e0fffd17 	ldw	r3,-12(fp)
  80c608:	e0bffe17 	ldw	r2,-8(fp)
  80c60c:	1885883a 	add	r2,r3,r2
  80c610:	10800007 	ldb	r2,0(r2)
  80c614:	10800be0 	cmpeqi	r2,r2,47
  80c618:	1000041e 	bne	r2,zero,80c62c <get_dir_divider_location+0x74>
  80c61c:	e0bffe17 	ldw	r2,-8(fp)
  80c620:	10800044 	addi	r2,r2,1
  80c624:	e0bffe15 	stw	r2,-8(fp)
  80c628:	003fed06 	br	80c5e0 <get_dir_divider_location+0x28>
        {
            break;
        }
    }

    if (index == length)
  80c62c:	e0fffe17 	ldw	r3,-8(fp)
  80c630:	e0bfff17 	ldw	r2,-4(fp)
  80c634:	1880021e 	bne	r3,r2,80c640 <get_dir_divider_location+0x88>
    {
        index = -1;
  80c638:	00bfffc4 	movi	r2,-1
  80c63c:	e0bffe15 	stw	r2,-8(fp)
    }

    return index;
  80c640:	e0bffe17 	ldw	r2,-8(fp)
}
  80c644:	dfc00417 	ldw	ra,16(sp)
  80c648:	df000317 	ldw	fp,12(sp)
  80c64c:	dec00504 	addi	sp,sp,20
  80c650:	f800283a 	ret

0080c654 <match_file_record_to_name_ext>:


bool match_file_record_to_name_ext(t_file_record *file_record, char *name, char *extension)
/* See if the given name and extension match the file record. Return true if this is so, false otherwise. */
{
  80c654:	defff804 	addi	sp,sp,-32
  80c658:	df000715 	stw	fp,28(sp)
  80c65c:	df000704 	addi	fp,sp,28
  80c660:	e13ff915 	stw	r4,-28(fp)
  80c664:	e17ffa15 	stw	r5,-24(fp)
  80c668:	e1bffb15 	stw	r6,-20(fp)
    bool match = true;
  80c66c:	00800044 	movi	r2,1
  80c670:	e0bffc15 	stw	r2,-16(fp)
	int index;

    for (index = 0; index < 8; index++)
  80c674:	e03ffd15 	stw	zero,-12(fp)
  80c678:	e0bffd17 	ldw	r2,-12(fp)
  80c67c:	10800208 	cmpgei	r2,r2,8
  80c680:	10003f1e 	bne	r2,zero,80c780 <match_file_record_to_name_ext+0x12c>
    {
        if (CHAR_TO_UPPER(file_record->name[index]) != CHAR_TO_UPPER(name[index]))
  80c684:	e0fff917 	ldw	r3,-28(fp)
  80c688:	e0bffd17 	ldw	r2,-12(fp)
  80c68c:	1885883a 	add	r2,r3,r2
  80c690:	10800003 	ldbu	r2,0(r2)
  80c694:	10801870 	cmpltui	r2,r2,97
  80c698:	1000101e 	bne	r2,zero,80c6dc <match_file_record_to_name_ext+0x88>
  80c69c:	e0fff917 	ldw	r3,-28(fp)
  80c6a0:	e0bffd17 	ldw	r2,-12(fp)
  80c6a4:	1885883a 	add	r2,r3,r2
  80c6a8:	10800003 	ldbu	r2,0(r2)
  80c6ac:	10801ee8 	cmpgeui	r2,r2,123
  80c6b0:	10000a1e 	bne	r2,zero,80c6dc <match_file_record_to_name_ext+0x88>
  80c6b4:	e0fff917 	ldw	r3,-28(fp)
  80c6b8:	e0bffd17 	ldw	r2,-12(fp)
  80c6bc:	1885883a 	add	r2,r3,r2
  80c6c0:	10800003 	ldbu	r2,0(r2)
  80c6c4:	10bff804 	addi	r2,r2,-32
  80c6c8:	10803fcc 	andi	r2,r2,255
  80c6cc:	1080201c 	xori	r2,r2,128
  80c6d0:	10bfe004 	addi	r2,r2,-128
  80c6d4:	e0bffe15 	stw	r2,-8(fp)
  80c6d8:	00000506 	br	80c6f0 <match_file_record_to_name_ext+0x9c>
  80c6dc:	e0bff917 	ldw	r2,-28(fp)
  80c6e0:	e0fffd17 	ldw	r3,-12(fp)
  80c6e4:	10c5883a 	add	r2,r2,r3
  80c6e8:	10800007 	ldb	r2,0(r2)
  80c6ec:	e0bffe15 	stw	r2,-8(fp)
  80c6f0:	e0fffa17 	ldw	r3,-24(fp)
  80c6f4:	e0bffd17 	ldw	r2,-12(fp)
  80c6f8:	1885883a 	add	r2,r3,r2
  80c6fc:	10800007 	ldb	r2,0(r2)
  80c700:	10801850 	cmplti	r2,r2,97
  80c704:	1000111e 	bne	r2,zero,80c74c <match_file_record_to_name_ext+0xf8>
  80c708:	e0fffa17 	ldw	r3,-24(fp)
  80c70c:	e0bffd17 	ldw	r2,-12(fp)
  80c710:	1885883a 	add	r2,r3,r2
  80c714:	10800007 	ldb	r2,0(r2)
  80c718:	10801ec8 	cmpgei	r2,r2,123
  80c71c:	10000b1e 	bne	r2,zero,80c74c <match_file_record_to_name_ext+0xf8>
  80c720:	e0fffa17 	ldw	r3,-24(fp)
  80c724:	e0bffd17 	ldw	r2,-12(fp)
  80c728:	1885883a 	add	r2,r3,r2
  80c72c:	10800003 	ldbu	r2,0(r2)
  80c730:	10bff804 	addi	r2,r2,-32
  80c734:	10803fcc 	andi	r2,r2,255
  80c738:	1080201c 	xori	r2,r2,128
  80c73c:	10bfe004 	addi	r2,r2,-128
  80c740:	e0fffe17 	ldw	r3,-8(fp)
  80c744:	1880081e 	bne	r3,r2,80c768 <match_file_record_to_name_ext+0x114>
  80c748:	00000906 	br	80c770 <match_file_record_to_name_ext+0x11c>
  80c74c:	e0fffa17 	ldw	r3,-24(fp)
  80c750:	e0bffd17 	ldw	r2,-12(fp)
  80c754:	1885883a 	add	r2,r3,r2
  80c758:	10800007 	ldb	r2,0(r2)
  80c75c:	e0fffe17 	ldw	r3,-8(fp)
  80c760:	1880011e 	bne	r3,r2,80c768 <match_file_record_to_name_ext+0x114>
  80c764:	00000206 	br	80c770 <match_file_record_to_name_ext+0x11c>
        {
            match = false;
  80c768:	e03ffc15 	stw	zero,-16(fp)
			break;
  80c76c:	00000406 	br	80c780 <match_file_record_to_name_ext+0x12c>
  80c770:	e0bffd17 	ldw	r2,-12(fp)
  80c774:	10800044 	addi	r2,r2,1
  80c778:	e0bffd15 	stw	r2,-12(fp)
  80c77c:	003fbe06 	br	80c678 <match_file_record_to_name_ext+0x24>
        }
    }
    for (index = 0; index < 3; index++)
  80c780:	e03ffd15 	stw	zero,-12(fp)
  80c784:	e0bffd17 	ldw	r2,-12(fp)
  80c788:	108000c8 	cmpgei	r2,r2,3
  80c78c:	1000431e 	bne	r2,zero,80c89c <match_file_record_to_name_ext+0x248>
    {
        if (CHAR_TO_UPPER(file_record->extension[index]) != CHAR_TO_UPPER(extension[index]))
  80c790:	e0fff917 	ldw	r3,-28(fp)
  80c794:	e0bffd17 	ldw	r2,-12(fp)
  80c798:	1885883a 	add	r2,r3,r2
  80c79c:	10800204 	addi	r2,r2,8
  80c7a0:	10800003 	ldbu	r2,0(r2)
  80c7a4:	10801870 	cmpltui	r2,r2,97
  80c7a8:	1000121e 	bne	r2,zero,80c7f4 <match_file_record_to_name_ext+0x1a0>
  80c7ac:	e0fff917 	ldw	r3,-28(fp)
  80c7b0:	e0bffd17 	ldw	r2,-12(fp)
  80c7b4:	1885883a 	add	r2,r3,r2
  80c7b8:	10800204 	addi	r2,r2,8
  80c7bc:	10800003 	ldbu	r2,0(r2)
  80c7c0:	10801ee8 	cmpgeui	r2,r2,123
  80c7c4:	10000b1e 	bne	r2,zero,80c7f4 <match_file_record_to_name_ext+0x1a0>
  80c7c8:	e0fff917 	ldw	r3,-28(fp)
  80c7cc:	e0bffd17 	ldw	r2,-12(fp)
  80c7d0:	1885883a 	add	r2,r3,r2
  80c7d4:	10800204 	addi	r2,r2,8
  80c7d8:	10800003 	ldbu	r2,0(r2)
  80c7dc:	10bff804 	addi	r2,r2,-32
  80c7e0:	10803fcc 	andi	r2,r2,255
  80c7e4:	1080201c 	xori	r2,r2,128
  80c7e8:	10bfe004 	addi	r2,r2,-128
  80c7ec:	e0bfff15 	stw	r2,-4(fp)
  80c7f0:	00000606 	br	80c80c <match_file_record_to_name_ext+0x1b8>
  80c7f4:	e0fff917 	ldw	r3,-28(fp)
  80c7f8:	e0bffd17 	ldw	r2,-12(fp)
  80c7fc:	1885883a 	add	r2,r3,r2
  80c800:	10800204 	addi	r2,r2,8
  80c804:	10800007 	ldb	r2,0(r2)
  80c808:	e0bfff15 	stw	r2,-4(fp)
  80c80c:	e0fffb17 	ldw	r3,-20(fp)
  80c810:	e0bffd17 	ldw	r2,-12(fp)
  80c814:	1885883a 	add	r2,r3,r2
  80c818:	10800007 	ldb	r2,0(r2)
  80c81c:	10801850 	cmplti	r2,r2,97
  80c820:	1000111e 	bne	r2,zero,80c868 <match_file_record_to_name_ext+0x214>
  80c824:	e0fffb17 	ldw	r3,-20(fp)
  80c828:	e0bffd17 	ldw	r2,-12(fp)
  80c82c:	1885883a 	add	r2,r3,r2
  80c830:	10800007 	ldb	r2,0(r2)
  80c834:	10801ec8 	cmpgei	r2,r2,123
  80c838:	10000b1e 	bne	r2,zero,80c868 <match_file_record_to_name_ext+0x214>
  80c83c:	e0fffb17 	ldw	r3,-20(fp)
  80c840:	e0bffd17 	ldw	r2,-12(fp)
  80c844:	1885883a 	add	r2,r3,r2
  80c848:	10800003 	ldbu	r2,0(r2)
  80c84c:	10bff804 	addi	r2,r2,-32
  80c850:	10803fcc 	andi	r2,r2,255
  80c854:	1080201c 	xori	r2,r2,128
  80c858:	10bfe004 	addi	r2,r2,-128
  80c85c:	e0ffff17 	ldw	r3,-4(fp)
  80c860:	1880081e 	bne	r3,r2,80c884 <match_file_record_to_name_ext+0x230>
  80c864:	00000906 	br	80c88c <match_file_record_to_name_ext+0x238>
  80c868:	e0fffb17 	ldw	r3,-20(fp)
  80c86c:	e0bffd17 	ldw	r2,-12(fp)
  80c870:	1885883a 	add	r2,r3,r2
  80c874:	10800007 	ldb	r2,0(r2)
  80c878:	e0ffff17 	ldw	r3,-4(fp)
  80c87c:	1880011e 	bne	r3,r2,80c884 <match_file_record_to_name_ext+0x230>
  80c880:	00000206 	br	80c88c <match_file_record_to_name_ext+0x238>
        {
            match = false;
  80c884:	e03ffc15 	stw	zero,-16(fp)
			break;
  80c888:	00000406 	br	80c89c <match_file_record_to_name_ext+0x248>
  80c88c:	e0bffd17 	ldw	r2,-12(fp)
  80c890:	10800044 	addi	r2,r2,1
  80c894:	e0bffd15 	stw	r2,-12(fp)
  80c898:	003fba06 	br	80c784 <match_file_record_to_name_ext+0x130>
        }
    }
	return match;
  80c89c:	e0bffc17 	ldw	r2,-16(fp)
}
  80c8a0:	df000717 	ldw	fp,28(sp)
  80c8a4:	dec00804 	addi	sp,sp,32
  80c8a8:	f800283a 	ret

0080c8ac <get_home_directory_cluster_for_file>:


bool get_home_directory_cluster_for_file(char *file_name, int *home_directory_cluster, t_file_record *file_record)
// Scan the directories in given in the file name and find the root directory for the file.
{
  80c8ac:	deffea04 	addi	sp,sp,-88
  80c8b0:	dfc01515 	stw	ra,84(sp)
  80c8b4:	df001415 	stw	fp,80(sp)
  80c8b8:	df001404 	addi	fp,sp,80
  80c8bc:	e13fec15 	stw	r4,-80(fp)
  80c8c0:	e17fed15 	stw	r5,-76(fp)
  80c8c4:	e1bfee15 	stw	r6,-72(fp)
    bool result = false;
  80c8c8:	e03fef15 	stw	zero,-68(fp)
    int home_dir_cluster = 0;
  80c8cc:	e03ff015 	stw	zero,-64(fp)
    int location, index;
    int start_location = 0;
  80c8d0:	e03ff315 	stw	zero,-52(fp)

    /* Get Next Directory. */
    location = get_dir_divider_location( file_name );
  80c8d4:	e13fec17 	ldw	r4,-80(fp)
  80c8d8:	080c5b80 	call	80c5b8 <get_dir_divider_location>
  80c8dc:	e0bff115 	stw	r2,-60(fp)
    while (location > 0)
  80c8e0:	e0bff117 	ldw	r2,-60(fp)
  80c8e4:	10800050 	cmplti	r2,r2,1
  80c8e8:	1001081e 	bne	r2,zero,80cd0c <get_home_directory_cluster_for_file+0x460>
    {
        char name[8] = { ' ', ' ', ' ', ' ', ' ', ' ', ' ', ' ' };
  80c8ec:	00802074 	movhi	r2,129
  80c8f0:	1081ba04 	addi	r2,r2,1768
  80c8f4:	e13ff404 	addi	r4,fp,-48
  80c8f8:	100b883a 	mov	r5,r2
  80c8fc:	01800204 	movi	r6,8
  80c900:	08056f40 	call	8056f4 <memcpy>
        char extension[3] = { ' ', ' ', ' ' };
  80c904:	00802074 	movhi	r2,129
  80c908:	1081bc04 	addi	r2,r2,1776
  80c90c:	e13ff604 	addi	r4,fp,-40
  80c910:	100b883a 	mov	r5,r2
  80c914:	018000c4 	movi	r6,3
  80c918:	08056f40 	call	8056f4 <memcpy>
        int ext_index = -1;
  80c91c:	00bfffc4 	movi	r2,-1
  80c920:	e0bff715 	stw	r2,-36(fp)
        int new_cluster = home_dir_cluster;
  80c924:	e0bff017 	ldw	r2,-64(fp)
  80c928:	e0bff815 	stw	r2,-32(fp)

        // Get the name of the directory in name/extension format.
        for (index = 0; index < location; index++)
  80c92c:	e03ff215 	stw	zero,-56(fp)
  80c930:	e0fff217 	ldw	r3,-56(fp)
  80c934:	e0bff117 	ldw	r2,-60(fp)
  80c938:	1880290e 	bge	r3,r2,80c9e0 <get_home_directory_cluster_for_file+0x134>
        {
            if (file_name[index+start_location] == '.')
  80c93c:	e0fff217 	ldw	r3,-56(fp)
  80c940:	e0bfec17 	ldw	r2,-80(fp)
  80c944:	1887883a 	add	r3,r3,r2
  80c948:	e0bff317 	ldw	r2,-52(fp)
  80c94c:	1885883a 	add	r2,r3,r2
  80c950:	10800007 	ldb	r2,0(r2)
  80c954:	10800b98 	cmpnei	r2,r2,46
  80c958:	1000031e 	bne	r2,zero,80c968 <get_home_directory_cluster_for_file+0xbc>
            {
                ext_index = index;
  80c95c:	e0bff217 	ldw	r2,-56(fp)
  80c960:	e0bff715 	stw	r2,-36(fp)
  80c964:	00001a06 	br	80c9d0 <get_home_directory_cluster_for_file+0x124>
            }
            else if (ext_index < 0)
  80c968:	e0bff717 	ldw	r2,-36(fp)
  80c96c:	1004403a 	cmpge	r2,r2,zero
  80c970:	10000b1e 	bne	r2,zero,80c9a0 <get_home_directory_cluster_for_file+0xf4>
            {
                name[index] = file_name[index+start_location];
  80c974:	e0fff404 	addi	r3,fp,-48
  80c978:	e0bff217 	ldw	r2,-56(fp)
  80c97c:	1889883a 	add	r4,r3,r2
  80c980:	e0fff217 	ldw	r3,-56(fp)
  80c984:	e0bfec17 	ldw	r2,-80(fp)
  80c988:	1887883a 	add	r3,r3,r2
  80c98c:	e0bff317 	ldw	r2,-52(fp)
  80c990:	1885883a 	add	r2,r3,r2
  80c994:	10800003 	ldbu	r2,0(r2)
  80c998:	20800005 	stb	r2,0(r4)
  80c99c:	00000c06 	br	80c9d0 <get_home_directory_cluster_for_file+0x124>
            }
            else
            {
                extension[index-ext_index] = file_name[index+start_location];
  80c9a0:	e0fff217 	ldw	r3,-56(fp)
  80c9a4:	e0bff717 	ldw	r2,-36(fp)
  80c9a8:	1887c83a 	sub	r3,r3,r2
  80c9ac:	e0bff604 	addi	r2,fp,-40
  80c9b0:	10c9883a 	add	r4,r2,r3
  80c9b4:	e0fff217 	ldw	r3,-56(fp)
  80c9b8:	e0bfec17 	ldw	r2,-80(fp)
  80c9bc:	1887883a 	add	r3,r3,r2
  80c9c0:	e0bff317 	ldw	r2,-52(fp)
  80c9c4:	1885883a 	add	r2,r3,r2
  80c9c8:	10800003 	ldbu	r2,0(r2)
  80c9cc:	20800005 	stb	r2,0(r4)
  80c9d0:	e0bff217 	ldw	r2,-56(fp)
  80c9d4:	10800044 	addi	r2,r2,1
  80c9d8:	e0bff215 	stw	r2,-56(fp)
  80c9dc:	003fd406 	br	80c930 <get_home_directory_cluster_for_file+0x84>
            }
        }

        if (home_dir_cluster == 0)
  80c9e0:	e0bff017 	ldw	r2,-64(fp)
  80c9e4:	1004c03a 	cmpne	r2,r2,zero
  80c9e8:	1000501e 	bne	r2,zero,80cb2c <get_home_directory_cluster_for_file+0x280>
        {
            /* We are in the root directory. Scan the directory (of predefined size) and see if you can find the specified file. */
            int max_root_dir_sectors = ((32*boot_sector_data.max_number_of_dir_entires) / boot_sector_data.sector_size_in_bytes);
  80c9ec:	00802074 	movhi	r2,129
  80c9f0:	1088a704 	addi	r2,r2,8860
  80c9f4:	1080050b 	ldhu	r2,20(r2)
  80c9f8:	1008917a 	slli	r4,r2,5
  80c9fc:	00802074 	movhi	r2,129
  80ca00:	1088a704 	addi	r2,r2,8860
  80ca04:	1140030b 	ldhu	r5,12(r2)
  80ca08:	08006e80 	call	8006e8 <__divsi3>
  80ca0c:	e0bff915 	stw	r2,-28(fp)
            int sector_index;

            for (sector_index = 0; sector_index < max_root_dir_sectors; sector_index++)
  80ca10:	e03ffa15 	stw	zero,-24(fp)
  80ca14:	e0fffa17 	ldw	r3,-24(fp)
  80ca18:	e0bff917 	ldw	r2,-28(fp)
  80ca1c:	1880360e 	bge	r3,r2,80caf8 <get_home_directory_cluster_for_file+0x24c>
            {
                if (Read_Sector_Data(sector_index+boot_sector_data.root_directory_sector_offset, fat_partition_offset_in_512_byte_sectors))
  80ca20:	00802074 	movhi	r2,129
  80ca24:	1088a704 	addi	r2,r2,8860
  80ca28:	10c01317 	ldw	r3,76(r2)
  80ca2c:	e0bffa17 	ldw	r2,-24(fp)
  80ca30:	1889883a 	add	r4,r3,r2
  80ca34:	d1602217 	ldw	r5,-32632(gp)
  80ca38:	080b3dc0 	call	80b3dc <Read_Sector_Data>
  80ca3c:	1005003a 	cmpeq	r2,r2,zero
  80ca40:	10002d1e 	bne	r2,zero,80caf8 <get_home_directory_cluster_for_file+0x24c>
                {
                    int file_counter;

                    for (file_counter = 0; file_counter < 16; file_counter++)
  80ca44:	e03ffb15 	stw	zero,-20(fp)
  80ca48:	e0bffb17 	ldw	r2,-20(fp)
  80ca4c:	10800408 	cmpgei	r2,r2,16
  80ca50:	1000211e 	bne	r2,zero,80cad8 <get_home_directory_cluster_for_file+0x22c>
                    {

                        // Read file record.
                        Read_File_Record_At_Offset(file_counter*32, file_record, 0, sector_index);
  80ca54:	e0bffb17 	ldw	r2,-20(fp)
  80ca58:	1008917a 	slli	r4,r2,5
  80ca5c:	e17fee17 	ldw	r5,-72(fp)
  80ca60:	000d883a 	mov	r6,zero
  80ca64:	e1fffa17 	ldw	r7,-24(fp)
  80ca68:	080b7f00 	call	80b7f0 <Read_File_Record_At_Offset>
                        if ((file_record->name[0] != 0xe5) && (file_record->name[0] != 0x00))
  80ca6c:	e0bfee17 	ldw	r2,-72(fp)
  80ca70:	10800003 	ldbu	r2,0(r2)
  80ca74:	10803960 	cmpeqi	r2,r2,229
  80ca78:	1000131e 	bne	r2,zero,80cac8 <get_home_directory_cluster_for_file+0x21c>
  80ca7c:	e0bfee17 	ldw	r2,-72(fp)
  80ca80:	10800003 	ldbu	r2,0(r2)
  80ca84:	1005003a 	cmpeq	r2,r2,zero
  80ca88:	10000f1e 	bne	r2,zero,80cac8 <get_home_directory_cluster_for_file+0x21c>
                        {
                            bool match = match_file_record_to_name_ext(file_record, name, extension);
  80ca8c:	e17ff404 	addi	r5,fp,-48
  80ca90:	e1bff604 	addi	r6,fp,-40
  80ca94:	e13fee17 	ldw	r4,-72(fp)
  80ca98:	080c6540 	call	80c654 <match_file_record_to_name_ext>
  80ca9c:	e0bffc15 	stw	r2,-16(fp)
                            if (match)
  80caa0:	e0bffc17 	ldw	r2,-16(fp)
  80caa4:	1005003a 	cmpeq	r2,r2,zero
  80caa8:	1000071e 	bne	r2,zero,80cac8 <get_home_directory_cluster_for_file+0x21c>
                            {
                                new_cluster = file_record->start_cluster_index;
  80caac:	e0bfee17 	ldw	r2,-72(fp)
  80cab0:	1080058b 	ldhu	r2,22(r2)
  80cab4:	e0bff815 	stw	r2,-32(fp)
                                file_record->file_record_cluster = 1; // Home directory is a subdirectory in the root directory.
  80cab8:	e0ffee17 	ldw	r3,-72(fp)
  80cabc:	00800044 	movi	r2,1
  80cac0:	18800a15 	stw	r2,40(r3)
                                break;
  80cac4:	00000406 	br	80cad8 <get_home_directory_cluster_for_file+0x22c>
  80cac8:	e0bffb17 	ldw	r2,-20(fp)
  80cacc:	10800044 	addi	r2,r2,1
  80cad0:	e0bffb15 	stw	r2,-20(fp)
  80cad4:	003fdc06 	br	80ca48 <get_home_directory_cluster_for_file+0x19c>
                            }
                        }
                    }
                }
                else
                {
                    break;
                }
                if (new_cluster != home_dir_cluster)
  80cad8:	e0fff817 	ldw	r3,-32(fp)
  80cadc:	e0bff017 	ldw	r2,-64(fp)
  80cae0:	18800126 	beq	r3,r2,80cae8 <get_home_directory_cluster_for_file+0x23c>
                {
                    break;
  80cae4:	00000406 	br	80caf8 <get_home_directory_cluster_for_file+0x24c>
  80cae8:	e0bffa17 	ldw	r2,-24(fp)
  80caec:	10800044 	addi	r2,r2,1
  80caf0:	e0bffa15 	stw	r2,-24(fp)
  80caf4:	003fc706 	br	80ca14 <get_home_directory_cluster_for_file+0x168>
                }
            }
            if (new_cluster != home_dir_cluster)
  80caf8:	e0fff817 	ldw	r3,-32(fp)
  80cafc:	e0bff017 	ldw	r2,-64(fp)
  80cb00:	18800826 	beq	r3,r2,80cb24 <get_home_directory_cluster_for_file+0x278>
            {
                // A valid directory is found, so go to it.
                home_dir_cluster = new_cluster;
  80cb04:	e0bff817 	ldw	r2,-32(fp)
  80cb08:	e0bff015 	stw	r2,-64(fp)
                start_location = start_location+location+1;
  80cb0c:	e0fff317 	ldw	r3,-52(fp)
  80cb10:	e0bff117 	ldw	r2,-60(fp)
  80cb14:	1885883a 	add	r2,r3,r2
  80cb18:	10800044 	addi	r2,r2,1
  80cb1c:	e0bff315 	stw	r2,-52(fp)
  80cb20:	00006f06 	br	80cce0 <get_home_directory_cluster_for_file+0x434>
            }
            else
            {
                // Directory path is invalid.
                return false;
  80cb24:	e03fff15 	stw	zero,-4(fp)
  80cb28:	00008406 	br	80cd3c <get_home_directory_cluster_for_file+0x490>
            }
        } else {
            // This is a subdirectory that can have any number of elements. So scan through it as though it was a file
            // and see if you can find the directory of interest.
            int cluster = home_dir_cluster;
  80cb2c:	e0bff017 	ldw	r2,-64(fp)
  80cb30:	e0bffc15 	stw	r2,-16(fp)

            do {
                int start_sector = ( cluster - 2 ) * ( boot_sector_data.sectors_per_cluster ) + boot_sector_data.data_sector_offset;
  80cb34:	e0bffc17 	ldw	r2,-16(fp)
  80cb38:	113fff84 	addi	r4,r2,-2
  80cb3c:	00802074 	movhi	r2,129
  80cb40:	1088a704 	addi	r2,r2,8860
  80cb44:	11400383 	ldbu	r5,14(r2)
  80cb48:	08007a40 	call	8007a4 <__mulsi3>
  80cb4c:	1007883a 	mov	r3,r2
  80cb50:	00802074 	movhi	r2,129
  80cb54:	1088a704 	addi	r2,r2,8860
  80cb58:	10801417 	ldw	r2,80(r2)
  80cb5c:	1885883a 	add	r2,r3,r2
  80cb60:	e0bffb15 	stw	r2,-20(fp)
                int sector_index;

                for (sector_index = 0; sector_index < boot_sector_data.sectors_per_cluster; sector_index++)
  80cb64:	e03ffa15 	stw	zero,-24(fp)
  80cb68:	00802074 	movhi	r2,129
  80cb6c:	1088a704 	addi	r2,r2,8860
  80cb70:	10c00383 	ldbu	r3,14(r2)
  80cb74:	e0bffa17 	ldw	r2,-24(fp)
  80cb78:	10c0310e 	bge	r2,r3,80cc40 <get_home_directory_cluster_for_file+0x394>
                {
                    if (Read_Sector_Data(sector_index + start_sector, fat_partition_offset_in_512_byte_sectors))
  80cb7c:	e0fffa17 	ldw	r3,-24(fp)
  80cb80:	e0bffb17 	ldw	r2,-20(fp)
  80cb84:	1889883a 	add	r4,r3,r2
  80cb88:	d1602217 	ldw	r5,-32632(gp)
  80cb8c:	080b3dc0 	call	80b3dc <Read_Sector_Data>
  80cb90:	1005003a 	cmpeq	r2,r2,zero
  80cb94:	10002a1e 	bne	r2,zero,80cc40 <get_home_directory_cluster_for_file+0x394>
                    {
                        int file_counter;

                        for (file_counter = 0; file_counter < 16; file_counter++)
  80cb98:	e03ff915 	stw	zero,-28(fp)
  80cb9c:	e0bff917 	ldw	r2,-28(fp)
  80cba0:	10800408 	cmpgei	r2,r2,16
  80cba4:	10001e1e 	bne	r2,zero,80cc20 <get_home_directory_cluster_for_file+0x374>
                        {
                            // Read file record.
                            Read_File_Record_At_Offset(file_counter*32, file_record, cluster, sector_index);
  80cba8:	e0bff917 	ldw	r2,-28(fp)
  80cbac:	1008917a 	slli	r4,r2,5
  80cbb0:	e17fee17 	ldw	r5,-72(fp)
  80cbb4:	e1bffc17 	ldw	r6,-16(fp)
  80cbb8:	e1fffa17 	ldw	r7,-24(fp)
  80cbbc:	080b7f00 	call	80b7f0 <Read_File_Record_At_Offset>
                            if ((file_record->name[0] != 0xe5) && (file_record->name[0] != 0x00))
  80cbc0:	e0bfee17 	ldw	r2,-72(fp)
  80cbc4:	10800003 	ldbu	r2,0(r2)
  80cbc8:	10803960 	cmpeqi	r2,r2,229
  80cbcc:	1000101e 	bne	r2,zero,80cc10 <get_home_directory_cluster_for_file+0x364>
  80cbd0:	e0bfee17 	ldw	r2,-72(fp)
  80cbd4:	10800003 	ldbu	r2,0(r2)
  80cbd8:	1005003a 	cmpeq	r2,r2,zero
  80cbdc:	10000c1e 	bne	r2,zero,80cc10 <get_home_directory_cluster_for_file+0x364>
                            {
								bool match = match_file_record_to_name_ext(file_record, name, extension);
  80cbe0:	e17ff404 	addi	r5,fp,-48
  80cbe4:	e1bff604 	addi	r6,fp,-40
  80cbe8:	e13fee17 	ldw	r4,-72(fp)
  80cbec:	080c6540 	call	80c654 <match_file_record_to_name_ext>
  80cbf0:	e0bffd15 	stw	r2,-12(fp)
                                if (match)
  80cbf4:	e0bffd17 	ldw	r2,-12(fp)
  80cbf8:	1005003a 	cmpeq	r2,r2,zero
  80cbfc:	1000041e 	bne	r2,zero,80cc10 <get_home_directory_cluster_for_file+0x364>
                                {
                                    new_cluster = file_record->start_cluster_index;
  80cc00:	e0bfee17 	ldw	r2,-72(fp)
  80cc04:	1080058b 	ldhu	r2,22(r2)
  80cc08:	e0bff815 	stw	r2,-32(fp)
                                    break;
  80cc0c:	00000406 	br	80cc20 <get_home_directory_cluster_for_file+0x374>
  80cc10:	e0bff917 	ldw	r2,-28(fp)
  80cc14:	10800044 	addi	r2,r2,1
  80cc18:	e0bff915 	stw	r2,-28(fp)
  80cc1c:	003fdf06 	br	80cb9c <get_home_directory_cluster_for_file+0x2f0>
                                }
                            }
                        }
                    }
                    else
                    {
                        break;
                    }
                    if (new_cluster != home_dir_cluster)
  80cc20:	e0fff817 	ldw	r3,-32(fp)
  80cc24:	e0bff017 	ldw	r2,-64(fp)
  80cc28:	18800126 	beq	r3,r2,80cc30 <get_home_directory_cluster_for_file+0x384>
                    {
                        break;
  80cc2c:	00000406 	br	80cc40 <get_home_directory_cluster_for_file+0x394>
  80cc30:	e0bffa17 	ldw	r2,-24(fp)
  80cc34:	10800044 	addi	r2,r2,1
  80cc38:	e0bffa15 	stw	r2,-24(fp)
  80cc3c:	003fca06 	br	80cb68 <get_home_directory_cluster_for_file+0x2bc>
                    }
                }
                // If this is the end of the cluster and the directory has not been found, then see if there is another cluster
                // that holds data for the current directory.
                if (new_cluster == home_dir_cluster)
  80cc40:	e0fff817 	ldw	r3,-32(fp)
  80cc44:	e0bff017 	ldw	r2,-64(fp)
  80cc48:	1880111e 	bne	r3,r2,80cc90 <get_home_directory_cluster_for_file+0x3e4>
                {
					unsigned short int next_cluster;

					if (get_cluster_flag(new_cluster, &next_cluster))
  80cc4c:	e17ffe04 	addi	r5,fp,-8
  80cc50:	e13ff817 	ldw	r4,-32(fp)
  80cc54:	080b4c00 	call	80b4c0 <get_cluster_flag>
  80cc58:	1005003a 	cmpeq	r2,r2,zero
  80cc5c:	10000a1e 	bne	r2,zero,80cc88 <get_home_directory_cluster_for_file+0x3dc>
					{
						// The directory needs to be expanded to store more files.
						if ((next_cluster & 0x0000fff8) == 0x0000fff8)
  80cc60:	e0bffe0b 	ldhu	r2,-8(fp)
  80cc64:	10fffe0c 	andi	r3,r2,65528
  80cc68:	00bffe14 	movui	r2,65528
  80cc6c:	1880021e 	bne	r3,r2,80cc78 <get_home_directory_cluster_for_file+0x3cc>
						{
							return false;
  80cc70:	e03fff15 	stw	zero,-4(fp)
  80cc74:	00003106 	br	80cd3c <get_home_directory_cluster_for_file+0x490>
						}
						new_cluster = (next_cluster & 0x0000fff8);
  80cc78:	e0bffe0b 	ldhu	r2,-8(fp)
  80cc7c:	10bffe0c 	andi	r2,r2,65528
  80cc80:	e0bff815 	stw	r2,-32(fp)
  80cc84:	00000206 	br	80cc90 <get_home_directory_cluster_for_file+0x3e4>
					}
					else
					{
						// Directory path is invalid.
						return false;
  80cc88:	e03fff15 	stw	zero,-4(fp)
  80cc8c:	00002b06 	br	80cd3c <get_home_directory_cluster_for_file+0x490>
					}
                }
            } while ((cluster < 0x0000fff8) && (new_cluster == home_dir_cluster));
  80cc90:	e0fffc17 	ldw	r3,-16(fp)
  80cc94:	00bffdd4 	movui	r2,65527
  80cc98:	10c00416 	blt	r2,r3,80ccac <get_home_directory_cluster_for_file+0x400>
  80cc9c:	e0fff817 	ldw	r3,-32(fp)
  80cca0:	e0bff017 	ldw	r2,-64(fp)
  80cca4:	1880011e 	bne	r3,r2,80ccac <get_home_directory_cluster_for_file+0x400>
  80cca8:	003fa206 	br	80cb34 <get_home_directory_cluster_for_file+0x288>
            if (new_cluster != home_dir_cluster)
  80ccac:	e0fff817 	ldw	r3,-32(fp)
  80ccb0:	e0bff017 	ldw	r2,-64(fp)
  80ccb4:	18800826 	beq	r3,r2,80ccd8 <get_home_directory_cluster_for_file+0x42c>
            {
                // A valid directory is found, so go to it.
                home_dir_cluster = new_cluster;
  80ccb8:	e0bff817 	ldw	r2,-32(fp)
  80ccbc:	e0bff015 	stw	r2,-64(fp)
                start_location = start_location+location+1;
  80ccc0:	e0fff317 	ldw	r3,-52(fp)
  80ccc4:	e0bff117 	ldw	r2,-60(fp)
  80ccc8:	1885883a 	add	r2,r3,r2
  80cccc:	10800044 	addi	r2,r2,1
  80ccd0:	e0bff315 	stw	r2,-52(fp)
  80ccd4:	00000206 	br	80cce0 <get_home_directory_cluster_for_file+0x434>
            }
            else
            {
                // Directory path is invalid.
                return false;
  80ccd8:	e03fff15 	stw	zero,-4(fp)
  80ccdc:	00001706 	br	80cd3c <get_home_directory_cluster_for_file+0x490>
            }
        }
        location = get_dir_divider_location(&(file_name[start_location]));
  80cce0:	e0ffec17 	ldw	r3,-80(fp)
  80cce4:	e0bff317 	ldw	r2,-52(fp)
  80cce8:	1889883a 	add	r4,r3,r2
  80ccec:	080c5b80 	call	80c5b8 <get_dir_divider_location>
  80ccf0:	e0bff115 	stw	r2,-60(fp)
        if (location < 0)
  80ccf4:	e0bff117 	ldw	r2,-60(fp)
  80ccf8:	1004403a 	cmpge	r2,r2,zero
  80ccfc:	103ef81e 	bne	r2,zero,80c8e0 <get_home_directory_cluster_for_file+0x34>
        {
            // Directory has been located.
            result = true;
  80cd00:	00800044 	movi	r2,1
  80cd04:	e0bfef15 	stw	r2,-68(fp)
  80cd08:	003ef506 	br	80c8e0 <get_home_directory_cluster_for_file+0x34>
        }
    }

    *home_directory_cluster = home_dir_cluster;
  80cd0c:	e0ffed17 	ldw	r3,-76(fp)
  80cd10:	e0bff017 	ldw	r2,-64(fp)
  80cd14:	18800015 	stw	r2,0(r3)
    if (home_dir_cluster == 0)
  80cd18:	e0bff017 	ldw	r2,-64(fp)
  80cd1c:	1004c03a 	cmpne	r2,r2,zero
  80cd20:	1000041e 	bne	r2,zero,80cd34 <get_home_directory_cluster_for_file+0x488>
    {
        file_record->file_record_cluster = 0; // Home directory is the root directory.
  80cd24:	e0bfee17 	ldw	r2,-72(fp)
  80cd28:	10000a15 	stw	zero,40(r2)
		result = true;
  80cd2c:	00800044 	movi	r2,1
  80cd30:	e0bfef15 	stw	r2,-68(fp)
    }
    return result;
  80cd34:	e0bfef17 	ldw	r2,-68(fp)
  80cd38:	e0bfff15 	stw	r2,-4(fp)
}
  80cd3c:	e0bfff17 	ldw	r2,-4(fp)
  80cd40:	dfc01517 	ldw	ra,84(sp)
  80cd44:	df001417 	ldw	fp,80(sp)
  80cd48:	dec01604 	addi	sp,sp,88
  80cd4c:	f800283a 	ret

0080cd50 <find_file_in_directory>:


bool find_file_in_directory(int directory_start_cluster, char *file_name, t_file_record *file_record)
// Given a cluster and a file name, check if the file already exists. Return the file record if the file is found.
{
  80cd50:	deffeb04 	addi	sp,sp,-84
  80cd54:	dfc01415 	stw	ra,80(sp)
  80cd58:	df001315 	stw	fp,76(sp)
  80cd5c:	df001304 	addi	fp,sp,76
  80cd60:	e13fed15 	stw	r4,-76(fp)
  80cd64:	e17fee15 	stw	r5,-72(fp)
  80cd68:	e1bfef15 	stw	r6,-68(fp)
    int location = get_dir_divider_location( file_name );
  80cd6c:	e13fee17 	ldw	r4,-72(fp)
  80cd70:	080c5b80 	call	80c5b8 <get_dir_divider_location>
  80cd74:	e0bff015 	stw	r2,-64(fp)
    int last_dir_separator = 0;
  80cd78:	e03ff115 	stw	zero,-60(fp)
    char name[8] = { ' ', ' ', ' ', ' ', ' ', ' ', ' ', ' ' };
  80cd7c:	00802074 	movhi	r2,129
  80cd80:	1081ba04 	addi	r2,r2,1768
  80cd84:	e13ff204 	addi	r4,fp,-56
  80cd88:	100b883a 	mov	r5,r2
  80cd8c:	01800204 	movi	r6,8
  80cd90:	08056f40 	call	8056f4 <memcpy>
    char extension[3] = { ' ', ' ', ' ' };
  80cd94:	00802074 	movhi	r2,129
  80cd98:	1081bc04 	addi	r2,r2,1776
  80cd9c:	e13ff404 	addi	r4,fp,-48
  80cda0:	100b883a 	mov	r5,r2
  80cda4:	018000c4 	movi	r6,3
  80cda8:	08056f40 	call	8056f4 <memcpy>
    int ext_index = -1;
  80cdac:	00bfffc4 	movi	r2,-1
  80cdb0:	e0bff515 	stw	r2,-44(fp)
    int cluster = directory_start_cluster;
  80cdb4:	e0bfed17 	ldw	r2,-76(fp)
  80cdb8:	e0bff615 	stw	r2,-40(fp)
    int index;
	int length = strlen(file_name);
  80cdbc:	e13fee17 	ldw	r4,-72(fp)
  80cdc0:	08070bc0 	call	8070bc <strlen>
  80cdc4:	e0bff815 	stw	r2,-32(fp)
    bool result = false;
  80cdc8:	e03ff915 	stw	zero,-28(fp)

    // Skip through all directory separators.
    while (location > 0)
  80cdcc:	e0bff017 	ldw	r2,-64(fp)
  80cdd0:	10800050 	cmplti	r2,r2,1
  80cdd4:	10000b1e 	bne	r2,zero,80ce04 <find_file_in_directory+0xb4>
    {
        last_dir_separator = last_dir_separator+location+1;
  80cdd8:	e0fff117 	ldw	r3,-60(fp)
  80cddc:	e0bff017 	ldw	r2,-64(fp)
  80cde0:	1885883a 	add	r2,r3,r2
  80cde4:	10800044 	addi	r2,r2,1
  80cde8:	e0bff115 	stw	r2,-60(fp)
        location = get_dir_divider_location( &(file_name[last_dir_separator]) );
  80cdec:	e0ffee17 	ldw	r3,-72(fp)
  80cdf0:	e0bff117 	ldw	r2,-60(fp)
  80cdf4:	1889883a 	add	r4,r3,r2
  80cdf8:	080c5b80 	call	80c5b8 <get_dir_divider_location>
  80cdfc:	e0bff015 	stw	r2,-64(fp)
  80ce00:	003ff206 	br	80cdcc <find_file_in_directory+0x7c>
    }

    // Get the name of the file in name/extension format.
    for (index = last_dir_separator; index < length; index++)
  80ce04:	e0bff117 	ldw	r2,-60(fp)
  80ce08:	e0bff715 	stw	r2,-36(fp)
  80ce0c:	e0fff717 	ldw	r3,-36(fp)
  80ce10:	e0bff817 	ldw	r2,-32(fp)
  80ce14:	1880250e 	bge	r3,r2,80ceac <find_file_in_directory+0x15c>
    {
        if (file_name[index] == '.')
  80ce18:	e0ffee17 	ldw	r3,-72(fp)
  80ce1c:	e0bff717 	ldw	r2,-36(fp)
  80ce20:	1885883a 	add	r2,r3,r2
  80ce24:	10800007 	ldb	r2,0(r2)
  80ce28:	10800b98 	cmpnei	r2,r2,46
  80ce2c:	1000031e 	bne	r2,zero,80ce3c <find_file_in_directory+0xec>
        {
            ext_index = index;
  80ce30:	e0bff717 	ldw	r2,-36(fp)
  80ce34:	e0bff515 	stw	r2,-44(fp)
  80ce38:	00001806 	br	80ce9c <find_file_in_directory+0x14c>
        }
        else if (ext_index < 0)
  80ce3c:	e0bff517 	ldw	r2,-44(fp)
  80ce40:	1004403a 	cmpge	r2,r2,zero
  80ce44:	10000b1e 	bne	r2,zero,80ce74 <find_file_in_directory+0x124>
        {
            name[index-last_dir_separator] = file_name[index];
  80ce48:	e0fff717 	ldw	r3,-36(fp)
  80ce4c:	e0bff117 	ldw	r2,-60(fp)
  80ce50:	1887c83a 	sub	r3,r3,r2
  80ce54:	e0bff204 	addi	r2,fp,-56
  80ce58:	10c9883a 	add	r4,r2,r3
  80ce5c:	e0ffee17 	ldw	r3,-72(fp)
  80ce60:	e0bff717 	ldw	r2,-36(fp)
  80ce64:	1885883a 	add	r2,r3,r2
  80ce68:	10800003 	ldbu	r2,0(r2)
  80ce6c:	20800005 	stb	r2,0(r4)
  80ce70:	00000a06 	br	80ce9c <find_file_in_directory+0x14c>
        }
        else
        {
            extension[index-ext_index-1] = file_name[index];
  80ce74:	e0fff717 	ldw	r3,-36(fp)
  80ce78:	e0bff517 	ldw	r2,-44(fp)
  80ce7c:	1887c83a 	sub	r3,r3,r2
  80ce80:	e0bff3c4 	addi	r2,fp,-49
  80ce84:	10c9883a 	add	r4,r2,r3
  80ce88:	e0ffee17 	ldw	r3,-72(fp)
  80ce8c:	e0bff717 	ldw	r2,-36(fp)
  80ce90:	1885883a 	add	r2,r3,r2
  80ce94:	10800003 	ldbu	r2,0(r2)
  80ce98:	20800005 	stb	r2,0(r4)
  80ce9c:	e0bff717 	ldw	r2,-36(fp)
  80cea0:	10800044 	addi	r2,r2,1
  80cea4:	e0bff715 	stw	r2,-36(fp)
  80cea8:	003fd806 	br	80ce0c <find_file_in_directory+0xbc>
        }
    }

    // Look for the file.
    if (directory_start_cluster == 0)
  80ceac:	e0bfed17 	ldw	r2,-76(fp)
  80ceb0:	1004c03a 	cmpne	r2,r2,zero
  80ceb4:	10003f1e 	bne	r2,zero,80cfb4 <find_file_in_directory+0x264>
    {
        /* We are in the root directory. Scan the directory (of predefined size) and see if you can find the specified file. */
        int max_root_dir_sectors = ((32*boot_sector_data.max_number_of_dir_entires) / boot_sector_data.sector_size_in_bytes);
  80ceb8:	00802074 	movhi	r2,129
  80cebc:	1088a704 	addi	r2,r2,8860
  80cec0:	1080050b 	ldhu	r2,20(r2)
  80cec4:	1008917a 	slli	r4,r2,5
  80cec8:	00802074 	movhi	r2,129
  80cecc:	1088a704 	addi	r2,r2,8860
  80ced0:	1140030b 	ldhu	r5,12(r2)
  80ced4:	08006e80 	call	8006e8 <__divsi3>
  80ced8:	e0bffa15 	stw	r2,-24(fp)
        int sector_index;

        for (sector_index = 0; sector_index < max_root_dir_sectors; sector_index++)
  80cedc:	e03ffb15 	stw	zero,-20(fp)
  80cee0:	e0fffb17 	ldw	r3,-20(fp)
  80cee4:	e0bffa17 	ldw	r2,-24(fp)
  80cee8:	18808f0e 	bge	r3,r2,80d128 <find_file_in_directory+0x3d8>
        {
            if (Read_Sector_Data(   sector_index + boot_sector_data.root_directory_sector_offset,
  80ceec:	00802074 	movhi	r2,129
  80cef0:	1088a704 	addi	r2,r2,8860
  80cef4:	10c01317 	ldw	r3,76(r2)
  80cef8:	e0bffb17 	ldw	r2,-20(fp)
  80cefc:	1889883a 	add	r4,r3,r2
  80cf00:	d1602217 	ldw	r5,-32632(gp)
  80cf04:	080b3dc0 	call	80b3dc <Read_Sector_Data>
  80cf08:	1005003a 	cmpeq	r2,r2,zero
  80cf0c:	1000861e 	bne	r2,zero,80d128 <find_file_in_directory+0x3d8>
                                    fat_partition_offset_in_512_byte_sectors))
            {
                int file_counter;

                for (file_counter = 0; file_counter < 16; file_counter++)
  80cf10:	e03ffc15 	stw	zero,-16(fp)
  80cf14:	e0bffc17 	ldw	r2,-16(fp)
  80cf18:	10800408 	cmpgei	r2,r2,16
  80cf1c:	10001d1e 	bne	r2,zero,80cf94 <find_file_in_directory+0x244>
                {
                    // Read file record.
                    Read_File_Record_At_Offset(file_counter*32, file_record, 0, sector_index);
  80cf20:	e0bffc17 	ldw	r2,-16(fp)
  80cf24:	1008917a 	slli	r4,r2,5
  80cf28:	e17fef17 	ldw	r5,-68(fp)
  80cf2c:	000d883a 	mov	r6,zero
  80cf30:	e1fffb17 	ldw	r7,-20(fp)
  80cf34:	080b7f00 	call	80b7f0 <Read_File_Record_At_Offset>
                    if ((file_record->name[0] != 0xe5) && (file_record->name[0] != 0x00))
  80cf38:	e0bfef17 	ldw	r2,-68(fp)
  80cf3c:	10800003 	ldbu	r2,0(r2)
  80cf40:	10803960 	cmpeqi	r2,r2,229
  80cf44:	10000f1e 	bne	r2,zero,80cf84 <find_file_in_directory+0x234>
  80cf48:	e0bfef17 	ldw	r2,-68(fp)
  80cf4c:	10800003 	ldbu	r2,0(r2)
  80cf50:	1005003a 	cmpeq	r2,r2,zero
  80cf54:	10000b1e 	bne	r2,zero,80cf84 <find_file_in_directory+0x234>
                    {
                        bool match = match_file_record_to_name_ext(file_record, name, extension);
  80cf58:	e17ff204 	addi	r5,fp,-56
  80cf5c:	e1bff404 	addi	r6,fp,-48
  80cf60:	e13fef17 	ldw	r4,-68(fp)
  80cf64:	080c6540 	call	80c654 <match_file_record_to_name_ext>
  80cf68:	e0bffd15 	stw	r2,-12(fp)

                        if (match)
  80cf6c:	e0bffd17 	ldw	r2,-12(fp)
  80cf70:	1005003a 	cmpeq	r2,r2,zero
  80cf74:	1000031e 	bne	r2,zero,80cf84 <find_file_in_directory+0x234>
                        {
                            result = true;
  80cf78:	00800044 	movi	r2,1
  80cf7c:	e0bff915 	stw	r2,-28(fp)
                            break;
  80cf80:	00000406 	br	80cf94 <find_file_in_directory+0x244>
  80cf84:	e0bffc17 	ldw	r2,-16(fp)
  80cf88:	10800044 	addi	r2,r2,1
  80cf8c:	e0bffc15 	stw	r2,-16(fp)
  80cf90:	003fe006 	br	80cf14 <find_file_in_directory+0x1c4>
                        }
                    }
                }
            }
            else
            {
                break;
            }
            if (result)
  80cf94:	e0bff917 	ldw	r2,-28(fp)
  80cf98:	1005003a 	cmpeq	r2,r2,zero
  80cf9c:	1000011e 	bne	r2,zero,80cfa4 <find_file_in_directory+0x254>
            {
                break;
  80cfa0:	00006106 	br	80d128 <find_file_in_directory+0x3d8>
  80cfa4:	e0bffb17 	ldw	r2,-20(fp)
  80cfa8:	10800044 	addi	r2,r2,1
  80cfac:	e0bffb15 	stw	r2,-20(fp)
  80cfb0:	003fcb06 	br	80cee0 <find_file_in_directory+0x190>
            }
        }
    }
    else
    {
        do {
            int start_sector = ( cluster - 2 ) * ( boot_sector_data.sectors_per_cluster ) + boot_sector_data.data_sector_offset;
  80cfb4:	e0bff617 	ldw	r2,-40(fp)
  80cfb8:	113fff84 	addi	r4,r2,-2
  80cfbc:	00802074 	movhi	r2,129
  80cfc0:	1088a704 	addi	r2,r2,8860
  80cfc4:	11400383 	ldbu	r5,14(r2)
  80cfc8:	08007a40 	call	8007a4 <__mulsi3>
  80cfcc:	1007883a 	mov	r3,r2
  80cfd0:	00802074 	movhi	r2,129
  80cfd4:	1088a704 	addi	r2,r2,8860
  80cfd8:	10801417 	ldw	r2,80(r2)
  80cfdc:	1885883a 	add	r2,r3,r2
  80cfe0:	e0bffd15 	stw	r2,-12(fp)
            int sector_index;

            for (sector_index = 0; sector_index < boot_sector_data.sectors_per_cluster; sector_index++)
  80cfe4:	e03ffc15 	stw	zero,-16(fp)
  80cfe8:	00802074 	movhi	r2,129
  80cfec:	1088a704 	addi	r2,r2,8860
  80cff0:	10c00383 	ldbu	r3,14(r2)
  80cff4:	e0bffc17 	ldw	r2,-16(fp)
  80cff8:	10c0300e 	bge	r2,r3,80d0bc <find_file_in_directory+0x36c>
            {
                if (Read_Sector_Data(sector_index + start_sector, fat_partition_offset_in_512_byte_sectors))
  80cffc:	e0fffc17 	ldw	r3,-16(fp)
  80d000:	e0bffd17 	ldw	r2,-12(fp)
  80d004:	1889883a 	add	r4,r3,r2
  80d008:	d1602217 	ldw	r5,-32632(gp)
  80d00c:	080b3dc0 	call	80b3dc <Read_Sector_Data>
  80d010:	1005003a 	cmpeq	r2,r2,zero
  80d014:	1000291e 	bne	r2,zero,80d0bc <find_file_in_directory+0x36c>
                {
                    int file_counter;

                    for (file_counter = 0; file_counter < 16; file_counter++)
  80d018:	e03ffb15 	stw	zero,-20(fp)
  80d01c:	e0bffb17 	ldw	r2,-20(fp)
  80d020:	10800408 	cmpgei	r2,r2,16
  80d024:	10001d1e 	bne	r2,zero,80d09c <find_file_in_directory+0x34c>
                    {
                        // Read file record.
                        Read_File_Record_At_Offset(file_counter*32, file_record, cluster, sector_index);
  80d028:	e0bffb17 	ldw	r2,-20(fp)
  80d02c:	1008917a 	slli	r4,r2,5
  80d030:	e17fef17 	ldw	r5,-68(fp)
  80d034:	e1bff617 	ldw	r6,-40(fp)
  80d038:	e1fffc17 	ldw	r7,-16(fp)
  80d03c:	080b7f00 	call	80b7f0 <Read_File_Record_At_Offset>
                        if ((file_record->name[0] != 0xe5) && (file_record->name[0] != 0x00))
  80d040:	e0bfef17 	ldw	r2,-68(fp)
  80d044:	10800003 	ldbu	r2,0(r2)
  80d048:	10803960 	cmpeqi	r2,r2,229
  80d04c:	10000f1e 	bne	r2,zero,80d08c <find_file_in_directory+0x33c>
  80d050:	e0bfef17 	ldw	r2,-68(fp)
  80d054:	10800003 	ldbu	r2,0(r2)
  80d058:	1005003a 	cmpeq	r2,r2,zero
  80d05c:	10000b1e 	bne	r2,zero,80d08c <find_file_in_directory+0x33c>
                        {
                            bool match = match_file_record_to_name_ext(file_record, name, extension);
  80d060:	e17ff204 	addi	r5,fp,-56
  80d064:	e1bff404 	addi	r6,fp,-48
  80d068:	e13fef17 	ldw	r4,-68(fp)
  80d06c:	080c6540 	call	80c654 <match_file_record_to_name_ext>
  80d070:	e0bffa15 	stw	r2,-24(fp)

                            if (match)
  80d074:	e0bffa17 	ldw	r2,-24(fp)
  80d078:	1005003a 	cmpeq	r2,r2,zero
  80d07c:	1000031e 	bne	r2,zero,80d08c <find_file_in_directory+0x33c>
                            {
                                result = true;
  80d080:	00800044 	movi	r2,1
  80d084:	e0bff915 	stw	r2,-28(fp)
                                break;
  80d088:	00000406 	br	80d09c <find_file_in_directory+0x34c>
  80d08c:	e0bffb17 	ldw	r2,-20(fp)
  80d090:	10800044 	addi	r2,r2,1
  80d094:	e0bffb15 	stw	r2,-20(fp)
  80d098:	003fe006 	br	80d01c <find_file_in_directory+0x2cc>
                            }
                        }
                    }
                }
                else
                {
                    break;
                }
                if (result)
  80d09c:	e0bff917 	ldw	r2,-28(fp)
  80d0a0:	1005003a 	cmpeq	r2,r2,zero
  80d0a4:	1000011e 	bne	r2,zero,80d0ac <find_file_in_directory+0x35c>
                {
                    break;
  80d0a8:	00000406 	br	80d0bc <find_file_in_directory+0x36c>
  80d0ac:	e0bffc17 	ldw	r2,-16(fp)
  80d0b0:	10800044 	addi	r2,r2,1
  80d0b4:	e0bffc15 	stw	r2,-16(fp)
  80d0b8:	003fcb06 	br	80cfe8 <find_file_in_directory+0x298>
                }
            }
            // If this is the end of the cluster and the file has not been found, then see if there is another cluster
            // that holds data for the current directory.
            if (result == false)
  80d0bc:	e0bff917 	ldw	r2,-28(fp)
  80d0c0:	1004c03a 	cmpne	r2,r2,zero
  80d0c4:	1000111e 	bne	r2,zero,80d10c <find_file_in_directory+0x3bc>
            {
				unsigned short int new_cluster;

				if (get_cluster_flag(cluster, &new_cluster))
  80d0c8:	e17ffe04 	addi	r5,fp,-8
  80d0cc:	e13ff617 	ldw	r4,-40(fp)
  80d0d0:	080b4c00 	call	80b4c0 <get_cluster_flag>
  80d0d4:	1005003a 	cmpeq	r2,r2,zero
  80d0d8:	10000a1e 	bne	r2,zero,80d104 <find_file_in_directory+0x3b4>
				{
					// The directory needs to be expanded to store more files.
					if ((new_cluster & 0x0000fff8) == 0x0000fff8)
  80d0dc:	e0bffe0b 	ldhu	r2,-8(fp)
  80d0e0:	10fffe0c 	andi	r3,r2,65528
  80d0e4:	00bffe14 	movui	r2,65528
  80d0e8:	1880021e 	bne	r3,r2,80d0f4 <find_file_in_directory+0x3a4>
					{
						return false;
  80d0ec:	e03fff15 	stw	zero,-4(fp)
  80d0f0:	00000f06 	br	80d130 <find_file_in_directory+0x3e0>
					}
					cluster = (new_cluster & 0x0000fff8);
  80d0f4:	e0bffe0b 	ldhu	r2,-8(fp)
  80d0f8:	10bffe0c 	andi	r2,r2,65528
  80d0fc:	e0bff615 	stw	r2,-40(fp)
  80d100:	00000206 	br	80d10c <find_file_in_directory+0x3bc>
				}
				else
                {
                    // Directory path is invalid.
                    return false;
  80d104:	e03fff15 	stw	zero,-4(fp)
  80d108:	00000906 	br	80d130 <find_file_in_directory+0x3e0>
                }
            }
        } while ((cluster < 0x0000fff8) && (result == false));
  80d10c:	e0fff617 	ldw	r3,-40(fp)
  80d110:	00bffdd4 	movui	r2,65527
  80d114:	10c00416 	blt	r2,r3,80d128 <find_file_in_directory+0x3d8>
  80d118:	e0bff917 	ldw	r2,-28(fp)
  80d11c:	1004c03a 	cmpne	r2,r2,zero
  80d120:	1000011e 	bne	r2,zero,80d128 <find_file_in_directory+0x3d8>
  80d124:	003fa306 	br	80cfb4 <find_file_in_directory+0x264>
    }

    return result;
  80d128:	e0bff917 	ldw	r2,-28(fp)
  80d12c:	e0bfff15 	stw	r2,-4(fp)
}
  80d130:	e0bfff17 	ldw	r2,-4(fp)
  80d134:	dfc01417 	ldw	ra,80(sp)
  80d138:	df001317 	ldw	fp,76(sp)
  80d13c:	dec01504 	addi	sp,sp,84
  80d140:	f800283a 	ret

0080d144 <find_first_empty_cluster>:


bool find_first_empty_cluster(unsigned int *cluster_number)
// Find the first empty cluster. It will be marked by a 0 entry in the File Allocation Table.
{
  80d144:	defff504 	addi	sp,sp,-44
  80d148:	dfc00a15 	stw	ra,40(sp)
  80d14c:	df000915 	stw	fp,36(sp)
  80d150:	df000904 	addi	fp,sp,36
  80d154:	e13ff715 	stw	r4,-36(fp)
    unsigned int sector = boot_sector_data.first_fat_sector_offset;
  80d158:	00802074 	movhi	r2,129
  80d15c:	1088a704 	addi	r2,r2,8860
  80d160:	10801117 	ldw	r2,68(r2)
  80d164:	e0bff815 	stw	r2,-32(fp)
    unsigned int cluster_index = 2;
  80d168:	00800084 	movi	r2,2
  80d16c:	e0bff915 	stw	r2,-28(fp)
    short int cluster = -1;
  80d170:	00bfffc4 	movi	r2,-1
  80d174:	e0bffa0d 	sth	r2,-24(fp)
    bool result = false;
  80d178:	e03ffb15 	stw	zero,-20(fp)
	unsigned max_cluster_index = 0;
  80d17c:	e03ffc15 	stw	zero,-16(fp)
	unsigned int non_data_sectors = boot_sector_data.data_sector_offset;
  80d180:	00802074 	movhi	r2,129
  80d184:	1088a704 	addi	r2,r2,8860
  80d188:	10801417 	ldw	r2,80(r2)
  80d18c:	e0bffd15 	stw	r2,-12(fp)
	unsigned int less_than_32 = boot_sector_data.number_of_sectors_in_partition;
  80d190:	00802074 	movhi	r2,129
  80d194:	1088a704 	addi	r2,r2,8860
  80d198:	1080058b 	ldhu	r2,22(r2)
  80d19c:	e0bffe15 	stw	r2,-8(fp)
	unsigned int greater_than_32 = boot_sector_data.total_sector_count_if_above_32MB;
  80d1a0:	00802074 	movhi	r2,129
  80d1a4:	1088a704 	addi	r2,r2,8860
  80d1a8:	10800917 	ldw	r2,36(r2)
  80d1ac:	e0bfff15 	stw	r2,-4(fp)

	if (less_than_32 > greater_than_32)
  80d1b0:	e0fffe17 	ldw	r3,-8(fp)
  80d1b4:	e0bfff17 	ldw	r2,-4(fp)
  80d1b8:	10c00a2e 	bgeu	r2,r3,80d1e4 <find_first_empty_cluster+0xa0>
	{
		max_cluster_index = ((less_than_32 - non_data_sectors) / boot_sector_data.sectors_per_cluster) + 1;
  80d1bc:	e0fffe17 	ldw	r3,-8(fp)
  80d1c0:	e0bffd17 	ldw	r2,-12(fp)
  80d1c4:	1889c83a 	sub	r4,r3,r2
  80d1c8:	00802074 	movhi	r2,129
  80d1cc:	1088a704 	addi	r2,r2,8860
  80d1d0:	11400383 	ldbu	r5,14(r2)
  80d1d4:	08007840 	call	800784 <__udivsi3>
  80d1d8:	10800044 	addi	r2,r2,1
  80d1dc:	e0bffc15 	stw	r2,-16(fp)
  80d1e0:	00000906 	br	80d208 <find_first_empty_cluster+0xc4>
	}
	else
	{
		max_cluster_index = ((greater_than_32 - non_data_sectors) / boot_sector_data.sectors_per_cluster) + 1;
  80d1e4:	e0ffff17 	ldw	r3,-4(fp)
  80d1e8:	e0bffd17 	ldw	r2,-12(fp)
  80d1ec:	1889c83a 	sub	r4,r3,r2
  80d1f0:	00802074 	movhi	r2,129
  80d1f4:	1088a704 	addi	r2,r2,8860
  80d1f8:	11400383 	ldbu	r5,14(r2)
  80d1fc:	08007840 	call	800784 <__udivsi3>
  80d200:	10800044 	addi	r2,r2,1
  80d204:	e0bffc15 	stw	r2,-16(fp)
	}
    // Find an empty cluster for the file.
    while (sector != boot_sector_data.second_fat_sector_offset)
  80d208:	00802074 	movhi	r2,129
  80d20c:	1088a704 	addi	r2,r2,8860
  80d210:	10c01217 	ldw	r3,72(r2)
  80d214:	e0bff817 	ldw	r2,-32(fp)
  80d218:	18802226 	beq	r3,r2,80d2a4 <find_first_empty_cluster+0x160>
    {
        if (Read_Sector_Data( sector, fat_partition_offset_in_512_byte_sectors))
  80d21c:	e13ff817 	ldw	r4,-32(fp)
  80d220:	d1602217 	ldw	r5,-32632(gp)
  80d224:	080b3dc0 	call	80b3dc <Read_Sector_Data>
  80d228:	1005003a 	cmpeq	r2,r2,zero
  80d22c:	1000151e 	bne	r2,zero,80d284 <find_first_empty_cluster+0x140>
        {
            do {
                cluster = ((unsigned short int) IORD_16DIRECT(device_pointer->base, 2*(cluster_index % 256)));
  80d230:	d1202417 	ldw	r4,-32624(gp)
  80d234:	e0bff917 	ldw	r2,-28(fp)
  80d238:	10c03fcc 	andi	r3,r2,255
  80d23c:	1805883a 	mov	r2,r3
  80d240:	10c7883a 	add	r3,r2,r3
  80d244:	20800a17 	ldw	r2,40(r4)
  80d248:	1885883a 	add	r2,r3,r2
  80d24c:	1080002b 	ldhuio	r2,0(r2)
  80d250:	e0bffa0d 	sth	r2,-24(fp)
                if (cluster == 0)
  80d254:	e0bffa0f 	ldh	r2,-24(fp)
  80d258:	1004c03a 	cmpne	r2,r2,zero
  80d25c:	1000011e 	bne	r2,zero,80d264 <find_first_empty_cluster+0x120>
                {
                    // Free cluster found.
                    break;
  80d260:	00000806 	br	80d284 <find_first_empty_cluster+0x140>
                }
                else
                {
                    cluster_index++;
  80d264:	e0bff917 	ldw	r2,-28(fp)
  80d268:	10800044 	addi	r2,r2,1
  80d26c:	e0bff915 	stw	r2,-28(fp)
                }
            } while ((cluster_index % 256) != 0);
  80d270:	e0bff917 	ldw	r2,-28(fp)
  80d274:	10803fcc 	andi	r2,r2,255
  80d278:	1005003a 	cmpeq	r2,r2,zero
  80d27c:	1000011e 	bne	r2,zero,80d284 <find_first_empty_cluster+0x140>
  80d280:	003feb06 	br	80d230 <find_first_empty_cluster+0xec>
        }
        if (cluster == 0)
  80d284:	e0bffa0f 	ldh	r2,-24(fp)
  80d288:	1004c03a 	cmpne	r2,r2,zero
  80d28c:	1000011e 	bne	r2,zero,80d294 <find_first_empty_cluster+0x150>
        {
            break;
  80d290:	00000406 	br	80d2a4 <find_first_empty_cluster+0x160>
        }
        sector++;
  80d294:	e0bff817 	ldw	r2,-32(fp)
  80d298:	10800044 	addi	r2,r2,1
  80d29c:	e0bff815 	stw	r2,-32(fp)
  80d2a0:	003fd906 	br	80d208 <find_first_empty_cluster+0xc4>
    }
    if ((cluster == 0) && (cluster <= max_cluster_index))
  80d2a4:	e0bffa0f 	ldh	r2,-24(fp)
  80d2a8:	1004c03a 	cmpne	r2,r2,zero
  80d2ac:	1000081e 	bne	r2,zero,80d2d0 <find_first_empty_cluster+0x18c>
  80d2b0:	e0fffa0f 	ldh	r3,-24(fp)
  80d2b4:	e0bffc17 	ldw	r2,-16(fp)
  80d2b8:	10c00536 	bltu	r2,r3,80d2d0 <find_first_empty_cluster+0x18c>
    {
        *cluster_number = cluster_index;
  80d2bc:	e0bff717 	ldw	r2,-36(fp)
  80d2c0:	e0fff917 	ldw	r3,-28(fp)
  80d2c4:	10c00015 	stw	r3,0(r2)
		result = true;
  80d2c8:	00800044 	movi	r2,1
  80d2cc:	e0bffb15 	stw	r2,-20(fp)
    }
    return result;
  80d2d0:	e0bffb17 	ldw	r2,-20(fp)
}
  80d2d4:	dfc00a17 	ldw	ra,40(sp)
  80d2d8:	df000917 	ldw	fp,36(sp)
  80d2dc:	dec00b04 	addi	sp,sp,44
  80d2e0:	f800283a 	ret

0080d2e4 <find_first_empty_record_in_a_subdirectory>:


int find_first_empty_record_in_a_subdirectory(int start_cluster_index)
// Search for a free spot in a subdirectory. Return an encoded location for the file record.
{
  80d2e4:	defff604 	addi	sp,sp,-40
  80d2e8:	dfc00915 	stw	ra,36(sp)
  80d2ec:	df000815 	stw	fp,32(sp)
  80d2f0:	df000804 	addi	fp,sp,32
  80d2f4:	e13ff815 	stw	r4,-32(fp)
    int result = -1;
  80d2f8:	00bfffc4 	movi	r2,-1
  80d2fc:	e0bff915 	stw	r2,-28(fp)
    int cluster = start_cluster_index;
  80d300:	e0bff817 	ldw	r2,-32(fp)
  80d304:	e0bffa15 	stw	r2,-24(fp)
    do {
        int start_sector = ( cluster - 2 ) * ( boot_sector_data.sectors_per_cluster ) + boot_sector_data.data_sector_offset;
  80d308:	e0bffa17 	ldw	r2,-24(fp)
  80d30c:	113fff84 	addi	r4,r2,-2
  80d310:	00802074 	movhi	r2,129
  80d314:	1088a704 	addi	r2,r2,8860
  80d318:	11400383 	ldbu	r5,14(r2)
  80d31c:	08007a40 	call	8007a4 <__mulsi3>
  80d320:	1007883a 	mov	r3,r2
  80d324:	00802074 	movhi	r2,129
  80d328:	1088a704 	addi	r2,r2,8860
  80d32c:	10801417 	ldw	r2,80(r2)
  80d330:	1885883a 	add	r2,r3,r2
  80d334:	e0bffb15 	stw	r2,-20(fp)
        int sector_index;

        for (sector_index = 0; sector_index < boot_sector_data.sectors_per_cluster; sector_index++)
  80d338:	e03ffc15 	stw	zero,-16(fp)
  80d33c:	00802074 	movhi	r2,129
  80d340:	1088a704 	addi	r2,r2,8860
  80d344:	10c00383 	ldbu	r3,14(r2)
  80d348:	e0bffc17 	ldw	r2,-16(fp)
  80d34c:	10c02c0e 	bge	r2,r3,80d400 <find_first_empty_record_in_a_subdirectory+0x11c>
        {
            if (Read_Sector_Data(sector_index + start_sector, fat_partition_offset_in_512_byte_sectors))
  80d350:	e0fffc17 	ldw	r3,-16(fp)
  80d354:	e0bffb17 	ldw	r2,-20(fp)
  80d358:	1889883a 	add	r4,r3,r2
  80d35c:	d1602217 	ldw	r5,-32632(gp)
  80d360:	080b3dc0 	call	80b3dc <Read_Sector_Data>
  80d364:	1005003a 	cmpeq	r2,r2,zero
  80d368:	1000251e 	bne	r2,zero,80d400 <find_first_empty_record_in_a_subdirectory+0x11c>
            {
                int file_counter;

                for (file_counter = 0; file_counter < 16; file_counter++)
  80d36c:	e03ffd15 	stw	zero,-12(fp)
  80d370:	e0bffd17 	ldw	r2,-12(fp)
  80d374:	10800408 	cmpgei	r2,r2,16
  80d378:	10001d1e 	bne	r2,zero,80d3f0 <find_first_empty_record_in_a_subdirectory+0x10c>
                {
                    unsigned short int leading_char;

                    // Read file record.
                    leading_char = ((unsigned char) IORD_8DIRECT(device_pointer->base, file_counter*32));
  80d37c:	d1202417 	ldw	r4,-32624(gp)
  80d380:	e0bffd17 	ldw	r2,-12(fp)
  80d384:	1006917a 	slli	r3,r2,5
  80d388:	20800a17 	ldw	r2,40(r4)
  80d38c:	1885883a 	add	r2,r3,r2
  80d390:	10800023 	ldbuio	r2,0(r2)
  80d394:	10803fcc 	andi	r2,r2,255
  80d398:	e0bffe0d 	sth	r2,-8(fp)
                    if ((leading_char == 0x00e5) || (leading_char == 0))
  80d39c:	e0bffe0b 	ldhu	r2,-8(fp)
  80d3a0:	10803960 	cmpeqi	r2,r2,229
  80d3a4:	1000031e 	bne	r2,zero,80d3b4 <find_first_empty_record_in_a_subdirectory+0xd0>
  80d3a8:	e0bffe0b 	ldhu	r2,-8(fp)
  80d3ac:	1004c03a 	cmpne	r2,r2,zero
  80d3b0:	10000b1e 	bne	r2,zero,80d3e0 <find_first_empty_record_in_a_subdirectory+0xfc>
                    {
                        result = (cluster) | ((sector_index*16 + file_counter) << 16);
  80d3b4:	e0bffc17 	ldw	r2,-16(fp)
  80d3b8:	1006913a 	slli	r3,r2,4
  80d3bc:	e0bffd17 	ldw	r2,-12(fp)
  80d3c0:	1885883a 	add	r2,r3,r2
  80d3c4:	1006943a 	slli	r3,r2,16
  80d3c8:	e0bffa17 	ldw	r2,-24(fp)
  80d3cc:	1884b03a 	or	r2,r3,r2
  80d3d0:	e0bff915 	stw	r2,-28(fp)
                        return result;
  80d3d4:	e0bff917 	ldw	r2,-28(fp)
  80d3d8:	e0bfff15 	stw	r2,-4(fp)
  80d3dc:	00004806 	br	80d500 <find_first_empty_record_in_a_subdirectory+0x21c>
  80d3e0:	e0bffd17 	ldw	r2,-12(fp)
  80d3e4:	10800044 	addi	r2,r2,1
  80d3e8:	e0bffd15 	stw	r2,-12(fp)
  80d3ec:	003fe006 	br	80d370 <find_first_empty_record_in_a_subdirectory+0x8c>
  80d3f0:	e0bffc17 	ldw	r2,-16(fp)
  80d3f4:	10800044 	addi	r2,r2,1
  80d3f8:	e0bffc15 	stw	r2,-16(fp)
  80d3fc:	003fcf06 	br	80d33c <find_first_empty_record_in_a_subdirectory+0x58>
                    }
                }
            }
            else
            {
                break;
            }
        }
        // If this is the end of the cluster and the file has not been found, then see if there is another cluster
        // that holds data for the current directory.
        if (result < 0)
  80d400:	e0bff917 	ldw	r2,-28(fp)
  80d404:	1004403a 	cmpge	r2,r2,zero
  80d408:	1000341e 	bne	r2,zero,80d4dc <find_first_empty_record_in_a_subdirectory+0x1f8>
        {
			unsigned short int new_cluster;
			if (get_cluster_flag(cluster, &new_cluster))
  80d40c:	e17ffe04 	addi	r5,fp,-8
  80d410:	e13ffa17 	ldw	r4,-24(fp)
  80d414:	080b4c00 	call	80b4c0 <get_cluster_flag>
  80d418:	1005003a 	cmpeq	r2,r2,zero
  80d41c:	10002d1e 	bne	r2,zero,80d4d4 <find_first_empty_record_in_a_subdirectory+0x1f0>
			{
                // The directory needs to be expanded to store more files.
				if ((new_cluster & 0x0000fff8) == 0x0000fff8)
  80d420:	e0bffe0b 	ldhu	r2,-8(fp)
  80d424:	10fffe0c 	andi	r3,r2,65528
  80d428:	00bffe14 	movui	r2,65528
  80d42c:	18802b1e 	bne	r3,r2,80d4dc <find_first_empty_record_in_a_subdirectory+0x1f8>
				{
					int new_dir_cluster;
					if (find_first_empty_cluster(&new_dir_cluster))
  80d430:	e13ffd04 	addi	r4,fp,-12
  80d434:	080d1440 	call	80d144 <find_first_empty_cluster>
  80d438:	1005003a 	cmpeq	r2,r2,zero
  80d43c:	1000211e 	bne	r2,zero,80d4c4 <find_first_empty_record_in_a_subdirectory+0x1e0>
					{
						// Add the new cluster to the linked list of the given directory.
						if (mark_cluster(cluster, ((short int) (new_dir_cluster)), true) &&
  80d440:	e0bffd17 	ldw	r2,-12(fp)
  80d444:	117fffcc 	andi	r5,r2,65535
  80d448:	2960001c 	xori	r5,r5,32768
  80d44c:	29600004 	addi	r5,r5,-32768
  80d450:	e13ffa17 	ldw	r4,-24(fp)
  80d454:	01800044 	movi	r6,1
  80d458:	080b5700 	call	80b570 <mark_cluster>
  80d45c:	1005003a 	cmpeq	r2,r2,zero
  80d460:	1000181e 	bne	r2,zero,80d4c4 <find_first_empty_record_in_a_subdirectory+0x1e0>
  80d464:	e13ffd17 	ldw	r4,-12(fp)
  80d468:	017fffc4 	movi	r5,-1
  80d46c:	01800044 	movi	r6,1
  80d470:	080b5700 	call	80b570 <mark_cluster>
  80d474:	1005003a 	cmpeq	r2,r2,zero
  80d478:	1000121e 	bne	r2,zero,80d4c4 <find_first_empty_record_in_a_subdirectory+0x1e0>
  80d47c:	e0bffd17 	ldw	r2,-12(fp)
  80d480:	117fffcc 	andi	r5,r2,65535
  80d484:	2960001c 	xori	r5,r5,32768
  80d488:	29600004 	addi	r5,r5,-32768
  80d48c:	e13ffa17 	ldw	r4,-24(fp)
  80d490:	000d883a 	mov	r6,zero
  80d494:	080b5700 	call	80b570 <mark_cluster>
  80d498:	1005003a 	cmpeq	r2,r2,zero
  80d49c:	1000091e 	bne	r2,zero,80d4c4 <find_first_empty_record_in_a_subdirectory+0x1e0>
  80d4a0:	e13ffd17 	ldw	r4,-12(fp)
  80d4a4:	017fffc4 	movi	r5,-1
  80d4a8:	000d883a 	mov	r6,zero
  80d4ac:	080b5700 	call	80b570 <mark_cluster>
  80d4b0:	1005003a 	cmpeq	r2,r2,zero
  80d4b4:	1000031e 	bne	r2,zero,80d4c4 <find_first_empty_record_in_a_subdirectory+0x1e0>
							mark_cluster(new_dir_cluster, ((short int) (0xffff)), true) &&
							mark_cluster(cluster, ((short int) (new_dir_cluster)), false) &&
							mark_cluster(new_dir_cluster, ((short int) (0xffff)), false))
						{
							Save_Modified_Sector();
  80d4b8:	080b3940 	call	80b394 <Save_Modified_Sector>
							// The new file will begin at the first entry of the directory.
							result = new_dir_cluster;
  80d4bc:	e0bffd17 	ldw	r2,-12(fp)
  80d4c0:	e0bff915 	stw	r2,-28(fp)
						}
					}
					cluster = (new_cluster & 0x0000fff8);
  80d4c4:	e0bffe0b 	ldhu	r2,-8(fp)
  80d4c8:	10bffe0c 	andi	r2,r2,65528
  80d4cc:	e0bffa15 	stw	r2,-24(fp)
  80d4d0:	00000206 	br	80d4dc <find_first_empty_record_in_a_subdirectory+0x1f8>
				}
			}
			else
			{
				// Error encountered.
				result = -1;
  80d4d4:	00bfffc4 	movi	r2,-1
  80d4d8:	e0bff915 	stw	r2,-28(fp)
			}
        }
    } while ((cluster < 0x0000fff8) && (result == -1));
  80d4dc:	e0fffa17 	ldw	r3,-24(fp)
  80d4e0:	00bffdd4 	movui	r2,65527
  80d4e4:	10c00416 	blt	r2,r3,80d4f8 <find_first_empty_record_in_a_subdirectory+0x214>
  80d4e8:	e0bff917 	ldw	r2,-28(fp)
  80d4ec:	10bfffd8 	cmpnei	r2,r2,-1
  80d4f0:	1000011e 	bne	r2,zero,80d4f8 <find_first_empty_record_in_a_subdirectory+0x214>
  80d4f4:	003f8406 	br	80d308 <find_first_empty_record_in_a_subdirectory+0x24>
    return result;
  80d4f8:	e0bff917 	ldw	r2,-28(fp)
  80d4fc:	e0bfff15 	stw	r2,-4(fp)
}
  80d500:	e0bfff17 	ldw	r2,-4(fp)
  80d504:	dfc00917 	ldw	ra,36(sp)
  80d508:	df000817 	ldw	fp,32(sp)
  80d50c:	dec00a04 	addi	sp,sp,40
  80d510:	f800283a 	ret

0080d514 <find_first_empty_record_in_root_directory>:


int find_first_empty_record_in_root_directory()
// Find a first unused record location to use. Return -1 if none is found.
{
  80d514:	defff804 	addi	sp,sp,-32
  80d518:	dfc00715 	stw	ra,28(sp)
  80d51c:	df000615 	stw	fp,24(sp)
  80d520:	df000604 	addi	fp,sp,24
    int max_root_dir_sectors = ((32*boot_sector_data.max_number_of_dir_entires) / boot_sector_data.sector_size_in_bytes);
  80d524:	00802074 	movhi	r2,129
  80d528:	1088a704 	addi	r2,r2,8860
  80d52c:	1080050b 	ldhu	r2,20(r2)
  80d530:	1008917a 	slli	r4,r2,5
  80d534:	00802074 	movhi	r2,129
  80d538:	1088a704 	addi	r2,r2,8860
  80d53c:	1140030b 	ldhu	r5,12(r2)
  80d540:	08006e80 	call	8006e8 <__divsi3>
  80d544:	e0bffa15 	stw	r2,-24(fp)
    int sector_index;
    int result = -1;
  80d548:	00bfffc4 	movi	r2,-1
  80d54c:	e0bffc15 	stw	r2,-16(fp)

    for (sector_index = 0; sector_index < max_root_dir_sectors; sector_index++)
  80d550:	e03ffb15 	stw	zero,-20(fp)
  80d554:	e0fffb17 	ldw	r3,-20(fp)
  80d558:	e0bffa17 	ldw	r2,-24(fp)
  80d55c:	18802c0e 	bge	r3,r2,80d610 <find_first_empty_record_in_root_directory+0xfc>
    {
        if (Read_Sector_Data(   sector_index + boot_sector_data.root_directory_sector_offset,
  80d560:	00802074 	movhi	r2,129
  80d564:	1088a704 	addi	r2,r2,8860
  80d568:	10c01317 	ldw	r3,76(r2)
  80d56c:	e0bffb17 	ldw	r2,-20(fp)
  80d570:	1889883a 	add	r4,r3,r2
  80d574:	d1602217 	ldw	r5,-32632(gp)
  80d578:	080b3dc0 	call	80b3dc <Read_Sector_Data>
  80d57c:	1005003a 	cmpeq	r2,r2,zero
  80d580:	1000231e 	bne	r2,zero,80d610 <find_first_empty_record_in_root_directory+0xfc>
                                fat_partition_offset_in_512_byte_sectors))
        {
            int file_counter;

            for (file_counter = 0; file_counter < 16; file_counter++)
  80d584:	e03ffd15 	stw	zero,-12(fp)
  80d588:	e0bffd17 	ldw	r2,-12(fp)
  80d58c:	10800408 	cmpgei	r2,r2,16
  80d590:	10001b1e 	bne	r2,zero,80d600 <find_first_empty_record_in_root_directory+0xec>
            {
                unsigned short int leading_char;

                // Read first character of the file record.
                leading_char = ((unsigned char) IORD_8DIRECT(device_pointer->base, file_counter*32));
  80d594:	d1202417 	ldw	r4,-32624(gp)
  80d598:	e0bffd17 	ldw	r2,-12(fp)
  80d59c:	1006917a 	slli	r3,r2,5
  80d5a0:	20800a17 	ldw	r2,40(r4)
  80d5a4:	1885883a 	add	r2,r3,r2
  80d5a8:	10800023 	ldbuio	r2,0(r2)
  80d5ac:	10803fcc 	andi	r2,r2,255
  80d5b0:	e0bffe0d 	sth	r2,-8(fp)
                if ((leading_char == 0x00e5) || (leading_char == 0))
  80d5b4:	e0bffe0b 	ldhu	r2,-8(fp)
  80d5b8:	10803960 	cmpeqi	r2,r2,229
  80d5bc:	1000031e 	bne	r2,zero,80d5cc <find_first_empty_record_in_root_directory+0xb8>
  80d5c0:	e0bffe0b 	ldhu	r2,-8(fp)
  80d5c4:	1004c03a 	cmpne	r2,r2,zero
  80d5c8:	1000091e 	bne	r2,zero,80d5f0 <find_first_empty_record_in_root_directory+0xdc>
                {
                    result = (sector_index*16 + file_counter) << 16;
  80d5cc:	e0bffb17 	ldw	r2,-20(fp)
  80d5d0:	1006913a 	slli	r3,r2,4
  80d5d4:	e0bffd17 	ldw	r2,-12(fp)
  80d5d8:	1885883a 	add	r2,r3,r2
  80d5dc:	1004943a 	slli	r2,r2,16
  80d5e0:	e0bffc15 	stw	r2,-16(fp)
                    return result;
  80d5e4:	e0bffc17 	ldw	r2,-16(fp)
  80d5e8:	e0bfff15 	stw	r2,-4(fp)
  80d5ec:	00000a06 	br	80d618 <find_first_empty_record_in_root_directory+0x104>
  80d5f0:	e0bffd17 	ldw	r2,-12(fp)
  80d5f4:	10800044 	addi	r2,r2,1
  80d5f8:	e0bffd15 	stw	r2,-12(fp)
  80d5fc:	003fe206 	br	80d588 <find_first_empty_record_in_root_directory+0x74>
  80d600:	e0bffb17 	ldw	r2,-20(fp)
  80d604:	10800044 	addi	r2,r2,1
  80d608:	e0bffb15 	stw	r2,-20(fp)
  80d60c:	003fd106 	br	80d554 <find_first_empty_record_in_root_directory+0x40>
                }
            }
        }
        else
        {
            break;
        }
    }
    return result;
  80d610:	e0bffc17 	ldw	r2,-16(fp)
  80d614:	e0bfff15 	stw	r2,-4(fp)
}
  80d618:	e0bfff17 	ldw	r2,-4(fp)
  80d61c:	dfc00717 	ldw	ra,28(sp)
  80d620:	df000617 	ldw	fp,24(sp)
  80d624:	dec00804 	addi	sp,sp,32
  80d628:	f800283a 	ret

0080d62c <convert_filename_to_name_extension>:

void convert_filename_to_name_extension(char *filename, char *name, char *extension)
// This function converts the file name into a name . extension format.
{
  80d62c:	defffa04 	addi	sp,sp,-24
  80d630:	df000515 	stw	fp,20(sp)
  80d634:	df000504 	addi	fp,sp,20
  80d638:	e13ffb15 	stw	r4,-20(fp)
  80d63c:	e17ffc15 	stw	r5,-16(fp)
  80d640:	e1bffd15 	stw	r6,-12(fp)
    int counter;
    int local = 0;
  80d644:	e03fff15 	stw	zero,-4(fp)

    for(counter = 0; counter < 8; counter++)
  80d648:	e03ffe15 	stw	zero,-8(fp)
  80d64c:	e0bffe17 	ldw	r2,-8(fp)
  80d650:	10800208 	cmpgei	r2,r2,8
  80d654:	1000211e 	bne	r2,zero,80d6dc <convert_filename_to_name_extension+0xb0>
    {
        if (filename[local] != '.')
  80d658:	e0fffb17 	ldw	r3,-20(fp)
  80d65c:	e0bfff17 	ldw	r2,-4(fp)
  80d660:	1885883a 	add	r2,r3,r2
  80d664:	10800007 	ldb	r2,0(r2)
  80d668:	10800ba0 	cmpeqi	r2,r2,46
  80d66c:	1000121e 	bne	r2,zero,80d6b8 <convert_filename_to_name_extension+0x8c>
        {
            name[counter] = filename[local];
  80d670:	e0fffc17 	ldw	r3,-16(fp)
  80d674:	e0bffe17 	ldw	r2,-8(fp)
  80d678:	1889883a 	add	r4,r3,r2
  80d67c:	e0fffb17 	ldw	r3,-20(fp)
  80d680:	e0bfff17 	ldw	r2,-4(fp)
  80d684:	1885883a 	add	r2,r3,r2
  80d688:	10800003 	ldbu	r2,0(r2)
  80d68c:	20800005 	stb	r2,0(r4)
            if (filename[local] != 0) local++;
  80d690:	e0fffb17 	ldw	r3,-20(fp)
  80d694:	e0bfff17 	ldw	r2,-4(fp)
  80d698:	1885883a 	add	r2,r3,r2
  80d69c:	10800007 	ldb	r2,0(r2)
  80d6a0:	1005003a 	cmpeq	r2,r2,zero
  80d6a4:	1000091e 	bne	r2,zero,80d6cc <convert_filename_to_name_extension+0xa0>
  80d6a8:	e0bfff17 	ldw	r2,-4(fp)
  80d6ac:	10800044 	addi	r2,r2,1
  80d6b0:	e0bfff15 	stw	r2,-4(fp)
  80d6b4:	00000506 	br	80d6cc <convert_filename_to_name_extension+0xa0>
        }
        else
        {
            name[counter] = ' ';
  80d6b8:	e0fffc17 	ldw	r3,-16(fp)
  80d6bc:	e0bffe17 	ldw	r2,-8(fp)
  80d6c0:	1887883a 	add	r3,r3,r2
  80d6c4:	00800804 	movi	r2,32
  80d6c8:	18800005 	stb	r2,0(r3)
  80d6cc:	e0bffe17 	ldw	r2,-8(fp)
  80d6d0:	10800044 	addi	r2,r2,1
  80d6d4:	e0bffe15 	stw	r2,-8(fp)
  80d6d8:	003fdc06 	br	80d64c <convert_filename_to_name_extension+0x20>
        }
    }
    if (filename[local] == '.') local++;
  80d6dc:	e0fffb17 	ldw	r3,-20(fp)
  80d6e0:	e0bfff17 	ldw	r2,-4(fp)
  80d6e4:	1885883a 	add	r2,r3,r2
  80d6e8:	10800007 	ldb	r2,0(r2)
  80d6ec:	10800b98 	cmpnei	r2,r2,46
  80d6f0:	1000031e 	bne	r2,zero,80d700 <convert_filename_to_name_extension+0xd4>
  80d6f4:	e0bfff17 	ldw	r2,-4(fp)
  80d6f8:	10800044 	addi	r2,r2,1
  80d6fc:	e0bfff15 	stw	r2,-4(fp)
    for(counter = 0; counter < 3; counter++)
  80d700:	e03ffe15 	stw	zero,-8(fp)
  80d704:	e0bffe17 	ldw	r2,-8(fp)
  80d708:	108000c8 	cmpgei	r2,r2,3
  80d70c:	10001b1e 	bne	r2,zero,80d77c <convert_filename_to_name_extension+0x150>
    {
        if (filename[local] != 0)
  80d710:	e0fffb17 	ldw	r3,-20(fp)
  80d714:	e0bfff17 	ldw	r2,-4(fp)
  80d718:	1885883a 	add	r2,r3,r2
  80d71c:	10800007 	ldb	r2,0(r2)
  80d720:	1005003a 	cmpeq	r2,r2,zero
  80d724:	10000c1e 	bne	r2,zero,80d758 <convert_filename_to_name_extension+0x12c>
        {
            extension[counter] = filename[local];
  80d728:	e0fffd17 	ldw	r3,-12(fp)
  80d72c:	e0bffe17 	ldw	r2,-8(fp)
  80d730:	1889883a 	add	r4,r3,r2
  80d734:	e0fffb17 	ldw	r3,-20(fp)
  80d738:	e0bfff17 	ldw	r2,-4(fp)
  80d73c:	1885883a 	add	r2,r3,r2
  80d740:	10800003 	ldbu	r2,0(r2)
  80d744:	20800005 	stb	r2,0(r4)
            local++;
  80d748:	e0bfff17 	ldw	r2,-4(fp)
  80d74c:	10800044 	addi	r2,r2,1
  80d750:	e0bfff15 	stw	r2,-4(fp)
  80d754:	00000506 	br	80d76c <convert_filename_to_name_extension+0x140>
        }
        else
        {
            extension[counter] = ' ';
  80d758:	e0fffd17 	ldw	r3,-12(fp)
  80d75c:	e0bffe17 	ldw	r2,-8(fp)
  80d760:	1887883a 	add	r3,r3,r2
  80d764:	00800804 	movi	r2,32
  80d768:	18800005 	stb	r2,0(r3)
  80d76c:	e0bffe17 	ldw	r2,-8(fp)
  80d770:	10800044 	addi	r2,r2,1
  80d774:	e0bffe15 	stw	r2,-8(fp)
  80d778:	003fe206 	br	80d704 <convert_filename_to_name_extension+0xd8>
        }
    }

}
  80d77c:	df000517 	ldw	fp,20(sp)
  80d780:	dec00604 	addi	sp,sp,24
  80d784:	f800283a 	ret

0080d788 <create_file>:

bool create_file(char *name, t_file_record *file_record, t_file_record *home_dir)
// Create a file in a given directory. Expand the directory if needed.
{
  80d788:	deffee04 	addi	sp,sp,-72
  80d78c:	dfc01115 	stw	ra,68(sp)
  80d790:	df001015 	stw	fp,64(sp)
  80d794:	dc000f15 	stw	r16,60(sp)
  80d798:	df001004 	addi	fp,sp,64
  80d79c:	e13ff015 	stw	r4,-64(fp)
  80d7a0:	e17ff115 	stw	r5,-60(fp)
  80d7a4:	e1bff215 	stw	r6,-56(fp)
    unsigned int cluster_number;
    bool result = false;
  80d7a8:	e03ff415 	stw	zero,-48(fp)

    if (find_first_empty_cluster(&cluster_number))
  80d7ac:	e13ff304 	addi	r4,fp,-52
  80d7b0:	080d1440 	call	80d144 <find_first_empty_cluster>
  80d7b4:	1005003a 	cmpeq	r2,r2,zero
  80d7b8:	1000ab1e 	bne	r2,zero,80da68 <create_file+0x2e0>
    {
        int record_index;

        if (home_dir->file_record_cluster == 0)
  80d7bc:	e0bff217 	ldw	r2,-56(fp)
  80d7c0:	10800a17 	ldw	r2,40(r2)
  80d7c4:	1004c03a 	cmpne	r2,r2,zero
  80d7c8:	1000031e 	bne	r2,zero,80d7d8 <create_file+0x50>
        {
            // Put a file in the root directory.
            record_index = find_first_empty_record_in_root_directory();
  80d7cc:	080d5140 	call	80d514 <find_first_empty_record_in_root_directory>
  80d7d0:	e0bff515 	stw	r2,-44(fp)
  80d7d4:	00000406 	br	80d7e8 <create_file+0x60>
        }
        else
        {
            // Put a file in a subdirectory.
            record_index = find_first_empty_record_in_a_subdirectory(home_dir->start_cluster_index);
  80d7d8:	e0bff217 	ldw	r2,-56(fp)
  80d7dc:	1100058b 	ldhu	r4,22(r2)
  80d7e0:	080d2e40 	call	80d2e4 <find_first_empty_record_in_a_subdirectory>
  80d7e4:	e0bff515 	stw	r2,-44(fp)
        }
        if (record_index >= 0)
  80d7e8:	e0bff517 	ldw	r2,-44(fp)
  80d7ec:	1004803a 	cmplt	r2,r2,zero
  80d7f0:	10009d1e 	bne	r2,zero,80da68 <create_file+0x2e0>
        {
            unsigned int file_record_sector;
            int location = get_dir_divider_location( name );
  80d7f4:	e13ff017 	ldw	r4,-64(fp)
  80d7f8:	080c5b80 	call	80c5b8 <get_dir_divider_location>
  80d7fc:	e0bff715 	stw	r2,-36(fp)
            int last_dir_separator = 0;
  80d800:	e03ff815 	stw	zero,-32(fp)

            // Skip through all directory separators.
            while (location > 0)
  80d804:	e0bff717 	ldw	r2,-36(fp)
  80d808:	10800050 	cmplti	r2,r2,1
  80d80c:	10000b1e 	bne	r2,zero,80d83c <create_file+0xb4>
            {
                last_dir_separator = last_dir_separator+location+1;
  80d810:	e0fff817 	ldw	r3,-32(fp)
  80d814:	e0bff717 	ldw	r2,-36(fp)
  80d818:	1885883a 	add	r2,r3,r2
  80d81c:	10800044 	addi	r2,r2,1
  80d820:	e0bff815 	stw	r2,-32(fp)
                location = get_dir_divider_location( &(name[last_dir_separator]) );
  80d824:	e0fff017 	ldw	r3,-64(fp)
  80d828:	e0bff817 	ldw	r2,-32(fp)
  80d82c:	1889883a 	add	r4,r3,r2
  80d830:	080c5b80 	call	80c5b8 <get_dir_divider_location>
  80d834:	e0bff715 	stw	r2,-36(fp)
  80d838:	003ff206 	br	80d804 <create_file+0x7c>
            }

            convert_filename_to_name_extension(&(name[last_dir_separator]), file_record->name, file_record->extension);
  80d83c:	e0fff017 	ldw	r3,-64(fp)
  80d840:	e0bff817 	ldw	r2,-32(fp)
  80d844:	1889883a 	add	r4,r3,r2
  80d848:	e0bff117 	ldw	r2,-60(fp)
  80d84c:	11800204 	addi	r6,r2,8
  80d850:	e17ff117 	ldw	r5,-60(fp)
  80d854:	080d62c0 	call	80d62c <convert_filename_to_name_extension>

            file_record->attributes = 0;
  80d858:	e0bff117 	ldw	r2,-60(fp)
  80d85c:	100002c5 	stb	zero,11(r2)
            file_record->create_time = 0;
  80d860:	e0bff117 	ldw	r2,-60(fp)
  80d864:	1000030d 	sth	zero,12(r2)
            file_record->create_date = 0;
  80d868:	e0bff117 	ldw	r2,-60(fp)
  80d86c:	1000038d 	sth	zero,14(r2)
            file_record->last_access_date = 0;
  80d870:	e0bff117 	ldw	r2,-60(fp)
  80d874:	1000040d 	sth	zero,16(r2)
            file_record->last_modified_time = 0;
  80d878:	e0bff117 	ldw	r2,-60(fp)
  80d87c:	1000048d 	sth	zero,18(r2)
            file_record->last_modified_date = 0;
  80d880:	e0bff117 	ldw	r2,-60(fp)
  80d884:	1000050d 	sth	zero,20(r2)
            file_record->start_cluster_index = cluster_number;
  80d888:	e0fff117 	ldw	r3,-60(fp)
  80d88c:	e0bff317 	ldw	r2,-52(fp)
  80d890:	1880058d 	sth	r2,22(r3)
            file_record->file_size_in_bytes = 0;
  80d894:	e0bff117 	ldw	r2,-60(fp)
  80d898:	10000615 	stw	zero,24(r2)
            file_record->current_cluster_index = cluster_number;
  80d89c:	e0fff117 	ldw	r3,-60(fp)
  80d8a0:	e0bff317 	ldw	r2,-52(fp)
  80d8a4:	18800715 	stw	r2,28(r3)
            file_record->current_sector_in_cluster = 0;
  80d8a8:	e0bff117 	ldw	r2,-60(fp)
  80d8ac:	10000815 	stw	zero,32(r2)
            file_record->current_byte_position = 0;
  80d8b0:	e0bff117 	ldw	r2,-60(fp)
  80d8b4:	10000915 	stw	zero,36(r2)
            file_record->file_record_cluster = record_index & 0x0000ffff;
  80d8b8:	e0fff117 	ldw	r3,-60(fp)
  80d8bc:	e0bff517 	ldw	r2,-44(fp)
  80d8c0:	10bfffcc 	andi	r2,r2,65535
  80d8c4:	18800a15 	stw	r2,40(r3)
            file_record->file_record_sector_in_cluster = ((record_index >> 16) & 0x0000ffff) / 16;
  80d8c8:	e0bff117 	ldw	r2,-60(fp)
  80d8cc:	e0bff915 	stw	r2,-28(fp)
  80d8d0:	e0bff517 	ldw	r2,-44(fp)
  80d8d4:	1005d43a 	srai	r2,r2,16
  80d8d8:	10bfffcc 	andi	r2,r2,65535
  80d8dc:	e0bffa15 	stw	r2,-24(fp)
  80d8e0:	e0fffa17 	ldw	r3,-24(fp)
  80d8e4:	1804403a 	cmpge	r2,r3,zero
  80d8e8:	1000031e 	bne	r2,zero,80d8f8 <create_file+0x170>
  80d8ec:	e0bffa17 	ldw	r2,-24(fp)
  80d8f0:	108003c4 	addi	r2,r2,15
  80d8f4:	e0bffa15 	stw	r2,-24(fp)
  80d8f8:	e0fffa17 	ldw	r3,-24(fp)
  80d8fc:	1805d13a 	srai	r2,r3,4
  80d900:	e0fff917 	ldw	r3,-28(fp)
  80d904:	18800b15 	stw	r2,44(r3)
            file_record->file_record_offset = (((record_index >> 16) & 0x0000ffff) % 16)*32;
  80d908:	e0bff117 	ldw	r2,-60(fp)
  80d90c:	e0bffb15 	stw	r2,-20(fp)
  80d910:	e0bff517 	ldw	r2,-44(fp)
  80d914:	1005d43a 	srai	r2,r2,16
  80d918:	10bfffcc 	andi	r2,r2,65535
  80d91c:	e0bffc15 	stw	r2,-16(fp)
  80d920:	e0fffc17 	ldw	r3,-16(fp)
  80d924:	e0fffd15 	stw	r3,-12(fp)
  80d928:	e0fffd17 	ldw	r3,-12(fp)
  80d92c:	1804403a 	cmpge	r2,r3,zero
  80d930:	1000031e 	bne	r2,zero,80d940 <create_file+0x1b8>
  80d934:	e0bffd17 	ldw	r2,-12(fp)
  80d938:	108003c4 	addi	r2,r2,15
  80d93c:	e0bffd15 	stw	r2,-12(fp)
  80d940:	e0fffd17 	ldw	r3,-12(fp)
  80d944:	1805d13a 	srai	r2,r3,4
  80d948:	1004913a 	slli	r2,r2,4
  80d94c:	e0fffc17 	ldw	r3,-16(fp)
  80d950:	1885c83a 	sub	r2,r3,r2
  80d954:	1004917a 	slli	r2,r2,5
  80d958:	e0fffb17 	ldw	r3,-20(fp)
  80d95c:	18800c0d 	sth	r2,48(r3)
            file_record->home_directory_cluster = home_dir->start_cluster_index;
  80d960:	e0fff117 	ldw	r3,-60(fp)
  80d964:	e0bff217 	ldw	r2,-56(fp)
  80d968:	1080058b 	ldhu	r2,22(r2)
  80d96c:	18800d15 	stw	r2,52(r3)
            file_record->in_use = true;
  80d970:	e0fff117 	ldw	r3,-60(fp)
  80d974:	00800044 	movi	r2,1
  80d978:	18800f15 	stw	r2,60(r3)
            file_record->modified = true;
  80d97c:	e0fff117 	ldw	r3,-60(fp)
  80d980:	00800044 	movi	r2,1
  80d984:	18800e15 	stw	r2,56(r3)
            // Now write the record at the specified location.
            file_record_sector = (file_record->file_record_cluster == 0) ?
  80d988:	e0bff117 	ldw	r2,-60(fp)
  80d98c:	10800a17 	ldw	r2,40(r2)
  80d990:	1004c03a 	cmpne	r2,r2,zero
  80d994:	1000081e 	bne	r2,zero,80d9b8 <create_file+0x230>
  80d998:	00802074 	movhi	r2,129
  80d99c:	1088a704 	addi	r2,r2,8860
  80d9a0:	e0fff117 	ldw	r3,-60(fp)
  80d9a4:	11001317 	ldw	r4,76(r2)
  80d9a8:	18800b17 	ldw	r2,44(r3)
  80d9ac:	2089883a 	add	r4,r4,r2
  80d9b0:	e13ffe15 	stw	r4,-8(fp)
  80d9b4:	00001206 	br	80da00 <create_file+0x278>
  80d9b8:	04002074 	movhi	r16,129
  80d9bc:	8408a704 	addi	r16,r16,8860
  80d9c0:	e0bff117 	ldw	r2,-60(fp)
  80d9c4:	10800a17 	ldw	r2,40(r2)
  80d9c8:	113fff84 	addi	r4,r2,-2
  80d9cc:	00802074 	movhi	r2,129
  80d9d0:	1088a704 	addi	r2,r2,8860
  80d9d4:	11400383 	ldbu	r5,14(r2)
  80d9d8:	08007a40 	call	8007a4 <__mulsi3>
  80d9dc:	1007883a 	mov	r3,r2
  80d9e0:	80801417 	ldw	r2,80(r16)
  80d9e4:	1887883a 	add	r3,r3,r2
  80d9e8:	e0fffe15 	stw	r3,-8(fp)
  80d9ec:	e0bff117 	ldw	r2,-60(fp)
  80d9f0:	10800b17 	ldw	r2,44(r2)
  80d9f4:	e0fffe17 	ldw	r3,-8(fp)
  80d9f8:	1887883a 	add	r3,r3,r2
  80d9fc:	e0fffe15 	stw	r3,-8(fp)
  80da00:	e0bffe17 	ldw	r2,-8(fp)
  80da04:	e0bff615 	stw	r2,-40(fp)
                                    (boot_sector_data.root_directory_sector_offset + file_record->file_record_sector_in_cluster):
                                    (boot_sector_data.data_sector_offset + (file_record->file_record_cluster-2)*boot_sector_data.sectors_per_cluster +
                                     file_record->file_record_sector_in_cluster);

			if (Read_Sector_Data(file_record_sector, fat_partition_offset_in_512_byte_sectors))
  80da08:	e13ff617 	ldw	r4,-40(fp)
  80da0c:	d1602217 	ldw	r5,-32632(gp)
  80da10:	080b3dc0 	call	80b3dc <Read_Sector_Data>
  80da14:	1005003a 	cmpeq	r2,r2,zero
  80da18:	1000131e 	bne	r2,zero,80da68 <create_file+0x2e0>
            {
                if (Write_File_Record_At_Offset(file_record->file_record_offset, file_record))
  80da1c:	e0bff117 	ldw	r2,-60(fp)
  80da20:	11000c0f 	ldh	r4,48(r2)
  80da24:	e17ff117 	ldw	r5,-60(fp)
  80da28:	080ba1c0 	call	80ba1c <Write_File_Record_At_Offset>
  80da2c:	1005003a 	cmpeq	r2,r2,zero
  80da30:	10000d1e 	bne	r2,zero,80da68 <create_file+0x2e0>
                {
                    Save_Modified_Sector();
  80da34:	080b3940 	call	80b394 <Save_Modified_Sector>
                    // Mark the first cluster of the file as the last cluster at first.
                    mark_cluster(cluster_number, ((short int) (0xffff)), true);
  80da38:	e13ff317 	ldw	r4,-52(fp)
  80da3c:	017fffc4 	movi	r5,-1
  80da40:	01800044 	movi	r6,1
  80da44:	080b5700 	call	80b570 <mark_cluster>
                    if (mark_cluster(cluster_number, ((short int) (0xffff)), false))
  80da48:	e13ff317 	ldw	r4,-52(fp)
  80da4c:	017fffc4 	movi	r5,-1
  80da50:	000d883a 	mov	r6,zero
  80da54:	080b5700 	call	80b570 <mark_cluster>
  80da58:	1005003a 	cmpeq	r2,r2,zero
  80da5c:	1000021e 	bne	r2,zero,80da68 <create_file+0x2e0>
                    {
                        result = true;
  80da60:	00800044 	movi	r2,1
  80da64:	e0bff415 	stw	r2,-48(fp)
                    }
                }
            }
        }

    }
    return result;
  80da68:	e0bff417 	ldw	r2,-48(fp)
}
  80da6c:	dfc01117 	ldw	ra,68(sp)
  80da70:	df001017 	ldw	fp,64(sp)
  80da74:	dc000f17 	ldw	r16,60(sp)
  80da78:	dec01204 	addi	sp,sp,72
  80da7c:	f800283a 	ret

0080da80 <copy_file_record_name_to_string>:


void copy_file_record_name_to_string(t_file_record *file_record, char *file_name)
/* Copy a file name from the file record to a given string */
{
  80da80:	defffb04 	addi	sp,sp,-20
  80da84:	df000415 	stw	fp,16(sp)
  80da88:	df000404 	addi	fp,sp,16
  80da8c:	e13ffc15 	stw	r4,-16(fp)
  80da90:	e17ffd15 	stw	r5,-12(fp)
	int index;
	int flength = 0;
  80da94:	e03fff15 	stw	zero,-4(fp)

	/* Copy file name.*/
	for (index = 0; index < 8; index++)
  80da98:	e03ffe15 	stw	zero,-8(fp)
  80da9c:	e0bffe17 	ldw	r2,-8(fp)
  80daa0:	10800208 	cmpgei	r2,r2,8
  80daa4:	1000151e 	bne	r2,zero,80dafc <copy_file_record_name_to_string+0x7c>
	{
		if (file_record->name[index] != ' ')
  80daa8:	e0fffc17 	ldw	r3,-16(fp)
  80daac:	e0bffe17 	ldw	r2,-8(fp)
  80dab0:	1885883a 	add	r2,r3,r2
  80dab4:	10800003 	ldbu	r2,0(r2)
  80dab8:	10800820 	cmpeqi	r2,r2,32
  80dabc:	10000b1e 	bne	r2,zero,80daec <copy_file_record_name_to_string+0x6c>
		{
			file_name[flength] = file_record->name[index];
  80dac0:	e0fffd17 	ldw	r3,-12(fp)
  80dac4:	e0bfff17 	ldw	r2,-4(fp)
  80dac8:	1889883a 	add	r4,r3,r2
  80dacc:	e0fffc17 	ldw	r3,-16(fp)
  80dad0:	e0bffe17 	ldw	r2,-8(fp)
  80dad4:	1885883a 	add	r2,r3,r2
  80dad8:	10800003 	ldbu	r2,0(r2)
  80dadc:	20800005 	stb	r2,0(r4)
			flength = flength + 1;
  80dae0:	e0bfff17 	ldw	r2,-4(fp)
  80dae4:	10800044 	addi	r2,r2,1
  80dae8:	e0bfff15 	stw	r2,-4(fp)
  80daec:	e0bffe17 	ldw	r2,-8(fp)
  80daf0:	10800044 	addi	r2,r2,1
  80daf4:	e0bffe15 	stw	r2,-8(fp)
  80daf8:	003fe806 	br	80da9c <copy_file_record_name_to_string+0x1c>
		}
	}
	if (file_record->extension[0] != ' ')
  80dafc:	e0bffc17 	ldw	r2,-16(fp)
  80db00:	10800203 	ldbu	r2,8(r2)
  80db04:	10800820 	cmpeqi	r2,r2,32
  80db08:	1000231e 	bne	r2,zero,80db98 <copy_file_record_name_to_string+0x118>
	{
		file_name[flength] = '.';
  80db0c:	e0fffd17 	ldw	r3,-12(fp)
  80db10:	e0bfff17 	ldw	r2,-4(fp)
  80db14:	1887883a 	add	r3,r3,r2
  80db18:	00800b84 	movi	r2,46
  80db1c:	18800005 	stb	r2,0(r3)
		flength = flength + 1;
  80db20:	e0bfff17 	ldw	r2,-4(fp)
  80db24:	10800044 	addi	r2,r2,1
  80db28:	e0bfff15 	stw	r2,-4(fp)
		for (index = 0; index < 3; index++)
  80db2c:	e03ffe15 	stw	zero,-8(fp)
  80db30:	e0bffe17 	ldw	r2,-8(fp)
  80db34:	108000c8 	cmpgei	r2,r2,3
  80db38:	1000171e 	bne	r2,zero,80db98 <copy_file_record_name_to_string+0x118>
		{
			if (file_record->extension[index] != ' ')
  80db3c:	e0fffc17 	ldw	r3,-16(fp)
  80db40:	e0bffe17 	ldw	r2,-8(fp)
  80db44:	1885883a 	add	r2,r3,r2
  80db48:	10800204 	addi	r2,r2,8
  80db4c:	10800003 	ldbu	r2,0(r2)
  80db50:	10800820 	cmpeqi	r2,r2,32
  80db54:	10000c1e 	bne	r2,zero,80db88 <copy_file_record_name_to_string+0x108>
			{
				file_name[flength] = file_record->extension[index];
  80db58:	e0fffd17 	ldw	r3,-12(fp)
  80db5c:	e0bfff17 	ldw	r2,-4(fp)
  80db60:	1889883a 	add	r4,r3,r2
  80db64:	e0fffc17 	ldw	r3,-16(fp)
  80db68:	e0bffe17 	ldw	r2,-8(fp)
  80db6c:	1885883a 	add	r2,r3,r2
  80db70:	10800204 	addi	r2,r2,8
  80db74:	10800003 	ldbu	r2,0(r2)
  80db78:	20800005 	stb	r2,0(r4)
				flength = flength + 1;
  80db7c:	e0bfff17 	ldw	r2,-4(fp)
  80db80:	10800044 	addi	r2,r2,1
  80db84:	e0bfff15 	stw	r2,-4(fp)
  80db88:	e0bffe17 	ldw	r2,-8(fp)
  80db8c:	10800044 	addi	r2,r2,1
  80db90:	e0bffe15 	stw	r2,-8(fp)
  80db94:	003fe606 	br	80db30 <copy_file_record_name_to_string+0xb0>
			}
		}
	}
	file_name[flength] = 0;
  80db98:	e0bffd17 	ldw	r2,-12(fp)
  80db9c:	e0ffff17 	ldw	r3,-4(fp)
  80dba0:	10c5883a 	add	r2,r2,r3
  80dba4:	10000005 	stb	zero,0(r2)
}
  80dba8:	df000417 	ldw	fp,16(sp)
  80dbac:	dec00504 	addi	sp,sp,20
  80dbb0:	f800283a 	ret

0080dbb4 <alt_up_sd_card_open_dev>:

///////////////////////////////////////////////////////////////////////////
// Direct functions
///////////////////////////////////////////////////////////////////////////


alt_up_sd_card_dev* alt_up_sd_card_open_dev(const char* name)
{
  80dbb4:	defffc04 	addi	sp,sp,-16
  80dbb8:	dfc00315 	stw	ra,12(sp)
  80dbbc:	df000215 	stw	fp,8(sp)
  80dbc0:	df000204 	addi	fp,sp,8
  80dbc4:	e13ffe15 	stw	r4,-8(fp)
	// find the device from the device list
	// (see altera_hal/HAL/inc/priv/alt_file.h
	// and altera_hal/HAL/src/alt_find_dev.c
	// for details)
	alt_up_sd_card_dev *dev = (alt_up_sd_card_dev *) alt_find_dev(name, &alt_dev_list);
  80dbc8:	e13ffe17 	ldw	r4,-8(fp)
  80dbcc:	d1601204 	addi	r5,gp,-32696
  80dbd0:	080f5180 	call	80f518 <alt_find_dev>
  80dbd4:	e0bfff15 	stw	r2,-4(fp)

	if (dev != NULL)
  80dbd8:	e0bfff17 	ldw	r2,-4(fp)
  80dbdc:	1005003a 	cmpeq	r2,r2,zero
  80dbe0:	10001e1e 	bne	r2,zero,80dc5c <alt_up_sd_card_open_dev+0xa8>
	{
		aux_status_register = ((short int *) SD_CARD_AUX_STATUS(dev->base));
  80dbe4:	e0bfff17 	ldw	r2,-4(fp)
  80dbe8:	10800a17 	ldw	r2,40(r2)
  80dbec:	10808d04 	addi	r2,r2,564
  80dbf0:	d0a01c15 	stw	r2,-32656(gp)
		status_register = ((int *) SD_CARD_STATUS(dev->base));
  80dbf4:	e0bfff17 	ldw	r2,-4(fp)
  80dbf8:	10800a17 	ldw	r2,40(r2)
  80dbfc:	10808904 	addi	r2,r2,548
  80dc00:	d0a01d15 	stw	r2,-32652(gp)
		CSD_register_w0 = ((short int *) SD_CARD_CSD(dev->base, 0));
  80dc04:	e0bfff17 	ldw	r2,-4(fp)
  80dc08:	10800a17 	ldw	r2,40(r2)
  80dc0c:	10808404 	addi	r2,r2,528
  80dc10:	d0a01e15 	stw	r2,-32648(gp)
		command_register = ((short int *) SD_CARD_COMMAND(dev->base));
  80dc14:	e0bfff17 	ldw	r2,-4(fp)
  80dc18:	10800a17 	ldw	r2,40(r2)
  80dc1c:	10808c04 	addi	r2,r2,560
  80dc20:	d0a01f15 	stw	r2,-32644(gp)
		command_argument_register = ((int *) SD_CARD_ARGUMENT(dev->base));
  80dc24:	e0bfff17 	ldw	r2,-4(fp)
  80dc28:	10800a17 	ldw	r2,40(r2)
  80dc2c:	10808b04 	addi	r2,r2,556
  80dc30:	d0a02015 	stw	r2,-32640(gp)
		buffer_memory = (char *) SD_CARD_BUFFER(dev->base, 0);
  80dc34:	e0bfff17 	ldw	r2,-4(fp)
  80dc38:	10800a17 	ldw	r2,40(r2)
  80dc3c:	d0a02115 	stw	r2,-32636(gp)
		device_pointer = dev;
  80dc40:	e0bfff17 	ldw	r2,-4(fp)
  80dc44:	d0a02415 	stw	r2,-32624(gp)
		initialized = false;
  80dc48:	d0201a15 	stw	zero,-32664(gp)
		is_sd_card_formated_as_FAT16 = false;
  80dc4c:	d0201b15 	stw	zero,-32660(gp)
		search_data.valid = false;
  80dc50:	00802074 	movhi	r2,129
  80dc54:	1088a204 	addi	r2,r2,8840
  80dc58:	10000415 	stw	zero,16(r2)
	}
	return dev;
  80dc5c:	e0bfff17 	ldw	r2,-4(fp)
}
  80dc60:	dfc00317 	ldw	ra,12(sp)
  80dc64:	df000217 	ldw	fp,8(sp)
  80dc68:	dec00404 	addi	sp,sp,16
  80dc6c:	f800283a 	ret

0080dc70 <alt_up_sd_card_is_Present>:


bool alt_up_sd_card_is_Present(void)
// Check if there is an SD Card insterted into the SD Card socket.
{
  80dc70:	defffd04 	addi	sp,sp,-12
  80dc74:	df000215 	stw	fp,8(sp)
  80dc78:	df000204 	addi	fp,sp,8
    bool result = false;
  80dc7c:	e03ffe15 	stw	zero,-8(fp)

    if ((device_pointer != NULL) && ((IORD_16DIRECT(aux_status_register,0) & 0x02) != 0))
  80dc80:	d0a02417 	ldw	r2,-32624(gp)
  80dc84:	1005003a 	cmpeq	r2,r2,zero
  80dc88:	1000081e 	bne	r2,zero,80dcac <alt_up_sd_card_is_Present+0x3c>
  80dc8c:	d0a01c17 	ldw	r2,-32656(gp)
  80dc90:	1080002b 	ldhuio	r2,0(r2)
  80dc94:	1080008c 	andi	r2,r2,2
  80dc98:	1005003a 	cmpeq	r2,r2,zero
  80dc9c:	1000031e 	bne	r2,zero,80dcac <alt_up_sd_card_is_Present+0x3c>
    {
        result = true;
  80dca0:	00800044 	movi	r2,1
  80dca4:	e0bffe15 	stw	r2,-8(fp)
  80dca8:	00001e06 	br	80dd24 <alt_up_sd_card_is_Present+0xb4>
    }
	else if (initialized == true)
  80dcac:	d0a01a17 	ldw	r2,-32664(gp)
  80dcb0:	10800058 	cmpnei	r2,r2,1
  80dcb4:	10001b1e 	bne	r2,zero,80dd24 <alt_up_sd_card_is_Present+0xb4>
	{
		int index;

		initialized = false;
  80dcb8:	d0201a15 	stw	zero,-32664(gp)
		search_data.valid = false;
  80dcbc:	00802074 	movhi	r2,129
  80dcc0:	1088a204 	addi	r2,r2,8840
  80dcc4:	10000415 	stw	zero,16(r2)
		is_sd_card_formated_as_FAT16 = false;
  80dcc8:	d0201b15 	stw	zero,-32660(gp)

		for(index = 0; index < MAX_FILES_OPENED; index++)
  80dccc:	e03fff15 	stw	zero,-4(fp)
  80dcd0:	e0bfff17 	ldw	r2,-4(fp)
  80dcd4:	10800508 	cmpgei	r2,r2,20
  80dcd8:	1000121e 	bne	r2,zero,80dd24 <alt_up_sd_card_is_Present+0xb4>
		{
			active_files[index].in_use = false;
  80dcdc:	00c02074 	movhi	r3,129
  80dce0:	18c8bc04 	addi	r3,r3,8944
  80dce4:	e0bfff17 	ldw	r2,-4(fp)
  80dce8:	100491ba 	slli	r2,r2,6
  80dcec:	10c5883a 	add	r2,r2,r3
  80dcf0:	10800f04 	addi	r2,r2,60
  80dcf4:	10000015 	stw	zero,0(r2)
			active_files[index].modified = false;
  80dcf8:	00c02074 	movhi	r3,129
  80dcfc:	18c8bc04 	addi	r3,r3,8944
  80dd00:	e0bfff17 	ldw	r2,-4(fp)
  80dd04:	100491ba 	slli	r2,r2,6
  80dd08:	10c5883a 	add	r2,r2,r3
  80dd0c:	10800e04 	addi	r2,r2,56
  80dd10:	10000015 	stw	zero,0(r2)
  80dd14:	e0bfff17 	ldw	r2,-4(fp)
  80dd18:	10800044 	addi	r2,r2,1
  80dd1c:	e0bfff15 	stw	r2,-4(fp)
  80dd20:	003feb06 	br	80dcd0 <alt_up_sd_card_is_Present+0x60>
		}
	}
    return result;
  80dd24:	e0bffe17 	ldw	r2,-8(fp)
}
  80dd28:	df000217 	ldw	fp,8(sp)
  80dd2c:	dec00304 	addi	sp,sp,12
  80dd30:	f800283a 	ret

0080dd34 <alt_up_sd_card_is_FAT16>:


bool alt_up_sd_card_is_FAT16(void)
/* This function reads the SD card data in an effort to determine if the card is formated as a FAT16
 * volume. Please note that FAT12 has a similar format, but will not be supported by this driver.
 * If the card contains a FAT16 volume, the local data structures will be initialized to allow reading and writing
 * to the SD card as though it was a hard drive.
 */
{
  80dd34:	defffd04 	addi	sp,sp,-12
  80dd38:	dfc00215 	stw	ra,8(sp)
  80dd3c:	df000115 	stw	fp,4(sp)
  80dd40:	df000104 	addi	fp,sp,4
	bool result = false;
  80dd44:	e03fff15 	stw	zero,-4(fp)

	if (alt_up_sd_card_is_Present())
  80dd48:	080dc700 	call	80dc70 <alt_up_sd_card_is_Present>
  80dd4c:	1005003a 	cmpeq	r2,r2,zero
  80dd50:	10000d1e 	bne	r2,zero,80dd88 <alt_up_sd_card_is_FAT16+0x54>
	{
		// Check if an SD Card is in the SD Card slot.
		if (initialized == false)
  80dd54:	d0a01a17 	ldw	r2,-32664(gp)
  80dd58:	1004c03a 	cmpne	r2,r2,zero
  80dd5c:	1000071e 	bne	r2,zero,80dd7c <alt_up_sd_card_is_FAT16+0x48>
		{
			// Now determine if the card is formatted as FAT 16.
			is_sd_card_formated_as_FAT16 = Look_for_FAT16();
  80dd60:	080c2440 	call	80c244 <Look_for_FAT16>
  80dd64:	d0a01b15 	stw	r2,-32660(gp)
			initialized = is_sd_card_formated_as_FAT16;
  80dd68:	d0a01b17 	ldw	r2,-32660(gp)
  80dd6c:	d0a01a15 	stw	r2,-32664(gp)
			search_data.valid = false;
  80dd70:	00802074 	movhi	r2,129
  80dd74:	1088a204 	addi	r2,r2,8840
  80dd78:	10000415 	stw	zero,16(r2)
		}
		result = is_sd_card_formated_as_FAT16;
  80dd7c:	d0a01b17 	ldw	r2,-32660(gp)
  80dd80:	e0bfff15 	stw	r2,-4(fp)
  80dd84:	00000206 	br	80dd90 <alt_up_sd_card_is_FAT16+0x5c>
	}
	else
	{
		// If not then you may as well not open the device.
		initialized = false;
  80dd88:	d0201a15 	stw	zero,-32664(gp)
		is_sd_card_formated_as_FAT16 = false;
  80dd8c:	d0201b15 	stw	zero,-32660(gp)
	}

	return result;
  80dd90:	e0bfff17 	ldw	r2,-4(fp)
}
  80dd94:	dfc00217 	ldw	ra,8(sp)
  80dd98:	df000117 	ldw	fp,4(sp)
  80dd9c:	dec00304 	addi	sp,sp,12
  80dda0:	f800283a 	ret

0080dda4 <alt_up_sd_card_find_first>:


short int alt_up_sd_card_find_first(char *directory_to_search_through, char *file_name)
/* This function sets up a search algorithm to go through a given directory looking for files.
 * If the search directory is valid, then the function searches for the first file it finds.
 * Inputs:
 *		directory_to_search_through - name of the directory to search through
 *		file_name - an array to store a name of the file found. Must be 13 bytes long (12 bytes for file name and 1 byte of NULL termination).
 * Outputs:
 *		0 - success
 *		1 - invalid directory
 *		2 - No card or incorrect card format.
 *
 * To specify a directory give the name in a format consistent with the following regular expression:
 * [{[valid_chars]+}/]*.
 *
 * In other words, give a path name starting at the root directory, where each directory name is followed by a '/'.
 * Then, append a '.' to the directory name. Examples:
 * "." - look through the root directory
 * "first/." - look through a directory named "first" that is located in the root directory.
 * "first/sub/." - look through a directory named "sub", that is located within the subdirectory named "first". "first" is located in the root directory.
 * Invalid examples include:
 * "/.", "/////." - this is not the root directory.
 * "/first/." - the first character may not be a '/'.
 */
{
  80dda4:	deffea04 	addi	sp,sp,-88
  80dda8:	dfc01515 	stw	ra,84(sp)
  80ddac:	df001415 	stw	fp,80(sp)
  80ddb0:	df001404 	addi	fp,sp,80
  80ddb4:	e13fec15 	stw	r4,-80(fp)
  80ddb8:	e17fed15 	stw	r5,-76(fp)
	short int result = 2;
  80ddbc:	00800084 	movi	r2,2
  80ddc0:	e0bfee0d 	sth	r2,-72(fp)
	if ((alt_up_sd_card_is_Present()) && (is_sd_card_formated_as_FAT16))
  80ddc4:	080dc700 	call	80dc70 <alt_up_sd_card_is_Present>
  80ddc8:	1005003a 	cmpeq	r2,r2,zero
  80ddcc:	1000221e 	bne	r2,zero,80de58 <alt_up_sd_card_find_first+0xb4>
  80ddd0:	d0a01b17 	ldw	r2,-32660(gp)
  80ddd4:	1005003a 	cmpeq	r2,r2,zero
  80ddd8:	10001f1e 	bne	r2,zero,80de58 <alt_up_sd_card_find_first+0xb4>
	{
		int home_directory_cluster;
		t_file_record file_record;

		if (get_home_directory_cluster_for_file(directory_to_search_through, &home_directory_cluster, &file_record))
  80dddc:	e17fef04 	addi	r5,fp,-68
  80dde0:	e1bff004 	addi	r6,fp,-64
  80dde4:	e13fec17 	ldw	r4,-80(fp)
  80dde8:	080c8ac0 	call	80c8ac <get_home_directory_cluster_for_file>
  80ddec:	1005003a 	cmpeq	r2,r2,zero
  80ddf0:	1000171e 	bne	r2,zero,80de50 <alt_up_sd_card_find_first+0xac>
		{
			search_data.directory_root_cluster = home_directory_cluster;
  80ddf4:	00c02074 	movhi	r3,129
  80ddf8:	18c8a204 	addi	r3,r3,8840
  80ddfc:	e0bfef17 	ldw	r2,-68(fp)
  80de00:	18800015 	stw	r2,0(r3)
			search_data.current_cluster_index = home_directory_cluster;
  80de04:	00c02074 	movhi	r3,129
  80de08:	18c8a204 	addi	r3,r3,8840
  80de0c:	e0bfef17 	ldw	r2,-68(fp)
  80de10:	18800115 	stw	r2,4(r3)
			search_data.current_sector_in_cluster = 0;
  80de14:	00802074 	movhi	r2,129
  80de18:	1088a204 	addi	r2,r2,8840
  80de1c:	10000215 	stw	zero,8(r2)
			search_data.file_index_in_sector = -1;
  80de20:	00c02074 	movhi	r3,129
  80de24:	18c8a204 	addi	r3,r3,8840
  80de28:	00bfffc4 	movi	r2,-1
  80de2c:	1880030d 	sth	r2,12(r3)
			search_data.valid = true;
  80de30:	00c02074 	movhi	r3,129
  80de34:	18c8a204 	addi	r3,r3,8840
  80de38:	00800044 	movi	r2,1
  80de3c:	18800415 	stw	r2,16(r3)
			result = alt_up_sd_card_find_next(file_name);
  80de40:	e13fed17 	ldw	r4,-76(fp)
  80de44:	080de6c0 	call	80de6c <alt_up_sd_card_find_next>
  80de48:	e0bfee0d 	sth	r2,-72(fp)
  80de4c:	00000206 	br	80de58 <alt_up_sd_card_find_first+0xb4>
		}
		else
		{
			result = 1;
  80de50:	00800044 	movi	r2,1
  80de54:	e0bfee0d 	sth	r2,-72(fp)
		}
	}
	return result;
  80de58:	e0bfee0f 	ldh	r2,-72(fp)
}
  80de5c:	dfc01517 	ldw	ra,84(sp)
  80de60:	df001417 	ldw	fp,80(sp)
  80de64:	dec01604 	addi	sp,sp,88
  80de68:	f800283a 	ret

0080de6c <alt_up_sd_card_find_next>:


short int alt_up_sd_card_find_next(char *file_name)
/* This function searches for the next file in a given directory, as specified by the find_first function.
 * Inputs:
 *		file_name - an array to store a name of the file found. Must be 13 bytes long (12 bytes for file name and 1 byte of NULL termination).
 * Outputs:
 *		-1 - end of directory.
 *		0 - success
 *		2 - No card or incorrect card format.
 *		3 - find_first has not been called successfully.
 */
{
  80de6c:	deffe604 	addi	sp,sp,-104
  80de70:	dfc01915 	stw	ra,100(sp)
  80de74:	df001815 	stw	fp,96(sp)
  80de78:	df001804 	addi	fp,sp,96
  80de7c:	e13fe815 	stw	r4,-96(fp)
	short int result = 2;
  80de80:	00800084 	movi	r2,2
  80de84:	e0bfe90d 	sth	r2,-92(fp)
	if ((alt_up_sd_card_is_Present()) && (is_sd_card_formated_as_FAT16))
  80de88:	080dc700 	call	80dc70 <alt_up_sd_card_is_Present>
  80de8c:	1005003a 	cmpeq	r2,r2,zero
  80de90:	1000c21e 	bne	r2,zero,80e19c <alt_up_sd_card_find_next+0x330>
  80de94:	d0a01b17 	ldw	r2,-32660(gp)
  80de98:	1005003a 	cmpeq	r2,r2,zero
  80de9c:	1000bf1e 	bne	r2,zero,80e19c <alt_up_sd_card_find_next+0x330>
	{
		if (search_data.valid)
  80dea0:	00802074 	movhi	r2,129
  80dea4:	1088a204 	addi	r2,r2,8840
  80dea8:	10800417 	ldw	r2,16(r2)
  80deac:	1005003a 	cmpeq	r2,r2,zero
  80deb0:	1000b81e 	bne	r2,zero,80e194 <alt_up_sd_card_find_next+0x328>
		{
			t_file_record file_record;
			int cluster = search_data.current_cluster_index;
  80deb4:	00802074 	movhi	r2,129
  80deb8:	1088a204 	addi	r2,r2,8840
  80debc:	10800117 	ldw	r2,4(r2)
  80dec0:	e0bffa15 	stw	r2,-24(fp)

			if (cluster == 0)
  80dec4:	e0bffa17 	ldw	r2,-24(fp)
  80dec8:	1004c03a 	cmpne	r2,r2,zero
  80decc:	1000481e 	bne	r2,zero,80dff0 <alt_up_sd_card_find_next+0x184>
			{
				// Searching through the root directory
				int max_root_dir_sectors = ((32*boot_sector_data.max_number_of_dir_entires) / boot_sector_data.sector_size_in_bytes);
  80ded0:	00802074 	movhi	r2,129
  80ded4:	1088a704 	addi	r2,r2,8860
  80ded8:	1080050b 	ldhu	r2,20(r2)
  80dedc:	1008917a 	slli	r4,r2,5
  80dee0:	00802074 	movhi	r2,129
  80dee4:	1088a704 	addi	r2,r2,8860
  80dee8:	1140030b 	ldhu	r5,12(r2)
  80deec:	08006e80 	call	8006e8 <__divsi3>
  80def0:	e0bffb15 	stw	r2,-20(fp)
				int sector_index = search_data.current_sector_in_cluster;
  80def4:	00802074 	movhi	r2,129
  80def8:	1088a204 	addi	r2,r2,8840
  80defc:	10800217 	ldw	r2,8(r2)
  80df00:	e0bffc15 	stw	r2,-16(fp)
				int file_counter = search_data.file_index_in_sector+1;
  80df04:	00802074 	movhi	r2,129
  80df08:	1088a204 	addi	r2,r2,8840
  80df0c:	1080030f 	ldh	r2,12(r2)
  80df10:	10800044 	addi	r2,r2,1
  80df14:	e0bffd15 	stw	r2,-12(fp)

				for (; sector_index < max_root_dir_sectors; sector_index++)
  80df18:	e0fffc17 	ldw	r3,-16(fp)
  80df1c:	e0bffb17 	ldw	r2,-20(fp)
  80df20:	1880300e 	bge	r3,r2,80dfe4 <alt_up_sd_card_find_next+0x178>
				{
					if (Read_Sector_Data(   sector_index + boot_sector_data.root_directory_sector_offset,
  80df24:	00802074 	movhi	r2,129
  80df28:	1088a704 	addi	r2,r2,8860
  80df2c:	10c01317 	ldw	r3,76(r2)
  80df30:	e0bffc17 	ldw	r2,-16(fp)
  80df34:	1889883a 	add	r4,r3,r2
  80df38:	d1602217 	ldw	r5,-32632(gp)
  80df3c:	080b3dc0 	call	80b3dc <Read_Sector_Data>
  80df40:	1005003a 	cmpeq	r2,r2,zero
  80df44:	1000271e 	bne	r2,zero,80dfe4 <alt_up_sd_card_find_next+0x178>
											fat_partition_offset_in_512_byte_sectors))
					{
						for (; file_counter < 16; file_counter++)
  80df48:	e0bffd17 	ldw	r2,-12(fp)
  80df4c:	10800408 	cmpgei	r2,r2,16
  80df50:	10001f1e 	bne	r2,zero,80dfd0 <alt_up_sd_card_find_next+0x164>
						{
							if (Read_File_Record_At_Offset(file_counter*32, &file_record, 0, sector_index))
  80df54:	e0bffd17 	ldw	r2,-12(fp)
  80df58:	1008917a 	slli	r4,r2,5
  80df5c:	e17fea04 	addi	r5,fp,-88
  80df60:	000d883a 	mov	r6,zero
  80df64:	e1fffc17 	ldw	r7,-16(fp)
  80df68:	080b7f00 	call	80b7f0 <Read_File_Record_At_Offset>
  80df6c:	1005003a 	cmpeq	r2,r2,zero
  80df70:	1000131e 	bne	r2,zero,80dfc0 <alt_up_sd_card_find_next+0x154>
							{
								if ((file_record.name[0] != 0) && (file_record.name[0] != 0xe5))
  80df74:	e0bfea03 	ldbu	r2,-88(fp)
  80df78:	1005003a 	cmpeq	r2,r2,zero
  80df7c:	1000101e 	bne	r2,zero,80dfc0 <alt_up_sd_card_find_next+0x154>
  80df80:	e0bfea03 	ldbu	r2,-88(fp)
  80df84:	10803960 	cmpeqi	r2,r2,229
  80df88:	10000d1e 	bne	r2,zero,80dfc0 <alt_up_sd_card_find_next+0x154>
								{
									/* Update search structure. */
									search_data.file_index_in_sector = file_counter;
  80df8c:	00c02074 	movhi	r3,129
  80df90:	18c8a204 	addi	r3,r3,8840
  80df94:	e0bffd17 	ldw	r2,-12(fp)
  80df98:	1880030d 	sth	r2,12(r3)
									search_data.current_sector_in_cluster = sector_index;
  80df9c:	00c02074 	movhi	r3,129
  80dfa0:	18c8a204 	addi	r3,r3,8840
  80dfa4:	e0bffc17 	ldw	r2,-16(fp)
  80dfa8:	18800215 	stw	r2,8(r3)

									/* Copy file name.*/
									copy_file_record_name_to_string(&file_record, file_name);
  80dfac:	e13fea04 	addi	r4,fp,-88
  80dfb0:	e17fe817 	ldw	r5,-96(fp)
  80dfb4:	080da800 	call	80da80 <copy_file_record_name_to_string>
									return 0;
  80dfb8:	e03fff15 	stw	zero,-4(fp)
  80dfbc:	00007906 	br	80e1a4 <alt_up_sd_card_find_next+0x338>
  80dfc0:	e0bffd17 	ldw	r2,-12(fp)
  80dfc4:	10800044 	addi	r2,r2,1
  80dfc8:	e0bffd15 	stw	r2,-12(fp)
  80dfcc:	003fde06 	br	80df48 <alt_up_sd_card_find_next+0xdc>
								}
							}
						}
						file_counter = 0;
  80dfd0:	e03ffd15 	stw	zero,-12(fp)
  80dfd4:	e0bffc17 	ldw	r2,-16(fp)
  80dfd8:	10800044 	addi	r2,r2,1
  80dfdc:	e0bffc15 	stw	r2,-16(fp)
  80dfe0:	003fcd06 	br	80df18 <alt_up_sd_card_find_next+0xac>
					}
					else
					{
						break;
					}
				}
				result = -1;
  80dfe4:	00bfffc4 	movi	r2,-1
  80dfe8:	e0bfe90d 	sth	r2,-92(fp)
  80dfec:	00006b06 	br	80e19c <alt_up_sd_card_find_next+0x330>
			}
			else
			{
				int file_counter = search_data.file_index_in_sector+1;
  80dff0:	00802074 	movhi	r2,129
  80dff4:	1088a204 	addi	r2,r2,8840
  80dff8:	1080030f 	ldh	r2,12(r2)
  80dffc:	10800044 	addi	r2,r2,1
  80e000:	e0bffd15 	stw	r2,-12(fp)
				do
				{
					int start_sector = ( cluster - 2 ) * ( boot_sector_data.sectors_per_cluster ) + boot_sector_data.data_sector_offset;
  80e004:	e0bffa17 	ldw	r2,-24(fp)
  80e008:	113fff84 	addi	r4,r2,-2
  80e00c:	00802074 	movhi	r2,129
  80e010:	1088a704 	addi	r2,r2,8860
  80e014:	11400383 	ldbu	r5,14(r2)
  80e018:	08007a40 	call	8007a4 <__mulsi3>
  80e01c:	1007883a 	mov	r3,r2
  80e020:	00802074 	movhi	r2,129
  80e024:	1088a704 	addi	r2,r2,8860
  80e028:	10801417 	ldw	r2,80(r2)
  80e02c:	1885883a 	add	r2,r3,r2
  80e030:	e0bffc15 	stw	r2,-16(fp)
					int sector_index = search_data.current_sector_in_cluster;
  80e034:	00802074 	movhi	r2,129
  80e038:	1088a204 	addi	r2,r2,8840
  80e03c:	10800217 	ldw	r2,8(r2)
  80e040:	e0bffb15 	stw	r2,-20(fp)

					for (; sector_index < boot_sector_data.sectors_per_cluster; sector_index++)
  80e044:	00802074 	movhi	r2,129
  80e048:	1088a704 	addi	r2,r2,8860
  80e04c:	10c00383 	ldbu	r3,14(r2)
  80e050:	e0bffb17 	ldw	r2,-20(fp)
  80e054:	10c0320e 	bge	r2,r3,80e120 <alt_up_sd_card_find_next+0x2b4>
					{
						if (Read_Sector_Data(sector_index + start_sector, fat_partition_offset_in_512_byte_sectors))
  80e058:	e0fffb17 	ldw	r3,-20(fp)
  80e05c:	e0bffc17 	ldw	r2,-16(fp)
  80e060:	1889883a 	add	r4,r3,r2
  80e064:	d1602217 	ldw	r5,-32632(gp)
  80e068:	080b3dc0 	call	80b3dc <Read_Sector_Data>
  80e06c:	1005003a 	cmpeq	r2,r2,zero
  80e070:	10002b1e 	bne	r2,zero,80e120 <alt_up_sd_card_find_next+0x2b4>
						{
							for (; file_counter < 16; file_counter++)
  80e074:	e0bffd17 	ldw	r2,-12(fp)
  80e078:	10800408 	cmpgei	r2,r2,16
  80e07c:	1000231e 	bne	r2,zero,80e10c <alt_up_sd_card_find_next+0x2a0>
							{
								if (Read_File_Record_At_Offset(file_counter*32, &file_record, cluster, sector_index))
  80e080:	e0bffd17 	ldw	r2,-12(fp)
  80e084:	1008917a 	slli	r4,r2,5
  80e088:	e17fea04 	addi	r5,fp,-88
  80e08c:	e1bffa17 	ldw	r6,-24(fp)
  80e090:	e1fffb17 	ldw	r7,-20(fp)
  80e094:	080b7f00 	call	80b7f0 <Read_File_Record_At_Offset>
  80e098:	1005003a 	cmpeq	r2,r2,zero
  80e09c:	1000171e 	bne	r2,zero,80e0fc <alt_up_sd_card_find_next+0x290>
								{
									if ((file_record.name[0] != 0) && (file_record.name[0] != 0xe5))
  80e0a0:	e0bfea03 	ldbu	r2,-88(fp)
  80e0a4:	1005003a 	cmpeq	r2,r2,zero
  80e0a8:	1000141e 	bne	r2,zero,80e0fc <alt_up_sd_card_find_next+0x290>
  80e0ac:	e0bfea03 	ldbu	r2,-88(fp)
  80e0b0:	10803960 	cmpeqi	r2,r2,229
  80e0b4:	1000111e 	bne	r2,zero,80e0fc <alt_up_sd_card_find_next+0x290>
									{
										/* Update search structure. */
										search_data.current_cluster_index = cluster;
  80e0b8:	00c02074 	movhi	r3,129
  80e0bc:	18c8a204 	addi	r3,r3,8840
  80e0c0:	e0bffa17 	ldw	r2,-24(fp)
  80e0c4:	18800115 	stw	r2,4(r3)
										search_data.file_index_in_sector = file_counter;
  80e0c8:	00c02074 	movhi	r3,129
  80e0cc:	18c8a204 	addi	r3,r3,8840
  80e0d0:	e0bffd17 	ldw	r2,-12(fp)
  80e0d4:	1880030d 	sth	r2,12(r3)
										search_data.current_sector_in_cluster = sector_index;
  80e0d8:	00c02074 	movhi	r3,129
  80e0dc:	18c8a204 	addi	r3,r3,8840
  80e0e0:	e0bffb17 	ldw	r2,-20(fp)
  80e0e4:	18800215 	stw	r2,8(r3)

										/* Copy file name.*/
										copy_file_record_name_to_string(&file_record, file_name);
  80e0e8:	e13fea04 	addi	r4,fp,-88
  80e0ec:	e17fe817 	ldw	r5,-96(fp)
  80e0f0:	080da800 	call	80da80 <copy_file_record_name_to_string>
										return 0;
  80e0f4:	e03fff15 	stw	zero,-4(fp)
  80e0f8:	00002a06 	br	80e1a4 <alt_up_sd_card_find_next+0x338>
  80e0fc:	e0bffd17 	ldw	r2,-12(fp)
  80e100:	10800044 	addi	r2,r2,1
  80e104:	e0bffd15 	stw	r2,-12(fp)
  80e108:	003fda06 	br	80e074 <alt_up_sd_card_find_next+0x208>
									}
								}
							}
							file_counter = 0;
  80e10c:	e03ffd15 	stw	zero,-12(fp)
  80e110:	e0bffb17 	ldw	r2,-20(fp)
  80e114:	10800044 	addi	r2,r2,1
  80e118:	e0bffb15 	stw	r2,-20(fp)
  80e11c:	003fc906 	br	80e044 <alt_up_sd_card_find_next+0x1d8>
						}
						else
						{
							break;
						}
					}
					// If this is the end of the cluster and the file has not been found, then see if there is another cluster
					// that holds data for the current directory.
					if (sector_index >= boot_sector_data.sectors_per_cluster)
  80e120:	00802074 	movhi	r2,129
  80e124:	1088a704 	addi	r2,r2,8860
  80e128:	10c00383 	ldbu	r3,14(r2)
  80e12c:	e0bffb17 	ldw	r2,-20(fp)
  80e130:	10c01416 	blt	r2,r3,80e184 <alt_up_sd_card_find_next+0x318>
					{
						short int new_cluster;

						if (get_cluster_flag(cluster, &new_cluster))
  80e134:	e17ffe04 	addi	r5,fp,-8
  80e138:	e13ffa17 	ldw	r4,-24(fp)
  80e13c:	080b4c00 	call	80b4c0 <get_cluster_flag>
  80e140:	1005003a 	cmpeq	r2,r2,zero
  80e144:	10000d1e 	bne	r2,zero,80e17c <alt_up_sd_card_find_next+0x310>
						{
							if ((new_cluster & 0x0000fff8) == 0x0000fff8)
  80e148:	e0bffe0f 	ldh	r2,-8(fp)
  80e14c:	10fffe0c 	andi	r3,r2,65528
  80e150:	00bffe14 	movui	r2,65528
  80e154:	1880051e 	bne	r3,r2,80e16c <alt_up_sd_card_find_next+0x300>
							{
								result = -1;
  80e158:	00bfffc4 	movi	r2,-1
  80e15c:	e0bfe90d 	sth	r2,-92(fp)
								search_data.valid = false;
  80e160:	00802074 	movhi	r2,129
  80e164:	1088a204 	addi	r2,r2,8840
  80e168:	10000415 	stw	zero,16(r2)
							}
							cluster = ((new_cluster) & 0x0000fff8);
  80e16c:	e0bffe0f 	ldh	r2,-8(fp)
  80e170:	10bffe0c 	andi	r2,r2,65528
  80e174:	e0bffa15 	stw	r2,-24(fp)
  80e178:	00000206 	br	80e184 <alt_up_sd_card_find_next+0x318>
						}
						else
						{
							// Error encountered.
							result = -1;
  80e17c:	00bfffc4 	movi	r2,-1
  80e180:	e0bfe90d 	sth	r2,-92(fp)
						}
					}
				} while (cluster < 0x0000fff8);
  80e184:	e0fffa17 	ldw	r3,-24(fp)
  80e188:	00bffdd4 	movui	r2,65527
  80e18c:	10c00316 	blt	r2,r3,80e19c <alt_up_sd_card_find_next+0x330>
  80e190:	003f9c06 	br	80e004 <alt_up_sd_card_find_next+0x198>
			}
		}
		else
		{
			// Call Find_First first.
			result = 3;
  80e194:	008000c4 	movi	r2,3
  80e198:	e0bfe90d 	sth	r2,-92(fp)
		}
	}
	return result;
  80e19c:	e0bfe90f 	ldh	r2,-92(fp)
  80e1a0:	e0bfff15 	stw	r2,-4(fp)
}
  80e1a4:	e0bfff17 	ldw	r2,-4(fp)
  80e1a8:	dfc01917 	ldw	ra,100(sp)
  80e1ac:	df001817 	ldw	fp,96(sp)
  80e1b0:	dec01a04 	addi	sp,sp,104
  80e1b4:	f800283a 	ret

0080e1b8 <alt_up_sd_card_fopen>:


short int alt_up_sd_card_fopen(char *name, bool create)
/* This function reads the SD card data in an effort to determine if the card is formated as a FAT16
 * volume. Please note that FAT12 has a similar format, but will not be supported by this driver.
 *
 * Inputs:
 *      name - a file name including a directory, relative to the root directory
 *      create - a flag set to true to create a file if it does not already exist
 * Output:
 *      An index to the file record assigned to the specified file. -1 is returned if the file could not be opened.
 *		Return -2 if the specified file has already been opened previously.
 */
{
  80e1b8:	deffe804 	addi	sp,sp,-96
  80e1bc:	dfc01715 	stw	ra,92(sp)
  80e1c0:	df001615 	stw	fp,88(sp)
  80e1c4:	df001604 	addi	fp,sp,88
  80e1c8:	e13fea15 	stw	r4,-88(fp)
  80e1cc:	e17feb15 	stw	r5,-84(fp)
	short int file_record_index = -1;
  80e1d0:	00bfffc4 	movi	r2,-1
  80e1d4:	e0bfec0d 	sth	r2,-80(fp)

	if ((alt_up_sd_card_is_Present()) && (is_sd_card_formated_as_FAT16))
  80e1d8:	080dc700 	call	80dc70 <alt_up_sd_card_is_Present>
  80e1dc:	1005003a 	cmpeq	r2,r2,zero
  80e1e0:	1000cc1e 	bne	r2,zero,80e514 <alt_up_sd_card_fopen+0x35c>
  80e1e4:	d0a01b17 	ldw	r2,-32660(gp)
  80e1e8:	1005003a 	cmpeq	r2,r2,zero
  80e1ec:	1000c91e 	bne	r2,zero,80e514 <alt_up_sd_card_fopen+0x35c>
	{
        unsigned int home_directory_cluster = 0;
  80e1f0:	e03fed15 	stw	zero,-76(fp)
        t_file_record home_dir;

        /* First check the file name format. It should not be longer than 12 characters, including a period and the extension.
         * Rules:
         *  - no spaces
         *  - at most 12 chatacters per name, with a period in 9th position.
         *  - a / or a \ every at most 12 characters.
         */
        filename_to_upper_case(name);
  80e1f4:	e13fea17 	ldw	r4,-88(fp)
  80e1f8:	080c3240 	call	80c324 <filename_to_upper_case>
        if (check_file_name_for_FAT16_compliance(name))
  80e1fc:	e13fea17 	ldw	r4,-88(fp)
  80e200:	080c3c80 	call	80c3c8 <check_file_name_for_FAT16_compliance>
  80e204:	1005003a 	cmpeq	r2,r2,zero
  80e208:	1000c21e 	bne	r2,zero,80e514 <alt_up_sd_card_fopen+0x35c>
        {
			int index;

            /* Get home directory cluster location for the specified file. 0 means root directory. */
            if (!get_home_directory_cluster_for_file(name, &home_directory_cluster, &home_dir))
  80e20c:	e17fed04 	addi	r5,fp,-76
  80e210:	e1bfee04 	addi	r6,fp,-72
  80e214:	e13fea17 	ldw	r4,-88(fp)
  80e218:	080c8ac0 	call	80c8ac <get_home_directory_cluster_for_file>
  80e21c:	1004c03a 	cmpne	r2,r2,zero
  80e220:	1000031e 	bne	r2,zero,80e230 <alt_up_sd_card_fopen+0x78>
            {
                return file_record_index;
  80e224:	e0bfec0f 	ldh	r2,-80(fp)
  80e228:	e0bfff15 	stw	r2,-4(fp)
  80e22c:	0000bb06 	br	80e51c <alt_up_sd_card_fopen+0x364>
            }

    		/* Find a free file slot to store file specs in. */
    		for (index = 0; index < MAX_FILES_OPENED; index++)
  80e230:	e03ffe15 	stw	zero,-8(fp)
  80e234:	e0bffe17 	ldw	r2,-8(fp)
  80e238:	10800508 	cmpgei	r2,r2,20
  80e23c:	1000101e 	bne	r2,zero,80e280 <alt_up_sd_card_fopen+0xc8>
    		{
    			if (active_files[index].in_use == false)
  80e240:	00c02074 	movhi	r3,129
  80e244:	18c8bc04 	addi	r3,r3,8944
  80e248:	e0bffe17 	ldw	r2,-8(fp)
  80e24c:	100491ba 	slli	r2,r2,6
  80e250:	10c5883a 	add	r2,r2,r3
  80e254:	10800f04 	addi	r2,r2,60
  80e258:	10800017 	ldw	r2,0(r2)
  80e25c:	1004c03a 	cmpne	r2,r2,zero
  80e260:	1000031e 	bne	r2,zero,80e270 <alt_up_sd_card_fopen+0xb8>
    			{
    				file_record_index = index;
  80e264:	e0bffe17 	ldw	r2,-8(fp)
  80e268:	e0bfec0d 	sth	r2,-80(fp)
    				break;
  80e26c:	00000406 	br	80e280 <alt_up_sd_card_fopen+0xc8>
  80e270:	e0bffe17 	ldw	r2,-8(fp)
  80e274:	10800044 	addi	r2,r2,1
  80e278:	e0bffe15 	stw	r2,-8(fp)
  80e27c:	003fed06 	br	80e234 <alt_up_sd_card_fopen+0x7c>
    			}
    		}
    		if (file_record_index >= 0)
  80e280:	e0bfec0f 	ldh	r2,-80(fp)
  80e284:	1004803a 	cmplt	r2,r2,zero
  80e288:	1000a21e 	bne	r2,zero,80e514 <alt_up_sd_card_fopen+0x35c>
    		{
    			/* If file record is found, then look for the specified file. If the create flag is set to true
    			 * and the file is not found, then it should be created in the current directory.
    			 */

                if (find_file_in_directory(home_directory_cluster, name, &(active_files[file_record_index])))
  80e28c:	e0bfec0f 	ldh	r2,-80(fp)
  80e290:	100691ba 	slli	r3,r2,6
  80e294:	00802074 	movhi	r2,129
  80e298:	1088bc04 	addi	r2,r2,8944
  80e29c:	188d883a 	add	r6,r3,r2
  80e2a0:	e13fed17 	ldw	r4,-76(fp)
  80e2a4:	e17fea17 	ldw	r5,-88(fp)
  80e2a8:	080cd500 	call	80cd50 <find_file_in_directory>
  80e2ac:	1005003a 	cmpeq	r2,r2,zero
  80e2b0:	1000751e 	bne	r2,zero,80e488 <alt_up_sd_card_fopen+0x2d0>
                {
                    if (create)
  80e2b4:	e0bfeb17 	ldw	r2,-84(fp)
  80e2b8:	1005003a 	cmpeq	r2,r2,zero
  80e2bc:	1000031e 	bne	r2,zero,80e2cc <alt_up_sd_card_fopen+0x114>
                    {
                        /* Do not allow overwriting existing files for now. */
                        return -1;
  80e2c0:	00bfffc4 	movi	r2,-1
  80e2c4:	e0bfff15 	stw	r2,-4(fp)
  80e2c8:	00009406 	br	80e51c <alt_up_sd_card_fopen+0x364>
                    }
                    active_files[file_record_index].current_cluster_index = active_files[file_record_index].start_cluster_index;
  80e2cc:	00c02074 	movhi	r3,129
  80e2d0:	18c8bc04 	addi	r3,r3,8944
  80e2d4:	e0bfec0f 	ldh	r2,-80(fp)
  80e2d8:	100491ba 	slli	r2,r2,6
  80e2dc:	10c5883a 	add	r2,r2,r3
  80e2e0:	11000704 	addi	r4,r2,28
  80e2e4:	00c02074 	movhi	r3,129
  80e2e8:	18c8bc04 	addi	r3,r3,8944
  80e2ec:	e0bfec0f 	ldh	r2,-80(fp)
  80e2f0:	100491ba 	slli	r2,r2,6
  80e2f4:	10c5883a 	add	r2,r2,r3
  80e2f8:	10800504 	addi	r2,r2,20
  80e2fc:	1080008b 	ldhu	r2,2(r2)
  80e300:	20800015 	stw	r2,0(r4)
                    active_files[file_record_index].current_sector_in_cluster = 0;
  80e304:	00c02074 	movhi	r3,129
  80e308:	18c8bc04 	addi	r3,r3,8944
  80e30c:	e0bfec0f 	ldh	r2,-80(fp)
  80e310:	100491ba 	slli	r2,r2,6
  80e314:	10c5883a 	add	r2,r2,r3
  80e318:	10800804 	addi	r2,r2,32
  80e31c:	10000015 	stw	zero,0(r2)
                    active_files[file_record_index].current_byte_position = 0;
  80e320:	00c02074 	movhi	r3,129
  80e324:	18c8bc04 	addi	r3,r3,8944
  80e328:	e0bfec0f 	ldh	r2,-80(fp)
  80e32c:	100491ba 	slli	r2,r2,6
  80e330:	10c5883a 	add	r2,r2,r3
  80e334:	10800904 	addi	r2,r2,36
  80e338:	10000015 	stw	zero,0(r2)
                    active_files[file_record_index].in_use = true;
  80e33c:	00c02074 	movhi	r3,129
  80e340:	18c8bc04 	addi	r3,r3,8944
  80e344:	e0bfec0f 	ldh	r2,-80(fp)
  80e348:	100491ba 	slli	r2,r2,6
  80e34c:	10c5883a 	add	r2,r2,r3
  80e350:	10c00f04 	addi	r3,r2,60
  80e354:	00800044 	movi	r2,1
  80e358:	18800015 	stw	r2,0(r3)
    				active_files[file_record_index].modified = false;
  80e35c:	00c02074 	movhi	r3,129
  80e360:	18c8bc04 	addi	r3,r3,8944
  80e364:	e0bfec0f 	ldh	r2,-80(fp)
  80e368:	100491ba 	slli	r2,r2,6
  80e36c:	10c5883a 	add	r2,r2,r3
  80e370:	10800e04 	addi	r2,r2,56
  80e374:	10000015 	stw	zero,0(r2)

					/* Check if the file has already been opened. */
					for (index = 0; index < MAX_FILES_OPENED; index++)
  80e378:	e03ffe15 	stw	zero,-8(fp)
  80e37c:	e0bffe17 	ldw	r2,-8(fp)
  80e380:	10800508 	cmpgei	r2,r2,20
  80e384:	1000631e 	bne	r2,zero,80e514 <alt_up_sd_card_fopen+0x35c>
					{
						if ((file_record_index != index) && (active_files[index].in_use == true))
  80e388:	e0ffec0f 	ldh	r3,-80(fp)
  80e38c:	e0bffe17 	ldw	r2,-8(fp)
  80e390:	18803926 	beq	r3,r2,80e478 <alt_up_sd_card_fopen+0x2c0>
  80e394:	00c02074 	movhi	r3,129
  80e398:	18c8bc04 	addi	r3,r3,8944
  80e39c:	e0bffe17 	ldw	r2,-8(fp)
  80e3a0:	100491ba 	slli	r2,r2,6
  80e3a4:	10c5883a 	add	r2,r2,r3
  80e3a8:	10800f04 	addi	r2,r2,60
  80e3ac:	10800017 	ldw	r2,0(r2)
  80e3b0:	10800058 	cmpnei	r2,r2,1
  80e3b4:	1000301e 	bne	r2,zero,80e478 <alt_up_sd_card_fopen+0x2c0>
						{
							if ((active_files[file_record_index].file_record_cluster == active_files[index].file_record_cluster) &&
  80e3b8:	00c02074 	movhi	r3,129
  80e3bc:	18c8bc04 	addi	r3,r3,8944
  80e3c0:	e0bfec0f 	ldh	r2,-80(fp)
  80e3c4:	100491ba 	slli	r2,r2,6
  80e3c8:	10c5883a 	add	r2,r2,r3
  80e3cc:	11000a04 	addi	r4,r2,40
  80e3d0:	00c02074 	movhi	r3,129
  80e3d4:	18c8bc04 	addi	r3,r3,8944
  80e3d8:	e0bffe17 	ldw	r2,-8(fp)
  80e3dc:	100491ba 	slli	r2,r2,6
  80e3e0:	10c5883a 	add	r2,r2,r3
  80e3e4:	10800a04 	addi	r2,r2,40
  80e3e8:	20c00017 	ldw	r3,0(r4)
  80e3ec:	10800017 	ldw	r2,0(r2)
  80e3f0:	1880211e 	bne	r3,r2,80e478 <alt_up_sd_card_fopen+0x2c0>
  80e3f4:	00c02074 	movhi	r3,129
  80e3f8:	18c8bc04 	addi	r3,r3,8944
  80e3fc:	e0bfec0f 	ldh	r2,-80(fp)
  80e400:	100491ba 	slli	r2,r2,6
  80e404:	10c5883a 	add	r2,r2,r3
  80e408:	11000b04 	addi	r4,r2,44
  80e40c:	00c02074 	movhi	r3,129
  80e410:	18c8bc04 	addi	r3,r3,8944
  80e414:	e0bffe17 	ldw	r2,-8(fp)
  80e418:	100491ba 	slli	r2,r2,6
  80e41c:	10c5883a 	add	r2,r2,r3
  80e420:	10800b04 	addi	r2,r2,44
  80e424:	20c00017 	ldw	r3,0(r4)
  80e428:	10800017 	ldw	r2,0(r2)
  80e42c:	1880121e 	bne	r3,r2,80e478 <alt_up_sd_card_fopen+0x2c0>
  80e430:	00c02074 	movhi	r3,129
  80e434:	18c8bc04 	addi	r3,r3,8944
  80e438:	e0bfec0f 	ldh	r2,-80(fp)
  80e43c:	100491ba 	slli	r2,r2,6
  80e440:	10c5883a 	add	r2,r2,r3
  80e444:	11000c04 	addi	r4,r2,48
  80e448:	00c02074 	movhi	r3,129
  80e44c:	18c8bc04 	addi	r3,r3,8944
  80e450:	e0bffe17 	ldw	r2,-8(fp)
  80e454:	100491ba 	slli	r2,r2,6
  80e458:	10c5883a 	add	r2,r2,r3
  80e45c:	10800c04 	addi	r2,r2,48
  80e460:	20c0000f 	ldh	r3,0(r4)
  80e464:	1080000f 	ldh	r2,0(r2)
  80e468:	1880031e 	bne	r3,r2,80e478 <alt_up_sd_card_fopen+0x2c0>
								(active_files[file_record_index].file_record_sector_in_cluster == active_files[index].file_record_sector_in_cluster) &&
								(active_files[file_record_index].file_record_offset == active_files[index].file_record_offset))
							{
								// file already in use.
								file_record_index = -2;
  80e46c:	00bfff84 	movi	r2,-2
  80e470:	e0bfec0d 	sth	r2,-80(fp)
								break;
  80e474:	00002706 	br	80e514 <alt_up_sd_card_fopen+0x35c>
  80e478:	e0bffe17 	ldw	r2,-8(fp)
  80e47c:	10800044 	addi	r2,r2,1
  80e480:	e0bffe15 	stw	r2,-8(fp)
  80e484:	003fbd06 	br	80e37c <alt_up_sd_card_fopen+0x1c4>
							}
						}
					}

                }
                else if (create)
  80e488:	e0bfeb17 	ldw	r2,-84(fp)
  80e48c:	1005003a 	cmpeq	r2,r2,zero
  80e490:	10001e1e 	bne	r2,zero,80e50c <alt_up_sd_card_fopen+0x354>
                {
                    /* Create file if needed. */
                    if (create_file(name, &(active_files[file_record_index]), &home_dir))
  80e494:	e0bfec0f 	ldh	r2,-80(fp)
  80e498:	100691ba 	slli	r3,r2,6
  80e49c:	00802074 	movhi	r2,129
  80e4a0:	1088bc04 	addi	r2,r2,8944
  80e4a4:	188b883a 	add	r5,r3,r2
  80e4a8:	e1bfee04 	addi	r6,fp,-72
  80e4ac:	e13fea17 	ldw	r4,-88(fp)
  80e4b0:	080d7880 	call	80d788 <create_file>
  80e4b4:	1005003a 	cmpeq	r2,r2,zero
  80e4b8:	1000111e 	bne	r2,zero,80e500 <alt_up_sd_card_fopen+0x348>
                    {
                        active_files[file_record_index].in_use = true;
  80e4bc:	00c02074 	movhi	r3,129
  80e4c0:	18c8bc04 	addi	r3,r3,8944
  80e4c4:	e0bfec0f 	ldh	r2,-80(fp)
  80e4c8:	100491ba 	slli	r2,r2,6
  80e4cc:	10c5883a 	add	r2,r2,r3
  80e4d0:	10c00f04 	addi	r3,r2,60
  80e4d4:	00800044 	movi	r2,1
  80e4d8:	18800015 	stw	r2,0(r3)
    					active_files[file_record_index].modified = true;
  80e4dc:	00c02074 	movhi	r3,129
  80e4e0:	18c8bc04 	addi	r3,r3,8944
  80e4e4:	e0bfec0f 	ldh	r2,-80(fp)
  80e4e8:	100491ba 	slli	r2,r2,6
  80e4ec:	10c5883a 	add	r2,r2,r3
  80e4f0:	10c00e04 	addi	r3,r2,56
  80e4f4:	00800044 	movi	r2,1
  80e4f8:	18800015 	stw	r2,0(r3)
  80e4fc:	00000506 	br	80e514 <alt_up_sd_card_fopen+0x35c>
                    }
                    else
                    {
                        /* If file creation fails then return an invalid file handle. */
                        file_record_index = -1;
  80e500:	00bfffc4 	movi	r2,-1
  80e504:	e0bfec0d 	sth	r2,-80(fp)
  80e508:	00000206 	br	80e514 <alt_up_sd_card_fopen+0x35c>
                    }
                }
                else
                {
                    /* Otherwise the file could not be opened.*/
                    file_record_index = -1;
  80e50c:	00bfffc4 	movi	r2,-1
  80e510:	e0bfec0d 	sth	r2,-80(fp)
                }
    		}
        }
	}

	return file_record_index;
  80e514:	e0bfec0f 	ldh	r2,-80(fp)
  80e518:	e0bfff15 	stw	r2,-4(fp)
}
  80e51c:	e0bfff17 	ldw	r2,-4(fp)
  80e520:	dfc01717 	ldw	ra,92(sp)
  80e524:	df001617 	ldw	fp,88(sp)
  80e528:	dec01804 	addi	sp,sp,96
  80e52c:	f800283a 	ret

0080e530 <alt_up_sd_card_set_attributes>:


void alt_up_sd_card_set_attributes(short int file_handle, short int attributes)
/* Return file attributes, or -1 if the file_handle is invalid.
 */
{
  80e530:	defffe04 	addi	sp,sp,-8
  80e534:	df000115 	stw	fp,4(sp)
  80e538:	df000104 	addi	fp,sp,4
  80e53c:	e13fff0d 	sth	r4,-4(fp)
  80e540:	e17fff8d 	sth	r5,-2(fp)
    if ((file_handle >= 0) && (file_handle < MAX_FILES_OPENED))
  80e544:	e0bfff0f 	ldh	r2,-4(fp)
  80e548:	1004803a 	cmplt	r2,r2,zero
  80e54c:	1000161e 	bne	r2,zero,80e5a8 <alt_up_sd_card_set_attributes+0x78>
  80e550:	e0bfff0f 	ldh	r2,-4(fp)
  80e554:	10800508 	cmpgei	r2,r2,20
  80e558:	1000131e 	bne	r2,zero,80e5a8 <alt_up_sd_card_set_attributes+0x78>
    {
        if (active_files[file_handle].in_use)
  80e55c:	00c02074 	movhi	r3,129
  80e560:	18c8bc04 	addi	r3,r3,8944
  80e564:	e0bfff0f 	ldh	r2,-4(fp)
  80e568:	100491ba 	slli	r2,r2,6
  80e56c:	10c5883a 	add	r2,r2,r3
  80e570:	10800f04 	addi	r2,r2,60
  80e574:	10800017 	ldw	r2,0(r2)
  80e578:	1005003a 	cmpeq	r2,r2,zero
  80e57c:	10000a1e 	bne	r2,zero,80e5a8 <alt_up_sd_card_set_attributes+0x78>
        {
            active_files[file_handle].attributes = ((char)(attributes & 0x00ff));
  80e580:	00c02074 	movhi	r3,129
  80e584:	18c8bc04 	addi	r3,r3,8944
  80e588:	e0bfff0f 	ldh	r2,-4(fp)
  80e58c:	100491ba 	slli	r2,r2,6
  80e590:	10c5883a 	add	r2,r2,r3
  80e594:	11000204 	addi	r4,r2,8
  80e598:	e0bfff8b 	ldhu	r2,-2(fp)
  80e59c:	00ffffc4 	movi	r3,-1
  80e5a0:	10c4703a 	and	r2,r2,r3
  80e5a4:	208000c5 	stb	r2,3(r4)
        }
    }
}
  80e5a8:	df000117 	ldw	fp,4(sp)
  80e5ac:	dec00204 	addi	sp,sp,8
  80e5b0:	f800283a 	ret

0080e5b4 <alt_up_sd_card_get_attributes>:


short int alt_up_sd_card_get_attributes(short int file_handle)
/* Return file attributes, or -1 if the file_handle is invalid.
 */
{
  80e5b4:	defffe04 	addi	sp,sp,-8
  80e5b8:	df000115 	stw	fp,4(sp)
  80e5bc:	df000104 	addi	fp,sp,4
  80e5c0:	e13fff0d 	sth	r4,-4(fp)
	short int result = -1;
  80e5c4:	00bfffc4 	movi	r2,-1
  80e5c8:	e0bfff8d 	sth	r2,-2(fp)
    if ((file_handle >= 0) && (file_handle < MAX_FILES_OPENED))
  80e5cc:	e0bfff0f 	ldh	r2,-4(fp)
  80e5d0:	1004803a 	cmplt	r2,r2,zero
  80e5d4:	1000141e 	bne	r2,zero,80e628 <alt_up_sd_card_get_attributes+0x74>
  80e5d8:	e0bfff0f 	ldh	r2,-4(fp)
  80e5dc:	10800508 	cmpgei	r2,r2,20
  80e5e0:	1000111e 	bne	r2,zero,80e628 <alt_up_sd_card_get_attributes+0x74>
    {
        if (active_files[file_handle].in_use)
  80e5e4:	00c02074 	movhi	r3,129
  80e5e8:	18c8bc04 	addi	r3,r3,8944
  80e5ec:	e0bfff0f 	ldh	r2,-4(fp)
  80e5f0:	100491ba 	slli	r2,r2,6
  80e5f4:	10c5883a 	add	r2,r2,r3
  80e5f8:	10800f04 	addi	r2,r2,60
  80e5fc:	10800017 	ldw	r2,0(r2)
  80e600:	1005003a 	cmpeq	r2,r2,zero
  80e604:	1000081e 	bne	r2,zero,80e628 <alt_up_sd_card_get_attributes+0x74>
		{
			result = ((active_files[file_handle].attributes) & 0x00ff);
  80e608:	00c02074 	movhi	r3,129
  80e60c:	18c8bc04 	addi	r3,r3,8944
  80e610:	e0bfff0f 	ldh	r2,-4(fp)
  80e614:	100491ba 	slli	r2,r2,6
  80e618:	10c5883a 	add	r2,r2,r3
  80e61c:	10800204 	addi	r2,r2,8
  80e620:	108000c3 	ldbu	r2,3(r2)
  80e624:	e0bfff8d 	sth	r2,-2(fp)
		}
	}
	return result;
  80e628:	e0bfff8f 	ldh	r2,-2(fp)
}
  80e62c:	df000117 	ldw	fp,4(sp)
  80e630:	dec00204 	addi	sp,sp,8
  80e634:	f800283a 	ret

0080e638 <alt_up_sd_card_get_size>:

int alt_up_sd_card_get_size(short int file_handle)
/* Return file attributes, or -1 if the file_handle is invalid.
 */
{
  80e638:	defffd04 	addi	sp,sp,-12
  80e63c:	df000215 	stw	fp,8(sp)
  80e640:	df000204 	addi	fp,sp,8
  80e644:	e13ffe0d 	sth	r4,-8(fp)
	int result = -1;
  80e648:	00bfffc4 	movi	r2,-1
  80e64c:	e0bfff15 	stw	r2,-4(fp)
    if ((file_handle >= 0) && (file_handle < MAX_FILES_OPENED))
  80e650:	e0bffe0f 	ldh	r2,-8(fp)
  80e654:	1004803a 	cmplt	r2,r2,zero
  80e658:	1000141e 	bne	r2,zero,80e6ac <alt_up_sd_card_get_size+0x74>
  80e65c:	e0bffe0f 	ldh	r2,-8(fp)
  80e660:	10800508 	cmpgei	r2,r2,20
  80e664:	1000111e 	bne	r2,zero,80e6ac <alt_up_sd_card_get_size+0x74>
    {
        if (active_files[file_handle].in_use)
  80e668:	00c02074 	movhi	r3,129
  80e66c:	18c8bc04 	addi	r3,r3,8944
  80e670:	e0bffe0f 	ldh	r2,-8(fp)
  80e674:	100491ba 	slli	r2,r2,6
  80e678:	10c5883a 	add	r2,r2,r3
  80e67c:	10800f04 	addi	r2,r2,60
  80e680:	10800017 	ldw	r2,0(r2)
  80e684:	1005003a 	cmpeq	r2,r2,zero
  80e688:	1000081e 	bne	r2,zero,80e6ac <alt_up_sd_card_get_size+0x74>
		{
			result = active_files[file_handle].file_size_in_bytes;
  80e68c:	00c02074 	movhi	r3,129
  80e690:	18c8bc04 	addi	r3,r3,8944
  80e694:	e0bffe0f 	ldh	r2,-8(fp)
  80e698:	100491ba 	slli	r2,r2,6
  80e69c:	10c5883a 	add	r2,r2,r3
  80e6a0:	10800604 	addi	r2,r2,24
  80e6a4:	10800017 	ldw	r2,0(r2)
  80e6a8:	e0bfff15 	stw	r2,-4(fp)
		}
	}
	return result;
  80e6ac:	e0bfff17 	ldw	r2,-4(fp)
}
  80e6b0:	df000217 	ldw	fp,8(sp)
  80e6b4:	dec00304 	addi	sp,sp,12
  80e6b8:	f800283a 	ret

0080e6bc <alt_up_sd_card_read>:

short int alt_up_sd_card_read(short int file_handle)
/* Read a single character from a given file. Return -1 if at the end of a file. Any other negative number
 * means that the file could not be read. A number between 0 and 255 is an ASCII character read from the SD Card. */
{
  80e6bc:	defff904 	addi	sp,sp,-28
  80e6c0:	dfc00615 	stw	ra,24(sp)
  80e6c4:	df000515 	stw	fp,20(sp)
  80e6c8:	dc000415 	stw	r16,16(sp)
  80e6cc:	df000504 	addi	fp,sp,20
  80e6d0:	e13ffb0d 	sth	r4,-20(fp)
    short int ch = -1;
  80e6d4:	00bfffc4 	movi	r2,-1
  80e6d8:	e0bffb8d 	sth	r2,-18(fp)

    if ((file_handle >= 0) && (file_handle < MAX_FILES_OPENED))
  80e6dc:	e0bffb0f 	ldh	r2,-20(fp)
  80e6e0:	1004803a 	cmplt	r2,r2,zero
  80e6e4:	1000d01e 	bne	r2,zero,80ea28 <alt_up_sd_card_read+0x36c>
  80e6e8:	e0bffb0f 	ldh	r2,-20(fp)
  80e6ec:	10800508 	cmpgei	r2,r2,20
  80e6f0:	1000cd1e 	bne	r2,zero,80ea28 <alt_up_sd_card_read+0x36c>
    {
        if (active_files[file_handle].in_use)
  80e6f4:	00c02074 	movhi	r3,129
  80e6f8:	18c8bc04 	addi	r3,r3,8944
  80e6fc:	e0bffb0f 	ldh	r2,-20(fp)
  80e700:	100491ba 	slli	r2,r2,6
  80e704:	10c5883a 	add	r2,r2,r3
  80e708:	10800f04 	addi	r2,r2,60
  80e70c:	10800017 	ldw	r2,0(r2)
  80e710:	1005003a 	cmpeq	r2,r2,zero
  80e714:	1000c41e 	bne	r2,zero,80ea28 <alt_up_sd_card_read+0x36c>
        {
            if (active_files[file_handle].current_byte_position < active_files[file_handle].file_size_in_bytes)
  80e718:	00c02074 	movhi	r3,129
  80e71c:	18c8bc04 	addi	r3,r3,8944
  80e720:	e0bffb0f 	ldh	r2,-20(fp)
  80e724:	100491ba 	slli	r2,r2,6
  80e728:	10c5883a 	add	r2,r2,r3
  80e72c:	11000904 	addi	r4,r2,36
  80e730:	00c02074 	movhi	r3,129
  80e734:	18c8bc04 	addi	r3,r3,8944
  80e738:	e0bffb0f 	ldh	r2,-20(fp)
  80e73c:	100491ba 	slli	r2,r2,6
  80e740:	10c5883a 	add	r2,r2,r3
  80e744:	10800604 	addi	r2,r2,24
  80e748:	20c00017 	ldw	r3,0(r4)
  80e74c:	10800017 	ldw	r2,0(r2)
  80e750:	1880b52e 	bgeu	r3,r2,80ea28 <alt_up_sd_card_read+0x36c>
            {
                int data_sector = boot_sector_data.data_sector_offset + (active_files[file_handle].current_cluster_index - 2)*boot_sector_data.sectors_per_cluster +
  80e754:	04002074 	movhi	r16,129
  80e758:	8408a704 	addi	r16,r16,8860
  80e75c:	00c02074 	movhi	r3,129
  80e760:	18c8bc04 	addi	r3,r3,8944
  80e764:	e0bffb0f 	ldh	r2,-20(fp)
  80e768:	100491ba 	slli	r2,r2,6
  80e76c:	10c5883a 	add	r2,r2,r3
  80e770:	10800704 	addi	r2,r2,28
  80e774:	10800017 	ldw	r2,0(r2)
  80e778:	113fff84 	addi	r4,r2,-2
  80e77c:	00802074 	movhi	r2,129
  80e780:	1088a704 	addi	r2,r2,8860
  80e784:	11400383 	ldbu	r5,14(r2)
  80e788:	08007a40 	call	8007a4 <__mulsi3>
  80e78c:	1007883a 	mov	r3,r2
  80e790:	80801417 	ldw	r2,80(r16)
  80e794:	1889883a 	add	r4,r3,r2
  80e798:	00c02074 	movhi	r3,129
  80e79c:	18c8bc04 	addi	r3,r3,8944
  80e7a0:	e0bffb0f 	ldh	r2,-20(fp)
  80e7a4:	100491ba 	slli	r2,r2,6
  80e7a8:	10c5883a 	add	r2,r2,r3
  80e7ac:	10800804 	addi	r2,r2,32
  80e7b0:	10800017 	ldw	r2,0(r2)
  80e7b4:	2085883a 	add	r2,r4,r2
  80e7b8:	e0bffc15 	stw	r2,-16(fp)
                                  active_files[file_handle].current_sector_in_cluster;

                if ((active_files[file_handle].current_byte_position > 0) && ((active_files[file_handle].current_byte_position % 512) == 0))
  80e7bc:	00c02074 	movhi	r3,129
  80e7c0:	18c8bc04 	addi	r3,r3,8944
  80e7c4:	e0bffb0f 	ldh	r2,-20(fp)
  80e7c8:	100491ba 	slli	r2,r2,6
  80e7cc:	10c5883a 	add	r2,r2,r3
  80e7d0:	10800904 	addi	r2,r2,36
  80e7d4:	10800017 	ldw	r2,0(r2)
  80e7d8:	1005003a 	cmpeq	r2,r2,zero
  80e7dc:	1000671e 	bne	r2,zero,80e97c <alt_up_sd_card_read+0x2c0>
  80e7e0:	00c02074 	movhi	r3,129
  80e7e4:	18c8bc04 	addi	r3,r3,8944
  80e7e8:	e0bffb0f 	ldh	r2,-20(fp)
  80e7ec:	100491ba 	slli	r2,r2,6
  80e7f0:	10c5883a 	add	r2,r2,r3
  80e7f4:	10800904 	addi	r2,r2,36
  80e7f8:	10800017 	ldw	r2,0(r2)
  80e7fc:	10807fcc 	andi	r2,r2,511
  80e800:	1004c03a 	cmpne	r2,r2,zero
  80e804:	10005d1e 	bne	r2,zero,80e97c <alt_up_sd_card_read+0x2c0>
                {
                    // Read in a new sector of data.
                    if (active_files[file_handle].current_sector_in_cluster == boot_sector_data.sectors_per_cluster - 1)
  80e808:	00c02074 	movhi	r3,129
  80e80c:	18c8bc04 	addi	r3,r3,8944
  80e810:	e0bffb0f 	ldh	r2,-20(fp)
  80e814:	100491ba 	slli	r2,r2,6
  80e818:	10c5883a 	add	r2,r2,r3
  80e81c:	11000804 	addi	r4,r2,32
  80e820:	00802074 	movhi	r2,129
  80e824:	1088a704 	addi	r2,r2,8860
  80e828:	10800383 	ldbu	r2,14(r2)
  80e82c:	10ffffc4 	addi	r3,r2,-1
  80e830:	20800017 	ldw	r2,0(r4)
  80e834:	10c03f1e 	bne	r2,r3,80e934 <alt_up_sd_card_read+0x278>
                    {
                        // Go to the next cluster.
                        unsigned short int next_cluster;
                        if (get_cluster_flag(active_files[file_handle].current_cluster_index, &next_cluster))
  80e838:	00c02074 	movhi	r3,129
  80e83c:	18c8bc04 	addi	r3,r3,8944
  80e840:	e0bffb0f 	ldh	r2,-20(fp)
  80e844:	100491ba 	slli	r2,r2,6
  80e848:	10c5883a 	add	r2,r2,r3
  80e84c:	10800704 	addi	r2,r2,28
  80e850:	e17ffd04 	addi	r5,fp,-12
  80e854:	11000017 	ldw	r4,0(r2)
  80e858:	080b4c00 	call	80b4c0 <get_cluster_flag>
  80e85c:	1005003a 	cmpeq	r2,r2,zero
  80e860:	1000311e 	bne	r2,zero,80e928 <alt_up_sd_card_read+0x26c>
                        {
                            if ((next_cluster & 0x0000fff8) == 0x0000fff8)
  80e864:	e0bffd0b 	ldhu	r2,-12(fp)
  80e868:	10fffe0c 	andi	r3,r2,65528
  80e86c:	00bffe14 	movui	r2,65528
  80e870:	1880031e 	bne	r3,r2,80e880 <alt_up_sd_card_read+0x1c4>
                            {
                                /* End of file */
                                return -1;
  80e874:	00bfffc4 	movi	r2,-1
  80e878:	e0bffe15 	stw	r2,-8(fp)
  80e87c:	00006c06 	br	80ea30 <alt_up_sd_card_read+0x374>
                            }
                            else
                            {
                                active_files[file_handle].current_cluster_index = next_cluster;
  80e880:	00c02074 	movhi	r3,129
  80e884:	18c8bc04 	addi	r3,r3,8944
  80e888:	e0bffb0f 	ldh	r2,-20(fp)
  80e88c:	100491ba 	slli	r2,r2,6
  80e890:	10c5883a 	add	r2,r2,r3
  80e894:	10c00704 	addi	r3,r2,28
  80e898:	e0bffd0b 	ldhu	r2,-12(fp)
  80e89c:	18800015 	stw	r2,0(r3)
								active_files[file_handle].current_sector_in_cluster = 0;
  80e8a0:	00c02074 	movhi	r3,129
  80e8a4:	18c8bc04 	addi	r3,r3,8944
  80e8a8:	e0bffb0f 	ldh	r2,-20(fp)
  80e8ac:	100491ba 	slli	r2,r2,6
  80e8b0:	10c5883a 	add	r2,r2,r3
  80e8b4:	10800804 	addi	r2,r2,32
  80e8b8:	10000015 	stw	zero,0(r2)
                                data_sector = boot_sector_data.data_sector_offset + (active_files[file_handle].current_cluster_index - 2)*boot_sector_data.sectors_per_cluster +
  80e8bc:	04002074 	movhi	r16,129
  80e8c0:	8408a704 	addi	r16,r16,8860
  80e8c4:	00c02074 	movhi	r3,129
  80e8c8:	18c8bc04 	addi	r3,r3,8944
  80e8cc:	e0bffb0f 	ldh	r2,-20(fp)
  80e8d0:	100491ba 	slli	r2,r2,6
  80e8d4:	10c5883a 	add	r2,r2,r3
  80e8d8:	10800704 	addi	r2,r2,28
  80e8dc:	10800017 	ldw	r2,0(r2)
  80e8e0:	113fff84 	addi	r4,r2,-2
  80e8e4:	00802074 	movhi	r2,129
  80e8e8:	1088a704 	addi	r2,r2,8860
  80e8ec:	11400383 	ldbu	r5,14(r2)
  80e8f0:	08007a40 	call	8007a4 <__mulsi3>
  80e8f4:	1007883a 	mov	r3,r2
  80e8f8:	80801417 	ldw	r2,80(r16)
  80e8fc:	1889883a 	add	r4,r3,r2
  80e900:	00c02074 	movhi	r3,129
  80e904:	18c8bc04 	addi	r3,r3,8944
  80e908:	e0bffb0f 	ldh	r2,-20(fp)
  80e90c:	100491ba 	slli	r2,r2,6
  80e910:	10c5883a 	add	r2,r2,r3
  80e914:	10800804 	addi	r2,r2,32
  80e918:	10800017 	ldw	r2,0(r2)
  80e91c:	2085883a 	add	r2,r4,r2
  80e920:	e0bffc15 	stw	r2,-16(fp)
  80e924:	00001506 	br	80e97c <alt_up_sd_card_read+0x2c0>
                                  active_files[file_handle].current_sector_in_cluster;
                            }
                        }
                        else
                        {
                            return -2;
  80e928:	00bfff84 	movi	r2,-2
  80e92c:	e0bffe15 	stw	r2,-8(fp)
  80e930:	00003f06 	br	80ea30 <alt_up_sd_card_read+0x374>
                        }
                    }
                    else
                    {
                        active_files[file_handle].current_sector_in_cluster = active_files[file_handle].current_sector_in_cluster + 1;
  80e934:	00c02074 	movhi	r3,129
  80e938:	18c8bc04 	addi	r3,r3,8944
  80e93c:	e0bffb0f 	ldh	r2,-20(fp)
  80e940:	100491ba 	slli	r2,r2,6
  80e944:	10c5883a 	add	r2,r2,r3
  80e948:	11000804 	addi	r4,r2,32
  80e94c:	00c02074 	movhi	r3,129
  80e950:	18c8bc04 	addi	r3,r3,8944
  80e954:	e0bffb0f 	ldh	r2,-20(fp)
  80e958:	100491ba 	slli	r2,r2,6
  80e95c:	10c5883a 	add	r2,r2,r3
  80e960:	10800804 	addi	r2,r2,32
  80e964:	10800017 	ldw	r2,0(r2)
  80e968:	10800044 	addi	r2,r2,1
  80e96c:	20800015 	stw	r2,0(r4)
                        data_sector = data_sector + 1;
  80e970:	e0bffc17 	ldw	r2,-16(fp)
  80e974:	10800044 	addi	r2,r2,1
  80e978:	e0bffc15 	stw	r2,-16(fp)
                    }
                }
                // Reading te first byte of the file.
                if (current_sector_index != (data_sector + fat_partition_offset_in_512_byte_sectors))
  80e97c:	e0fffc17 	ldw	r3,-16(fp)
  80e980:	d0a02217 	ldw	r2,-32632(gp)
  80e984:	1887883a 	add	r3,r3,r2
  80e988:	d0a02617 	ldw	r2,-32616(gp)
  80e98c:	18800826 	beq	r3,r2,80e9b0 <alt_up_sd_card_read+0x2f4>
                {
                    if (!Read_Sector_Data(data_sector, fat_partition_offset_in_512_byte_sectors))
  80e990:	e13ffc17 	ldw	r4,-16(fp)
  80e994:	d1602217 	ldw	r5,-32632(gp)
  80e998:	080b3dc0 	call	80b3dc <Read_Sector_Data>
  80e99c:	1004c03a 	cmpne	r2,r2,zero
  80e9a0:	1000031e 	bne	r2,zero,80e9b0 <alt_up_sd_card_read+0x2f4>
                    {
						return -2;
  80e9a4:	00bfff84 	movi	r2,-2
  80e9a8:	e0bffe15 	stw	r2,-8(fp)
  80e9ac:	00002006 	br	80ea30 <alt_up_sd_card_read+0x374>
                    }
                }

                ch = (char) IORD_8DIRECT(buffer_memory, (active_files[file_handle].current_byte_position % 512));
  80e9b0:	00c02074 	movhi	r3,129
  80e9b4:	18c8bc04 	addi	r3,r3,8944
  80e9b8:	e0bffb0f 	ldh	r2,-20(fp)
  80e9bc:	100491ba 	slli	r2,r2,6
  80e9c0:	10c5883a 	add	r2,r2,r3
  80e9c4:	10800904 	addi	r2,r2,36
  80e9c8:	10800017 	ldw	r2,0(r2)
  80e9cc:	10c07fcc 	andi	r3,r2,511
  80e9d0:	d0a02117 	ldw	r2,-32636(gp)
  80e9d4:	1885883a 	add	r2,r3,r2
  80e9d8:	10800023 	ldbuio	r2,0(r2)
  80e9dc:	10803fcc 	andi	r2,r2,255
  80e9e0:	1080201c 	xori	r2,r2,128
  80e9e4:	10bfe004 	addi	r2,r2,-128
  80e9e8:	e0bffb8d 	sth	r2,-18(fp)
                active_files[file_handle].current_byte_position = active_files[file_handle].current_byte_position + 1;
  80e9ec:	00c02074 	movhi	r3,129
  80e9f0:	18c8bc04 	addi	r3,r3,8944
  80e9f4:	e0bffb0f 	ldh	r2,-20(fp)
  80e9f8:	100491ba 	slli	r2,r2,6
  80e9fc:	10c5883a 	add	r2,r2,r3
  80ea00:	11000904 	addi	r4,r2,36
  80ea04:	00c02074 	movhi	r3,129
  80ea08:	18c8bc04 	addi	r3,r3,8944
  80ea0c:	e0bffb0f 	ldh	r2,-20(fp)
  80ea10:	100491ba 	slli	r2,r2,6
  80ea14:	10c5883a 	add	r2,r2,r3
  80ea18:	10800904 	addi	r2,r2,36
  80ea1c:	10800017 	ldw	r2,0(r2)
  80ea20:	10800044 	addi	r2,r2,1
  80ea24:	20800015 	stw	r2,0(r4)
            }
        }
    }

    return ch;
  80ea28:	e0bffb8f 	ldh	r2,-18(fp)
  80ea2c:	e0bffe15 	stw	r2,-8(fp)
}
  80ea30:	e0bffe17 	ldw	r2,-8(fp)
  80ea34:	dfc00617 	ldw	ra,24(sp)
  80ea38:	df000517 	ldw	fp,20(sp)
  80ea3c:	dc000417 	ldw	r16,16(sp)
  80ea40:	dec00704 	addi	sp,sp,28
  80ea44:	f800283a 	ret

0080ea48 <alt_up_sd_card_write>:


bool alt_up_sd_card_write(short int file_handle, char byte_of_data)
/* Write a single character to a given file. Return true if successful, and false otherwise. */
{
  80ea48:	defff704 	addi	sp,sp,-36
  80ea4c:	dfc00815 	stw	ra,32(sp)
  80ea50:	df000715 	stw	fp,28(sp)
  80ea54:	dc000615 	stw	r16,24(sp)
  80ea58:	df000704 	addi	fp,sp,28
  80ea5c:	e13ff90d 	sth	r4,-28(fp)
  80ea60:	e17ff985 	stb	r5,-26(fp)
    bool result = false;
  80ea64:	e03ffa15 	stw	zero,-24(fp)

    if ((file_handle >= 0) && (file_handle < MAX_FILES_OPENED))
  80ea68:	e0bff90f 	ldh	r2,-28(fp)
  80ea6c:	1004803a 	cmplt	r2,r2,zero
  80ea70:	10016d1e 	bne	r2,zero,80f028 <alt_up_sd_card_write+0x5e0>
  80ea74:	e0bff90f 	ldh	r2,-28(fp)
  80ea78:	10800508 	cmpgei	r2,r2,20
  80ea7c:	10016a1e 	bne	r2,zero,80f028 <alt_up_sd_card_write+0x5e0>
    {
        if (active_files[file_handle].in_use)
  80ea80:	00c02074 	movhi	r3,129
  80ea84:	18c8bc04 	addi	r3,r3,8944
  80ea88:	e0bff90f 	ldh	r2,-28(fp)
  80ea8c:	100491ba 	slli	r2,r2,6
  80ea90:	10c5883a 	add	r2,r2,r3
  80ea94:	10800f04 	addi	r2,r2,60
  80ea98:	10800017 	ldw	r2,0(r2)
  80ea9c:	1005003a 	cmpeq	r2,r2,zero
  80eaa0:	1001611e 	bne	r2,zero,80f028 <alt_up_sd_card_write+0x5e0>
        {
            int data_sector = boot_sector_data.data_sector_offset + (active_files[file_handle].current_cluster_index - 2)*boot_sector_data.sectors_per_cluster +
  80eaa4:	04002074 	movhi	r16,129
  80eaa8:	8408a704 	addi	r16,r16,8860
  80eaac:	00c02074 	movhi	r3,129
  80eab0:	18c8bc04 	addi	r3,r3,8944
  80eab4:	e0bff90f 	ldh	r2,-28(fp)
  80eab8:	100491ba 	slli	r2,r2,6
  80eabc:	10c5883a 	add	r2,r2,r3
  80eac0:	10800704 	addi	r2,r2,28
  80eac4:	10800017 	ldw	r2,0(r2)
  80eac8:	113fff84 	addi	r4,r2,-2
  80eacc:	00802074 	movhi	r2,129
  80ead0:	1088a704 	addi	r2,r2,8860
  80ead4:	11400383 	ldbu	r5,14(r2)
  80ead8:	08007a40 	call	8007a4 <__mulsi3>
  80eadc:	1007883a 	mov	r3,r2
  80eae0:	80801417 	ldw	r2,80(r16)
  80eae4:	1889883a 	add	r4,r3,r2
  80eae8:	00c02074 	movhi	r3,129
  80eaec:	18c8bc04 	addi	r3,r3,8944
  80eaf0:	e0bff90f 	ldh	r2,-28(fp)
  80eaf4:	100491ba 	slli	r2,r2,6
  80eaf8:	10c5883a 	add	r2,r2,r3
  80eafc:	10800804 	addi	r2,r2,32
  80eb00:	10800017 	ldw	r2,0(r2)
  80eb04:	2085883a 	add	r2,r4,r2
  80eb08:	e0bffb15 	stw	r2,-20(fp)
                              active_files[file_handle].current_sector_in_cluster;
			short int buffer_offset = active_files[file_handle].current_byte_position % boot_sector_data.sector_size_in_bytes;
  80eb0c:	00c02074 	movhi	r3,129
  80eb10:	18c8bc04 	addi	r3,r3,8944
  80eb14:	e0bff90f 	ldh	r2,-28(fp)
  80eb18:	100491ba 	slli	r2,r2,6
  80eb1c:	10c5883a 	add	r2,r2,r3
  80eb20:	10c00904 	addi	r3,r2,36
  80eb24:	00802074 	movhi	r2,129
  80eb28:	1088a704 	addi	r2,r2,8860
  80eb2c:	1140030b 	ldhu	r5,12(r2)
  80eb30:	19000017 	ldw	r4,0(r3)
  80eb34:	08007940 	call	800794 <__umodsi3>
  80eb38:	e0bffc0d 	sth	r2,-16(fp)

			if (active_files[file_handle].current_byte_position < active_files[file_handle].file_size_in_bytes)
  80eb3c:	00c02074 	movhi	r3,129
  80eb40:	18c8bc04 	addi	r3,r3,8944
  80eb44:	e0bff90f 	ldh	r2,-28(fp)
  80eb48:	100491ba 	slli	r2,r2,6
  80eb4c:	10c5883a 	add	r2,r2,r3
  80eb50:	11000904 	addi	r4,r2,36
  80eb54:	00c02074 	movhi	r3,129
  80eb58:	18c8bc04 	addi	r3,r3,8944
  80eb5c:	e0bff90f 	ldh	r2,-28(fp)
  80eb60:	100491ba 	slli	r2,r2,6
  80eb64:	10c5883a 	add	r2,r2,r3
  80eb68:	10800604 	addi	r2,r2,24
  80eb6c:	20c00017 	ldw	r3,0(r4)
  80eb70:	10800017 	ldw	r2,0(r2)
  80eb74:	1880652e 	bgeu	r3,r2,80ed0c <alt_up_sd_card_write+0x2c4>
            {
                if ((active_files[file_handle].current_byte_position > 0) && (buffer_offset == 0))
  80eb78:	00c02074 	movhi	r3,129
  80eb7c:	18c8bc04 	addi	r3,r3,8944
  80eb80:	e0bff90f 	ldh	r2,-28(fp)
  80eb84:	100491ba 	slli	r2,r2,6
  80eb88:	10c5883a 	add	r2,r2,r3
  80eb8c:	10800904 	addi	r2,r2,36
  80eb90:	10800017 	ldw	r2,0(r2)
  80eb94:	1005003a 	cmpeq	r2,r2,zero
  80eb98:	1000d81e 	bne	r2,zero,80eefc <alt_up_sd_card_write+0x4b4>
  80eb9c:	e0bffc0f 	ldh	r2,-16(fp)
  80eba0:	1004c03a 	cmpne	r2,r2,zero
  80eba4:	1000d51e 	bne	r2,zero,80eefc <alt_up_sd_card_write+0x4b4>
                {
                    // Read in a new sector of data.
                    if (active_files[file_handle].current_sector_in_cluster == boot_sector_data.sectors_per_cluster - 1)
  80eba8:	00c02074 	movhi	r3,129
  80ebac:	18c8bc04 	addi	r3,r3,8944
  80ebb0:	e0bff90f 	ldh	r2,-28(fp)
  80ebb4:	100491ba 	slli	r2,r2,6
  80ebb8:	10c5883a 	add	r2,r2,r3
  80ebbc:	11000804 	addi	r4,r2,32
  80ebc0:	00802074 	movhi	r2,129
  80ebc4:	1088a704 	addi	r2,r2,8860
  80ebc8:	10800383 	ldbu	r2,14(r2)
  80ebcc:	10ffffc4 	addi	r3,r2,-1
  80ebd0:	20800017 	ldw	r2,0(r4)
  80ebd4:	10c03a1e 	bne	r2,r3,80ecc0 <alt_up_sd_card_write+0x278>
                    {
                        // Go to the next cluster.
                        unsigned short int next_cluster;
                        if (get_cluster_flag(active_files[file_handle].current_cluster_index, &next_cluster))
  80ebd8:	00c02074 	movhi	r3,129
  80ebdc:	18c8bc04 	addi	r3,r3,8944
  80ebe0:	e0bff90f 	ldh	r2,-28(fp)
  80ebe4:	100491ba 	slli	r2,r2,6
  80ebe8:	10c5883a 	add	r2,r2,r3
  80ebec:	10800704 	addi	r2,r2,28
  80ebf0:	e17ffc84 	addi	r5,fp,-14
  80ebf4:	11000017 	ldw	r4,0(r2)
  80ebf8:	080b4c00 	call	80b4c0 <get_cluster_flag>
  80ebfc:	1005003a 	cmpeq	r2,r2,zero
  80ec00:	10002d1e 	bne	r2,zero,80ecb8 <alt_up_sd_card_write+0x270>
                        {
                            if (next_cluster < 0x0000fff8)
  80ec04:	e0fffc8b 	ldhu	r3,-14(fp)
  80ec08:	00bffdd4 	movui	r2,65527
  80ec0c:	10c0bb36 	bltu	r2,r3,80eefc <alt_up_sd_card_write+0x4b4>
                            {
                                active_files[file_handle].current_cluster_index = next_cluster;
  80ec10:	00c02074 	movhi	r3,129
  80ec14:	18c8bc04 	addi	r3,r3,8944
  80ec18:	e0bff90f 	ldh	r2,-28(fp)
  80ec1c:	100491ba 	slli	r2,r2,6
  80ec20:	10c5883a 	add	r2,r2,r3
  80ec24:	10c00704 	addi	r3,r2,28
  80ec28:	e0bffc8b 	ldhu	r2,-14(fp)
  80ec2c:	18800015 	stw	r2,0(r3)
								active_files[file_handle].current_sector_in_cluster = 0;
  80ec30:	00c02074 	movhi	r3,129
  80ec34:	18c8bc04 	addi	r3,r3,8944
  80ec38:	e0bff90f 	ldh	r2,-28(fp)
  80ec3c:	100491ba 	slli	r2,r2,6
  80ec40:	10c5883a 	add	r2,r2,r3
  80ec44:	10800804 	addi	r2,r2,32
  80ec48:	10000015 	stw	zero,0(r2)
                                data_sector = boot_sector_data.data_sector_offset + (active_files[file_handle].current_cluster_index - 2)*boot_sector_data.sectors_per_cluster +
  80ec4c:	04002074 	movhi	r16,129
  80ec50:	8408a704 	addi	r16,r16,8860
  80ec54:	00c02074 	movhi	r3,129
  80ec58:	18c8bc04 	addi	r3,r3,8944
  80ec5c:	e0bff90f 	ldh	r2,-28(fp)
  80ec60:	100491ba 	slli	r2,r2,6
  80ec64:	10c5883a 	add	r2,r2,r3
  80ec68:	10800704 	addi	r2,r2,28
  80ec6c:	10800017 	ldw	r2,0(r2)
  80ec70:	113fff84 	addi	r4,r2,-2
  80ec74:	00802074 	movhi	r2,129
  80ec78:	1088a704 	addi	r2,r2,8860
  80ec7c:	11400383 	ldbu	r5,14(r2)
  80ec80:	08007a40 	call	8007a4 <__mulsi3>
  80ec84:	1007883a 	mov	r3,r2
  80ec88:	80801417 	ldw	r2,80(r16)
  80ec8c:	1889883a 	add	r4,r3,r2
  80ec90:	00c02074 	movhi	r3,129
  80ec94:	18c8bc04 	addi	r3,r3,8944
  80ec98:	e0bff90f 	ldh	r2,-28(fp)
  80ec9c:	100491ba 	slli	r2,r2,6
  80eca0:	10c5883a 	add	r2,r2,r3
  80eca4:	10800804 	addi	r2,r2,32
  80eca8:	10800017 	ldw	r2,0(r2)
  80ecac:	2085883a 	add	r2,r4,r2
  80ecb0:	e0bffb15 	stw	r2,-20(fp)
  80ecb4:	00009106 	br	80eefc <alt_up_sd_card_write+0x4b4>
                                  active_files[file_handle].current_sector_in_cluster;
                            }
                        }
                        else
                        {
                            return false;
  80ecb8:	e03ffe15 	stw	zero,-8(fp)
  80ecbc:	0000dc06 	br	80f030 <alt_up_sd_card_write+0x5e8>
                        }
                    }
                    else
                    {
                        active_files[file_handle].current_sector_in_cluster = active_files[file_handle].current_sector_in_cluster + 1;
  80ecc0:	00c02074 	movhi	r3,129
  80ecc4:	18c8bc04 	addi	r3,r3,8944
  80ecc8:	e0bff90f 	ldh	r2,-28(fp)
  80eccc:	100491ba 	slli	r2,r2,6
  80ecd0:	10c5883a 	add	r2,r2,r3
  80ecd4:	11000804 	addi	r4,r2,32
  80ecd8:	00c02074 	movhi	r3,129
  80ecdc:	18c8bc04 	addi	r3,r3,8944
  80ece0:	e0bff90f 	ldh	r2,-28(fp)
  80ece4:	100491ba 	slli	r2,r2,6
  80ece8:	10c5883a 	add	r2,r2,r3
  80ecec:	10800804 	addi	r2,r2,32
  80ecf0:	10800017 	ldw	r2,0(r2)
  80ecf4:	10800044 	addi	r2,r2,1
  80ecf8:	20800015 	stw	r2,0(r4)
                        data_sector = data_sector + 1;
  80ecfc:	e0bffb17 	ldw	r2,-20(fp)
  80ed00:	10800044 	addi	r2,r2,1
  80ed04:	e0bffb15 	stw	r2,-20(fp)
  80ed08:	00007c06 	br	80eefc <alt_up_sd_card_write+0x4b4>
                    }
                }
            }
			else
			{
				/* You are adding data to the end of the file, so increment its size and look for an additional data cluster if needed. */
				if ((active_files[file_handle].current_byte_position > 0) && (buffer_offset == 0))
  80ed0c:	00c02074 	movhi	r3,129
  80ed10:	18c8bc04 	addi	r3,r3,8944
  80ed14:	e0bff90f 	ldh	r2,-28(fp)
  80ed18:	100491ba 	slli	r2,r2,6
  80ed1c:	10c5883a 	add	r2,r2,r3
  80ed20:	10800904 	addi	r2,r2,36
  80ed24:	10800017 	ldw	r2,0(r2)
  80ed28:	1005003a 	cmpeq	r2,r2,zero
  80ed2c:	1000731e 	bne	r2,zero,80eefc <alt_up_sd_card_write+0x4b4>
  80ed30:	e0bffc0f 	ldh	r2,-16(fp)
  80ed34:	1004c03a 	cmpne	r2,r2,zero
  80ed38:	1000701e 	bne	r2,zero,80eefc <alt_up_sd_card_write+0x4b4>
				{
					if (active_files[file_handle].current_sector_in_cluster == boot_sector_data.sectors_per_cluster - 1)
  80ed3c:	00c02074 	movhi	r3,129
  80ed40:	18c8bc04 	addi	r3,r3,8944
  80ed44:	e0bff90f 	ldh	r2,-28(fp)
  80ed48:	100491ba 	slli	r2,r2,6
  80ed4c:	10c5883a 	add	r2,r2,r3
  80ed50:	11000804 	addi	r4,r2,32
  80ed54:	00802074 	movhi	r2,129
  80ed58:	1088a704 	addi	r2,r2,8860
  80ed5c:	10800383 	ldbu	r2,14(r2)
  80ed60:	10ffffc4 	addi	r3,r2,-1
  80ed64:	20800017 	ldw	r2,0(r4)
  80ed68:	10c0381e 	bne	r2,r3,80ee4c <alt_up_sd_card_write+0x404>
					{
						/* Find a new cluster if possible. */
						unsigned int cluster_number;

						if (find_first_empty_cluster(&cluster_number))
  80ed6c:	e13ffd04 	addi	r4,fp,-12
  80ed70:	080d1440 	call	80d144 <find_first_empty_cluster>
  80ed74:	1005003a 	cmpeq	r2,r2,zero
  80ed78:	1000321e 	bne	r2,zero,80ee44 <alt_up_sd_card_write+0x3fc>
						{
							// mark clusters in both File Allocation Tables.
							mark_cluster(active_files[file_handle].current_cluster_index, ((unsigned short int) (cluster_number & 0x0000ffff)), true);
  80ed7c:	00c02074 	movhi	r3,129
  80ed80:	18c8bc04 	addi	r3,r3,8944
  80ed84:	e0bff90f 	ldh	r2,-28(fp)
  80ed88:	100491ba 	slli	r2,r2,6
  80ed8c:	10c5883a 	add	r2,r2,r3
  80ed90:	10c00704 	addi	r3,r2,28
  80ed94:	e0bffd17 	ldw	r2,-12(fp)
  80ed98:	117fffcc 	andi	r5,r2,65535
  80ed9c:	2960001c 	xori	r5,r5,32768
  80eda0:	29600004 	addi	r5,r5,-32768
  80eda4:	19000017 	ldw	r4,0(r3)
  80eda8:	01800044 	movi	r6,1
  80edac:	080b5700 	call	80b570 <mark_cluster>
							mark_cluster(cluster_number, 0xffff, true);
  80edb0:	e13ffd17 	ldw	r4,-12(fp)
  80edb4:	017fffc4 	movi	r5,-1
  80edb8:	01800044 	movi	r6,1
  80edbc:	080b5700 	call	80b570 <mark_cluster>
							mark_cluster(active_files[file_handle].current_cluster_index, ((unsigned short int) (cluster_number & 0x0000ffff)), false);
  80edc0:	00c02074 	movhi	r3,129
  80edc4:	18c8bc04 	addi	r3,r3,8944
  80edc8:	e0bff90f 	ldh	r2,-28(fp)
  80edcc:	100491ba 	slli	r2,r2,6
  80edd0:	10c5883a 	add	r2,r2,r3
  80edd4:	10c00704 	addi	r3,r2,28
  80edd8:	e0bffd17 	ldw	r2,-12(fp)
  80eddc:	117fffcc 	andi	r5,r2,65535
  80ede0:	2960001c 	xori	r5,r5,32768
  80ede4:	29600004 	addi	r5,r5,-32768
  80ede8:	19000017 	ldw	r4,0(r3)
  80edec:	000d883a 	mov	r6,zero
  80edf0:	080b5700 	call	80b570 <mark_cluster>
							mark_cluster(cluster_number, 0xffff, false);
  80edf4:	e13ffd17 	ldw	r4,-12(fp)
  80edf8:	017fffc4 	movi	r5,-1
  80edfc:	000d883a 	mov	r6,zero
  80ee00:	080b5700 	call	80b570 <mark_cluster>
							// Change cluster index and sector index to compute a new data sector.
							active_files[file_handle].current_cluster_index = cluster_number;
  80ee04:	00c02074 	movhi	r3,129
  80ee08:	18c8bc04 	addi	r3,r3,8944
  80ee0c:	e0bff90f 	ldh	r2,-28(fp)
  80ee10:	100491ba 	slli	r2,r2,6
  80ee14:	10c5883a 	add	r2,r2,r3
  80ee18:	10c00704 	addi	r3,r2,28
  80ee1c:	e0bffd17 	ldw	r2,-12(fp)
  80ee20:	18800015 	stw	r2,0(r3)
							active_files[file_handle].current_sector_in_cluster = 0;
  80ee24:	00c02074 	movhi	r3,129
  80ee28:	18c8bc04 	addi	r3,r3,8944
  80ee2c:	e0bff90f 	ldh	r2,-28(fp)
  80ee30:	100491ba 	slli	r2,r2,6
  80ee34:	10c5883a 	add	r2,r2,r3
  80ee38:	10800804 	addi	r2,r2,32
  80ee3c:	10000015 	stw	zero,0(r2)
  80ee40:	00001406 	br	80ee94 <alt_up_sd_card_write+0x44c>
						}
						else
						{
							return false;
  80ee44:	e03ffe15 	stw	zero,-8(fp)
  80ee48:	00007906 	br	80f030 <alt_up_sd_card_write+0x5e8>
						}
					}
					else
					{
						/* Read the next sector in the cluster and modify it. We only need to change the data_sector value. The actual read happens a few lines below. */
						active_files[file_handle].current_sector_in_cluster = active_files[file_handle].current_byte_position / boot_sector_data.sector_size_in_bytes;
  80ee4c:	00c02074 	movhi	r3,129
  80ee50:	18c8bc04 	addi	r3,r3,8944
  80ee54:	e0bff90f 	ldh	r2,-28(fp)
  80ee58:	100491ba 	slli	r2,r2,6
  80ee5c:	10c5883a 	add	r2,r2,r3
  80ee60:	14000804 	addi	r16,r2,32
  80ee64:	00c02074 	movhi	r3,129
  80ee68:	18c8bc04 	addi	r3,r3,8944
  80ee6c:	e0bff90f 	ldh	r2,-28(fp)
  80ee70:	100491ba 	slli	r2,r2,6
  80ee74:	10c5883a 	add	r2,r2,r3
  80ee78:	10c00904 	addi	r3,r2,36
  80ee7c:	00802074 	movhi	r2,129
  80ee80:	1088a704 	addi	r2,r2,8860
  80ee84:	1140030b 	ldhu	r5,12(r2)
  80ee88:	19000017 	ldw	r4,0(r3)
  80ee8c:	08007840 	call	800784 <__udivsi3>
  80ee90:	80800015 	stw	r2,0(r16)
					}
					data_sector = boot_sector_data.data_sector_offset + (active_files[file_handle].current_cluster_index - 2)*boot_sector_data.sectors_per_cluster +
  80ee94:	04002074 	movhi	r16,129
  80ee98:	8408a704 	addi	r16,r16,8860
  80ee9c:	00c02074 	movhi	r3,129
  80eea0:	18c8bc04 	addi	r3,r3,8944
  80eea4:	e0bff90f 	ldh	r2,-28(fp)
  80eea8:	100491ba 	slli	r2,r2,6
  80eeac:	10c5883a 	add	r2,r2,r3
  80eeb0:	10800704 	addi	r2,r2,28
  80eeb4:	10800017 	ldw	r2,0(r2)
  80eeb8:	113fff84 	addi	r4,r2,-2
  80eebc:	00802074 	movhi	r2,129
  80eec0:	1088a704 	addi	r2,r2,8860
  80eec4:	11400383 	ldbu	r5,14(r2)
  80eec8:	08007a40 	call	8007a4 <__mulsi3>
  80eecc:	1007883a 	mov	r3,r2
  80eed0:	80801417 	ldw	r2,80(r16)
  80eed4:	1889883a 	add	r4,r3,r2
  80eed8:	00c02074 	movhi	r3,129
  80eedc:	18c8bc04 	addi	r3,r3,8944
  80eee0:	e0bff90f 	ldh	r2,-28(fp)
  80eee4:	100491ba 	slli	r2,r2,6
  80eee8:	10c5883a 	add	r2,r2,r3
  80eeec:	10800804 	addi	r2,r2,32
  80eef0:	10800017 	ldw	r2,0(r2)
  80eef4:	2085883a 	add	r2,r4,r2
  80eef8:	e0bffb15 	stw	r2,-20(fp)
                          active_files[file_handle].current_sector_in_cluster;
				}
			}
            // Reading a data sector into the buffer. Note that changes to the most recently modified sector will be saved before
			// a new sector is read from the SD Card.
            if (current_sector_index != data_sector + fat_partition_offset_in_512_byte_sectors)
  80eefc:	e0fffb17 	ldw	r3,-20(fp)
  80ef00:	d0a02217 	ldw	r2,-32632(gp)
  80ef04:	1887883a 	add	r3,r3,r2
  80ef08:	d0a02617 	ldw	r2,-32616(gp)
  80ef0c:	18800726 	beq	r3,r2,80ef2c <alt_up_sd_card_write+0x4e4>
            {
                if (!Read_Sector_Data(data_sector, fat_partition_offset_in_512_byte_sectors))
  80ef10:	e13ffb17 	ldw	r4,-20(fp)
  80ef14:	d1602217 	ldw	r5,-32632(gp)
  80ef18:	080b3dc0 	call	80b3dc <Read_Sector_Data>
  80ef1c:	1004c03a 	cmpne	r2,r2,zero
  80ef20:	1000021e 	bne	r2,zero,80ef2c <alt_up_sd_card_write+0x4e4>
                {
					return false;
  80ef24:	e03ffe15 	stw	zero,-8(fp)
  80ef28:	00004106 	br	80f030 <alt_up_sd_card_write+0x5e8>
                }
            }
            // Write a byte of data to the buffer.
			IOWR_8DIRECT(buffer_memory, buffer_offset, byte_of_data);
  80ef2c:	e0fffc0f 	ldh	r3,-16(fp)
  80ef30:	d0a02117 	ldw	r2,-32636(gp)
  80ef34:	1885883a 	add	r2,r3,r2
  80ef38:	1007883a 	mov	r3,r2
  80ef3c:	e0bff987 	ldb	r2,-26(fp)
  80ef40:	18800025 	stbio	r2,0(r3)
			active_files[file_handle].current_byte_position = active_files[file_handle].current_byte_position + 1;
  80ef44:	00c02074 	movhi	r3,129
  80ef48:	18c8bc04 	addi	r3,r3,8944
  80ef4c:	e0bff90f 	ldh	r2,-28(fp)
  80ef50:	100491ba 	slli	r2,r2,6
  80ef54:	10c5883a 	add	r2,r2,r3
  80ef58:	11000904 	addi	r4,r2,36
  80ef5c:	00c02074 	movhi	r3,129
  80ef60:	18c8bc04 	addi	r3,r3,8944
  80ef64:	e0bff90f 	ldh	r2,-28(fp)
  80ef68:	100491ba 	slli	r2,r2,6
  80ef6c:	10c5883a 	add	r2,r2,r3
  80ef70:	10800904 	addi	r2,r2,36
  80ef74:	10800017 	ldw	r2,0(r2)
  80ef78:	10800044 	addi	r2,r2,1
  80ef7c:	20800015 	stw	r2,0(r4)

			// Modify the file record only when necessary.
			if (active_files[file_handle].current_byte_position >= active_files[file_handle].file_size_in_bytes)
  80ef80:	00c02074 	movhi	r3,129
  80ef84:	18c8bc04 	addi	r3,r3,8944
  80ef88:	e0bff90f 	ldh	r2,-28(fp)
  80ef8c:	100491ba 	slli	r2,r2,6
  80ef90:	10c5883a 	add	r2,r2,r3
  80ef94:	11000904 	addi	r4,r2,36
  80ef98:	00c02074 	movhi	r3,129
  80ef9c:	18c8bc04 	addi	r3,r3,8944
  80efa0:	e0bff90f 	ldh	r2,-28(fp)
  80efa4:	100491ba 	slli	r2,r2,6
  80efa8:	10c5883a 	add	r2,r2,r3
  80efac:	10800604 	addi	r2,r2,24
  80efb0:	20c00017 	ldw	r3,0(r4)
  80efb4:	10800017 	ldw	r2,0(r2)
  80efb8:	18801736 	bltu	r3,r2,80f018 <alt_up_sd_card_write+0x5d0>
			{
				active_files[file_handle].file_size_in_bytes = active_files[file_handle].file_size_in_bytes + 1;
  80efbc:	00c02074 	movhi	r3,129
  80efc0:	18c8bc04 	addi	r3,r3,8944
  80efc4:	e0bff90f 	ldh	r2,-28(fp)
  80efc8:	100491ba 	slli	r2,r2,6
  80efcc:	10c5883a 	add	r2,r2,r3
  80efd0:	11000604 	addi	r4,r2,24
  80efd4:	00c02074 	movhi	r3,129
  80efd8:	18c8bc04 	addi	r3,r3,8944
  80efdc:	e0bff90f 	ldh	r2,-28(fp)
  80efe0:	100491ba 	slli	r2,r2,6
  80efe4:	10c5883a 	add	r2,r2,r3
  80efe8:	10800604 	addi	r2,r2,24
  80efec:	10800017 	ldw	r2,0(r2)
  80eff0:	10800044 	addi	r2,r2,1
  80eff4:	20800015 	stw	r2,0(r4)
				active_files[file_handle].modified = true;
  80eff8:	00c02074 	movhi	r3,129
  80effc:	18c8bc04 	addi	r3,r3,8944
  80f000:	e0bff90f 	ldh	r2,-28(fp)
  80f004:	100491ba 	slli	r2,r2,6
  80f008:	10c5883a 	add	r2,r2,r3
  80f00c:	10c00e04 	addi	r3,r2,56
  80f010:	00800044 	movi	r2,1
  80f014:	18800015 	stw	r2,0(r3)
			}
            // Invaldiate the buffer to ensure that the buffer contents are written to the SD card whe nthe file is closed.
            current_sector_modified = true;
  80f018:	00800044 	movi	r2,1
  80f01c:	d0a02515 	stw	r2,-32620(gp)
			result = true;
  80f020:	00800044 	movi	r2,1
  80f024:	e0bffa15 	stw	r2,-24(fp)
		}
    }

    return result;
  80f028:	e0bffa17 	ldw	r2,-24(fp)
  80f02c:	e0bffe15 	stw	r2,-8(fp)
}
  80f030:	e0bffe17 	ldw	r2,-8(fp)
  80f034:	dfc00817 	ldw	ra,32(sp)
  80f038:	df000717 	ldw	fp,28(sp)
  80f03c:	dc000617 	ldw	r16,24(sp)
  80f040:	dec00904 	addi	sp,sp,36
  80f044:	f800283a 	ret

0080f048 <alt_up_sd_card_fclose>:


bool alt_up_sd_card_fclose(short int file_handle)
// This function closes an opened file and saves data to SD Card if necessary.
{
  80f048:	defffa04 	addi	sp,sp,-24
  80f04c:	dfc00515 	stw	ra,20(sp)
  80f050:	df000415 	stw	fp,16(sp)
  80f054:	dc000315 	stw	r16,12(sp)
  80f058:	df000404 	addi	fp,sp,16
  80f05c:	e13ffc0d 	sth	r4,-16(fp)
    bool result = false;
  80f060:	e03ffd15 	stw	zero,-12(fp)
    if ((alt_up_sd_card_is_Present()) && (is_sd_card_formated_as_FAT16))
  80f064:	080dc700 	call	80dc70 <alt_up_sd_card_is_Present>
  80f068:	1005003a 	cmpeq	r2,r2,zero
  80f06c:	10005f1e 	bne	r2,zero,80f1ec <alt_up_sd_card_fclose+0x1a4>
  80f070:	d0a01b17 	ldw	r2,-32660(gp)
  80f074:	1005003a 	cmpeq	r2,r2,zero
  80f078:	10005c1e 	bne	r2,zero,80f1ec <alt_up_sd_card_fclose+0x1a4>
    {
        if (active_files[file_handle].in_use)
  80f07c:	00c02074 	movhi	r3,129
  80f080:	18c8bc04 	addi	r3,r3,8944
  80f084:	e0bffc0f 	ldh	r2,-16(fp)
  80f088:	100491ba 	slli	r2,r2,6
  80f08c:	10c5883a 	add	r2,r2,r3
  80f090:	10800f04 	addi	r2,r2,60
  80f094:	10800017 	ldw	r2,0(r2)
  80f098:	1005003a 	cmpeq	r2,r2,zero
  80f09c:	1000531e 	bne	r2,zero,80f1ec <alt_up_sd_card_fclose+0x1a4>
        {
			if (active_files[file_handle].modified)
  80f0a0:	00c02074 	movhi	r3,129
  80f0a4:	18c8bc04 	addi	r3,r3,8944
  80f0a8:	e0bffc0f 	ldh	r2,-16(fp)
  80f0ac:	100491ba 	slli	r2,r2,6
  80f0b0:	10c5883a 	add	r2,r2,r3
  80f0b4:	10800e04 	addi	r2,r2,56
  80f0b8:	10800017 	ldw	r2,0(r2)
  80f0bc:	1005003a 	cmpeq	r2,r2,zero
  80f0c0:	1000411e 	bne	r2,zero,80f1c8 <alt_up_sd_card_fclose+0x180>
			{
				unsigned int record_sector = active_files[file_handle].file_record_sector_in_cluster;
  80f0c4:	00c02074 	movhi	r3,129
  80f0c8:	18c8bc04 	addi	r3,r3,8944
  80f0cc:	e0bffc0f 	ldh	r2,-16(fp)
  80f0d0:	100491ba 	slli	r2,r2,6
  80f0d4:	10c5883a 	add	r2,r2,r3
  80f0d8:	10800b04 	addi	r2,r2,44
  80f0dc:	10800017 	ldw	r2,0(r2)
  80f0e0:	e0bffe15 	stw	r2,-8(fp)
				if (active_files[file_handle].file_record_cluster == 0)
  80f0e4:	00c02074 	movhi	r3,129
  80f0e8:	18c8bc04 	addi	r3,r3,8944
  80f0ec:	e0bffc0f 	ldh	r2,-16(fp)
  80f0f0:	100491ba 	slli	r2,r2,6
  80f0f4:	10c5883a 	add	r2,r2,r3
  80f0f8:	10800a04 	addi	r2,r2,40
  80f0fc:	10800017 	ldw	r2,0(r2)
  80f100:	1004c03a 	cmpne	r2,r2,zero
  80f104:	1000071e 	bne	r2,zero,80f124 <alt_up_sd_card_fclose+0xdc>
				{
					record_sector = record_sector + boot_sector_data.root_directory_sector_offset;
  80f108:	00802074 	movhi	r2,129
  80f10c:	1088a704 	addi	r2,r2,8860
  80f110:	e0fffe17 	ldw	r3,-8(fp)
  80f114:	10801317 	ldw	r2,76(r2)
  80f118:	1885883a 	add	r2,r3,r2
  80f11c:	e0bffe15 	stw	r2,-8(fp)
  80f120:	00001306 	br	80f170 <alt_up_sd_card_fclose+0x128>
				}
				else
				{
					record_sector = record_sector + boot_sector_data.data_sector_offset +
  80f124:	00802074 	movhi	r2,129
  80f128:	1088a704 	addi	r2,r2,8860
  80f12c:	10c01417 	ldw	r3,80(r2)
  80f130:	e0bffe17 	ldw	r2,-8(fp)
  80f134:	18a1883a 	add	r16,r3,r2
  80f138:	00c02074 	movhi	r3,129
  80f13c:	18c8bc04 	addi	r3,r3,8944
  80f140:	e0bffc0f 	ldh	r2,-16(fp)
  80f144:	100491ba 	slli	r2,r2,6
  80f148:	10c5883a 	add	r2,r2,r3
  80f14c:	10800a04 	addi	r2,r2,40
  80f150:	10800017 	ldw	r2,0(r2)
  80f154:	113fff84 	addi	r4,r2,-2
  80f158:	00802074 	movhi	r2,129
  80f15c:	1088a704 	addi	r2,r2,8860
  80f160:	11400383 	ldbu	r5,14(r2)
  80f164:	08007a40 	call	8007a4 <__mulsi3>
  80f168:	8085883a 	add	r2,r16,r2
  80f16c:	e0bffe15 	stw	r2,-8(fp)
									(active_files[file_handle].file_record_cluster - 2)*boot_sector_data.sectors_per_cluster;
				}
				if (Read_Sector_Data(record_sector, fat_partition_offset_in_512_byte_sectors))
  80f170:	e13ffe17 	ldw	r4,-8(fp)
  80f174:	d1602217 	ldw	r5,-32632(gp)
  80f178:	080b3dc0 	call	80b3dc <Read_Sector_Data>
  80f17c:	1005003a 	cmpeq	r2,r2,zero
  80f180:	1000111e 	bne	r2,zero,80f1c8 <alt_up_sd_card_fclose+0x180>
				{
					if (Write_File_Record_At_Offset(active_files[file_handle].file_record_offset, &(active_files[file_handle])))
  80f184:	00c02074 	movhi	r3,129
  80f188:	18c8bc04 	addi	r3,r3,8944
  80f18c:	e0bffc0f 	ldh	r2,-16(fp)
  80f190:	100491ba 	slli	r2,r2,6
  80f194:	10c5883a 	add	r2,r2,r3
  80f198:	10800c04 	addi	r2,r2,48
  80f19c:	1100000f 	ldh	r4,0(r2)
  80f1a0:	e0bffc0f 	ldh	r2,-16(fp)
  80f1a4:	100691ba 	slli	r3,r2,6
  80f1a8:	00802074 	movhi	r2,129
  80f1ac:	1088bc04 	addi	r2,r2,8944
  80f1b0:	188b883a 	add	r5,r3,r2
  80f1b4:	080ba1c0 	call	80ba1c <Write_File_Record_At_Offset>
  80f1b8:	1005003a 	cmpeq	r2,r2,zero
  80f1bc:	1000021e 	bne	r2,zero,80f1c8 <alt_up_sd_card_fclose+0x180>
					{
						// Make sure that the Data has been saved to the SD Card.
						result = Save_Modified_Sector();
  80f1c0:	080b3940 	call	80b394 <Save_Modified_Sector>
  80f1c4:	e0bffd15 	stw	r2,-12(fp)
					}
				}
			}
			active_files[file_handle].in_use = false;
  80f1c8:	00c02074 	movhi	r3,129
  80f1cc:	18c8bc04 	addi	r3,r3,8944
  80f1d0:	e0bffc0f 	ldh	r2,-16(fp)
  80f1d4:	100491ba 	slli	r2,r2,6
  80f1d8:	10c5883a 	add	r2,r2,r3
  80f1dc:	10800f04 	addi	r2,r2,60
  80f1e0:	10000015 	stw	zero,0(r2)
			result = true;
  80f1e4:	00800044 	movi	r2,1
  80f1e8:	e0bffd15 	stw	r2,-12(fp)
        }
    }

    return result;
  80f1ec:	e0bffd17 	ldw	r2,-12(fp)
}
  80f1f0:	dfc00517 	ldw	ra,20(sp)
  80f1f4:	df000417 	ldw	fp,16(sp)
  80f1f8:	dc000317 	ldw	r16,12(sp)
  80f1fc:	dec00604 	addi	sp,sp,24
  80f200:	f800283a 	ret

0080f204 <alt_alarm_start>:

int alt_alarm_start (alt_alarm* alarm, alt_u32 nticks,
                     alt_u32 (*callback) (void* context),
                     void* context)
{
  80f204:	defff504 	addi	sp,sp,-44
  80f208:	df000a15 	stw	fp,40(sp)
  80f20c:	df000a04 	addi	fp,sp,40
  80f210:	e13ff615 	stw	r4,-40(fp)
  80f214:	e17ff715 	stw	r5,-36(fp)
  80f218:	e1bff815 	stw	r6,-32(fp)
  80f21c:	e1fff915 	stw	r7,-28(fp)
  alt_irq_context irq_context;
  alt_u32 current_nticks = 0;
  80f220:	e03ffb15 	stw	zero,-20(fp)
  80f224:	d0a02917 	ldw	r2,-32604(gp)
  80f228:	e0bffc15 	stw	r2,-16(fp)
  80f22c:	e0bffc17 	ldw	r2,-16(fp)
  80f230:	1005003a 	cmpeq	r2,r2,zero
  80f234:	1000421e 	bne	r2,zero,80f340 <alt_alarm_start+0x13c>
  
  if (alt_ticks_per_second ())
  {
    if (alarm)
  80f238:	e0bff617 	ldw	r2,-40(fp)
  80f23c:	1005003a 	cmpeq	r2,r2,zero
  80f240:	10003c1e 	bne	r2,zero,80f334 <alt_alarm_start+0x130>
    {
      alarm->callback = callback;
  80f244:	e0fff617 	ldw	r3,-40(fp)
  80f248:	e0bff817 	ldw	r2,-32(fp)
  80f24c:	18800315 	stw	r2,12(r3)
      alarm->context  = context;
  80f250:	e0fff617 	ldw	r3,-40(fp)
  80f254:	e0bff917 	ldw	r2,-28(fp)
  80f258:	18800515 	stw	r2,20(r3)
  80f25c:	0005303a 	rdctl	r2,status
  80f260:	e0bffe15 	stw	r2,-8(fp)
  80f264:	e0fffe17 	ldw	r3,-8(fp)
  80f268:	00bfff84 	movi	r2,-2
  80f26c:	1884703a 	and	r2,r3,r2
  80f270:	1001703a 	wrctl	status,r2
  80f274:	e0bffe17 	ldw	r2,-8(fp)
  80f278:	e0bffd15 	stw	r2,-12(fp)
  80f27c:	e0bffd17 	ldw	r2,-12(fp)
  80f280:	e0bffa15 	stw	r2,-24(fp)
  80f284:	d0a02a17 	ldw	r2,-32600(gp)
  80f288:	e0bffe15 	stw	r2,-8(fp)
  80f28c:	e0bffe17 	ldw	r2,-8(fp)
  80f290:	e0bffb15 	stw	r2,-20(fp)
 
      irq_context = alt_irq_disable_all ();
      
      current_nticks = alt_nticks();
      
      alarm->time = nticks + current_nticks + 1; 
  80f294:	e13ff617 	ldw	r4,-40(fp)
  80f298:	e0fff717 	ldw	r3,-36(fp)
  80f29c:	e0bffb17 	ldw	r2,-20(fp)
  80f2a0:	1885883a 	add	r2,r3,r2
  80f2a4:	10800044 	addi	r2,r2,1
  80f2a8:	20800215 	stw	r2,8(r4)
      
      /* 
       * If the desired alarm time causes a roll-over, set the rollover
       * flag. This will prevent the subsequent tick event from causing
       * an alarm too early.
       */
      if(alarm->time < current_nticks)
  80f2ac:	e0bff617 	ldw	r2,-40(fp)
  80f2b0:	10c00217 	ldw	r3,8(r2)
  80f2b4:	e0bffb17 	ldw	r2,-20(fp)
  80f2b8:	1880042e 	bgeu	r3,r2,80f2cc <alt_alarm_start+0xc8>
      {
        alarm->rollover = 1;
  80f2bc:	e0fff617 	ldw	r3,-40(fp)
  80f2c0:	00800044 	movi	r2,1
  80f2c4:	18800405 	stb	r2,16(r3)
  80f2c8:	00000206 	br	80f2d4 <alt_alarm_start+0xd0>
      }
      else
      {
        alarm->rollover = 0;
  80f2cc:	e0bff617 	ldw	r2,-40(fp)
  80f2d0:	10000405 	stb	zero,16(r2)
  80f2d4:	d0a02b04 	addi	r2,gp,-32596
  80f2d8:	e0bffe15 	stw	r2,-8(fp)
  80f2dc:	e0bff617 	ldw	r2,-40(fp)
  80f2e0:	e0bffd15 	stw	r2,-12(fp)
  80f2e4:	e0fffd17 	ldw	r3,-12(fp)
  80f2e8:	e0bffe17 	ldw	r2,-8(fp)
  80f2ec:	18800115 	stw	r2,4(r3)
  80f2f0:	e0fffd17 	ldw	r3,-12(fp)
  80f2f4:	e0bffe17 	ldw	r2,-8(fp)
  80f2f8:	10800017 	ldw	r2,0(r2)
  80f2fc:	18800015 	stw	r2,0(r3)
  80f300:	e0bffe17 	ldw	r2,-8(fp)
  80f304:	10c00017 	ldw	r3,0(r2)
  80f308:	e0bffd17 	ldw	r2,-12(fp)
  80f30c:	18800115 	stw	r2,4(r3)
  80f310:	e0fffe17 	ldw	r3,-8(fp)
  80f314:	e0bffd17 	ldw	r2,-12(fp)
  80f318:	18800015 	stw	r2,0(r3)
  80f31c:	e0bffa17 	ldw	r2,-24(fp)
  80f320:	e0bffe15 	stw	r2,-8(fp)
  80f324:	e0bffe17 	ldw	r2,-8(fp)
  80f328:	1001703a 	wrctl	status,r2
      }
    
      alt_llist_insert (&alt_alarm_list, &alarm->llist);
      alt_irq_enable_all (irq_context);

      return 0;
  80f32c:	e03fff15 	stw	zero,-4(fp)
  80f330:	00000506 	br	80f348 <alt_alarm_start+0x144>
    }
    else
    {
      return -EINVAL;
  80f334:	00bffa84 	movi	r2,-22
  80f338:	e0bfff15 	stw	r2,-4(fp)
  80f33c:	00000206 	br	80f348 <alt_alarm_start+0x144>
    }
  }
  else
  {
    return -ENOTSUP;
  80f340:	00bfde84 	movi	r2,-134
  80f344:	e0bfff15 	stw	r2,-4(fp)
  }
}
  80f348:	e0bfff17 	ldw	r2,-4(fp)
  80f34c:	df000a17 	ldw	fp,40(sp)
  80f350:	dec00b04 	addi	sp,sp,44
  80f354:	f800283a 	ret

0080f358 <alt_dcache_flush_all>:
 * alt_dcache_flush_all() is called to flush the entire data cache.
 */

void alt_dcache_flush_all (void)
{
  80f358:	deffff04 	addi	sp,sp,-4
  80f35c:	df000015 	stw	fp,0(sp)
  80f360:	d839883a 	mov	fp,sp
  80f364:	df000017 	ldw	fp,0(sp)
  80f368:	dec00104 	addi	sp,sp,4
  80f36c:	f800283a 	ret

0080f370 <alt_dev_llist_insert>:
 *
 */

int alt_dev_llist_insert (alt_dev_llist* dev, alt_llist* list)
{
  80f370:	defff904 	addi	sp,sp,-28
  80f374:	dfc00615 	stw	ra,24(sp)
  80f378:	df000515 	stw	fp,20(sp)
  80f37c:	df000504 	addi	fp,sp,20
  80f380:	e13ffb15 	stw	r4,-20(fp)
  80f384:	e17ffc15 	stw	r5,-16(fp)
  /*
   * check that the device exists, and that it has a valid name.
   */

  if (!dev || !dev->name)
  80f388:	e0bffb17 	ldw	r2,-20(fp)
  80f38c:	1005003a 	cmpeq	r2,r2,zero
  80f390:	1000041e 	bne	r2,zero,80f3a4 <alt_dev_llist_insert+0x34>
  80f394:	e0bffb17 	ldw	r2,-20(fp)
  80f398:	10800217 	ldw	r2,8(r2)
  80f39c:	1004c03a 	cmpne	r2,r2,zero
  80f3a0:	1000071e 	bne	r2,zero,80f3c0 <alt_dev_llist_insert+0x50>
  {
    ALT_ERRNO = EINVAL;
  80f3a4:	080f4200 	call	80f420 <alt_get_errno>
  80f3a8:	1007883a 	mov	r3,r2
  80f3ac:	00800584 	movi	r2,22
  80f3b0:	18800015 	stw	r2,0(r3)
    return -EINVAL;
  80f3b4:	00bffa84 	movi	r2,-22
  80f3b8:	e0bfff15 	stw	r2,-4(fp)
  80f3bc:	00001306 	br	80f40c <alt_dev_llist_insert+0x9c>
  80f3c0:	e0bffc17 	ldw	r2,-16(fp)
  80f3c4:	e0bffd15 	stw	r2,-12(fp)
  80f3c8:	e0bffb17 	ldw	r2,-20(fp)
  80f3cc:	e0bffe15 	stw	r2,-8(fp)
  80f3d0:	e0fffe17 	ldw	r3,-8(fp)
  80f3d4:	e0bffd17 	ldw	r2,-12(fp)
  80f3d8:	18800115 	stw	r2,4(r3)
  80f3dc:	e0fffe17 	ldw	r3,-8(fp)
  80f3e0:	e0bffd17 	ldw	r2,-12(fp)
  80f3e4:	10800017 	ldw	r2,0(r2)
  80f3e8:	18800015 	stw	r2,0(r3)
  80f3ec:	e0bffd17 	ldw	r2,-12(fp)
  80f3f0:	10c00017 	ldw	r3,0(r2)
  80f3f4:	e0bffe17 	ldw	r2,-8(fp)
  80f3f8:	18800115 	stw	r2,4(r3)
  80f3fc:	e0fffd17 	ldw	r3,-12(fp)
  80f400:	e0bffe17 	ldw	r2,-8(fp)
  80f404:	18800015 	stw	r2,0(r3)
  }
  
  /*
   * register the device.
   */
  
  alt_llist_insert(list, &dev->llist);

  return 0;  
  80f408:	e03fff15 	stw	zero,-4(fp)
}
  80f40c:	e0bfff17 	ldw	r2,-4(fp)
  80f410:	dfc00617 	ldw	ra,24(sp)
  80f414:	df000517 	ldw	fp,20(sp)
  80f418:	dec00704 	addi	sp,sp,28
  80f41c:	f800283a 	ret

0080f420 <alt_get_errno>:
  80f420:	defffd04 	addi	sp,sp,-12
  80f424:	dfc00215 	stw	ra,8(sp)
  80f428:	df000115 	stw	fp,4(sp)
  80f42c:	df000104 	addi	fp,sp,4
  80f430:	d0a01517 	ldw	r2,-32684(gp)
  80f434:	1005003a 	cmpeq	r2,r2,zero
  80f438:	1000041e 	bne	r2,zero,80f44c <alt_get_errno+0x2c>
  80f43c:	d0a01517 	ldw	r2,-32684(gp)
  80f440:	103ee83a 	callr	r2
  80f444:	e0bfff15 	stw	r2,-4(fp)
  80f448:	00000206 	br	80f454 <alt_get_errno+0x34>
  80f44c:	d0a03004 	addi	r2,gp,-32576
  80f450:	e0bfff15 	stw	r2,-4(fp)
  80f454:	e0bfff17 	ldw	r2,-4(fp)
  80f458:	dfc00217 	ldw	ra,8(sp)
  80f45c:	df000117 	ldw	fp,4(sp)
  80f460:	dec00304 	addi	sp,sp,12
  80f464:	f800283a 	ret

0080f468 <_do_ctors>:
 * Run the C++ static constructors.
 */

void _do_ctors(void)
{
  80f468:	defffd04 	addi	sp,sp,-12
  80f46c:	dfc00215 	stw	ra,8(sp)
  80f470:	df000115 	stw	fp,4(sp)
  80f474:	df000104 	addi	fp,sp,4
  constructor* ctor;

  for (ctor = &__CTOR_END__[-1]; ctor >= __CTOR_LIST__; ctor--)
  80f478:	00802074 	movhi	r2,129
  80f47c:	10804204 	addi	r2,r2,264
  80f480:	e0bfff15 	stw	r2,-4(fp)
  80f484:	e0ffff17 	ldw	r3,-4(fp)
  80f488:	00802074 	movhi	r2,129
  80f48c:	10804304 	addi	r2,r2,268
  80f490:	18800736 	bltu	r3,r2,80f4b0 <_do_ctors+0x48>
        (*ctor) (); 
  80f494:	e0bfff17 	ldw	r2,-4(fp)
  80f498:	10800017 	ldw	r2,0(r2)
  80f49c:	103ee83a 	callr	r2
  80f4a0:	e0bfff17 	ldw	r2,-4(fp)
  80f4a4:	10bfff04 	addi	r2,r2,-4
  80f4a8:	e0bfff15 	stw	r2,-4(fp)
  80f4ac:	003ff506 	br	80f484 <_do_ctors+0x1c>
}
  80f4b0:	dfc00217 	ldw	ra,8(sp)
  80f4b4:	df000117 	ldw	fp,4(sp)
  80f4b8:	dec00304 	addi	sp,sp,12
  80f4bc:	f800283a 	ret

0080f4c0 <_do_dtors>:
 * Run the C++ static destructors.
 */

void _do_dtors(void)
{
  80f4c0:	defffd04 	addi	sp,sp,-12
  80f4c4:	dfc00215 	stw	ra,8(sp)
  80f4c8:	df000115 	stw	fp,4(sp)
  80f4cc:	df000104 	addi	fp,sp,4
  destructor* dtor;

  for (dtor = &__DTOR_END__[-1]; dtor >= __DTOR_LIST__; dtor--)
  80f4d0:	00802074 	movhi	r2,129
  80f4d4:	10804204 	addi	r2,r2,264
  80f4d8:	e0bfff15 	stw	r2,-4(fp)
  80f4dc:	e0ffff17 	ldw	r3,-4(fp)
  80f4e0:	00802074 	movhi	r2,129
  80f4e4:	10804304 	addi	r2,r2,268
  80f4e8:	18800736 	bltu	r3,r2,80f508 <_do_dtors+0x48>
        (*dtor) (); 
  80f4ec:	e0bfff17 	ldw	r2,-4(fp)
  80f4f0:	10800017 	ldw	r2,0(r2)
  80f4f4:	103ee83a 	callr	r2
  80f4f8:	e0bfff17 	ldw	r2,-4(fp)
  80f4fc:	10bfff04 	addi	r2,r2,-4
  80f500:	e0bfff15 	stw	r2,-4(fp)
  80f504:	003ff506 	br	80f4dc <_do_dtors+0x1c>
}
  80f508:	dfc00217 	ldw	ra,8(sp)
  80f50c:	df000117 	ldw	fp,4(sp)
  80f510:	dec00304 	addi	sp,sp,12
  80f514:	f800283a 	ret

0080f518 <alt_find_dev>:
 * be found.
 */
 
alt_dev* alt_find_dev(const char* name, alt_llist* llist)
{
  80f518:	defff904 	addi	sp,sp,-28
  80f51c:	dfc00615 	stw	ra,24(sp)
  80f520:	df000515 	stw	fp,20(sp)
  80f524:	df000504 	addi	fp,sp,20
  80f528:	e13ffb15 	stw	r4,-20(fp)
  80f52c:	e17ffc15 	stw	r5,-16(fp)
  alt_dev* next = (alt_dev*) llist->next;
  80f530:	e0bffc17 	ldw	r2,-16(fp)
  80f534:	10800017 	ldw	r2,0(r2)
  80f538:	e0bffd15 	stw	r2,-12(fp)
  alt_32 len;

  len  = strlen(name) + 1;
  80f53c:	e13ffb17 	ldw	r4,-20(fp)
  80f540:	08070bc0 	call	8070bc <strlen>
  80f544:	10800044 	addi	r2,r2,1
  80f548:	e0bffe15 	stw	r2,-8(fp)

  /*
   * Check each list entry in turn, until a match is found, or we reach the
   * end of the list (i.e. next winds up pointing back to the list head).
   */ 

  while (next != (alt_dev*) llist)
  80f54c:	e0fffd17 	ldw	r3,-12(fp)
  80f550:	e0bffc17 	ldw	r2,-16(fp)
  80f554:	18800e26 	beq	r3,r2,80f590 <alt_find_dev+0x78>
  {

    /* 
     * memcmp() is used here rather than strcmp() in order to reduce the size
     * of the executable.
     */

    if (!memcmp (next->name, name, len))
  80f558:	e0bffd17 	ldw	r2,-12(fp)
  80f55c:	11000217 	ldw	r4,8(r2)
  80f560:	e17ffb17 	ldw	r5,-20(fp)
  80f564:	e1bffe17 	ldw	r6,-8(fp)
  80f568:	081004c0 	call	81004c <memcmp>
  80f56c:	1004c03a 	cmpne	r2,r2,zero
  80f570:	1000031e 	bne	r2,zero,80f580 <alt_find_dev+0x68>
    {
      /* match found */

      return next;
  80f574:	e0bffd17 	ldw	r2,-12(fp)
  80f578:	e0bfff15 	stw	r2,-4(fp)
  80f57c:	00000506 	br	80f594 <alt_find_dev+0x7c>
    }
    next = (alt_dev*) next->llist.next;
  80f580:	e0bffd17 	ldw	r2,-12(fp)
  80f584:	10800017 	ldw	r2,0(r2)
  80f588:	e0bffd15 	stw	r2,-12(fp)
  80f58c:	003fef06 	br	80f54c <alt_find_dev+0x34>
  }
  
  /* No match found */
  
  return NULL;
  80f590:	e03fff15 	stw	zero,-4(fp)
}
  80f594:	e0bfff17 	ldw	r2,-4(fp)
  80f598:	dfc00617 	ldw	ra,24(sp)
  80f59c:	df000517 	ldw	fp,20(sp)
  80f5a0:	dec00704 	addi	sp,sp,28
  80f5a4:	f800283a 	ret

0080f5a8 <alt_icache_flush_all>:
 * alt_icache_flush_all() is called to flush the entire instruction cache.
 */

void alt_icache_flush_all (void)
{
  80f5a8:	deffff04 	addi	sp,sp,-4
  80f5ac:	df000015 	stw	fp,0(sp)
  80f5b0:	d839883a 	mov	fp,sp
  80f5b4:	df000017 	ldw	fp,0(sp)
  80f5b8:	dec00104 	addi	sp,sp,4
  80f5bc:	f800283a 	ret

0080f5c0 <alt_open_fd>:
 * remains unchanged.
 */

static void alt_open_fd(alt_fd* fd, const char* name, int flags, int mode)
{
  80f5c0:	defff704 	addi	sp,sp,-36
  80f5c4:	dfc00815 	stw	ra,32(sp)
  80f5c8:	df000715 	stw	fp,28(sp)
  80f5cc:	dc000615 	stw	r16,24(sp)
  80f5d0:	dc400515 	stw	r17,20(sp)
  80f5d4:	df000704 	addi	fp,sp,28
  80f5d8:	e13ff915 	stw	r4,-28(fp)
  80f5dc:	e17ffa15 	stw	r5,-24(fp)
  80f5e0:	e1bffb15 	stw	r6,-20(fp)
  80f5e4:	e1fffc15 	stw	r7,-16(fp)
  int old;

  old = open (name, flags, mode);
  80f5e8:	e13ffa17 	ldw	r4,-24(fp)
  80f5ec:	e17ffb17 	ldw	r5,-20(fp)
  80f5f0:	e1bffc17 	ldw	r6,-16(fp)
  80f5f4:	080f99c0 	call	80f99c <open>
  80f5f8:	e0bffd15 	stw	r2,-12(fp)

  if (old >= 0)
  80f5fc:	e0bffd17 	ldw	r2,-12(fp)
  80f600:	1004803a 	cmplt	r2,r2,zero
  80f604:	10001f1e 	bne	r2,zero,80f684 <alt_open_fd+0xc4>
  {
    fd->dev      = alt_fd_list[old].dev;
  80f608:	e43ff917 	ldw	r16,-28(fp)
  80f60c:	04402074 	movhi	r17,129
  80f610:	8c43b504 	addi	r17,r17,3796
  80f614:	e13ffd17 	ldw	r4,-12(fp)
  80f618:	01400304 	movi	r5,12
  80f61c:	08007a40 	call	8007a4 <__mulsi3>
  80f620:	1445883a 	add	r2,r2,r17
  80f624:	10800017 	ldw	r2,0(r2)
  80f628:	80800015 	stw	r2,0(r16)
    fd->priv     = alt_fd_list[old].priv;
  80f62c:	e43ff917 	ldw	r16,-28(fp)
  80f630:	04402074 	movhi	r17,129
  80f634:	8c43b504 	addi	r17,r17,3796
  80f638:	e13ffd17 	ldw	r4,-12(fp)
  80f63c:	01400304 	movi	r5,12
  80f640:	08007a40 	call	8007a4 <__mulsi3>
  80f644:	1445883a 	add	r2,r2,r17
  80f648:	10800104 	addi	r2,r2,4
  80f64c:	10800017 	ldw	r2,0(r2)
  80f650:	80800115 	stw	r2,4(r16)
    fd->fd_flags = alt_fd_list[old].fd_flags;
  80f654:	e43ff917 	ldw	r16,-28(fp)
  80f658:	04402074 	movhi	r17,129
  80f65c:	8c43b504 	addi	r17,r17,3796
  80f660:	e13ffd17 	ldw	r4,-12(fp)
  80f664:	01400304 	movi	r5,12
  80f668:	08007a40 	call	8007a4 <__mulsi3>
  80f66c:	1445883a 	add	r2,r2,r17
  80f670:	10800204 	addi	r2,r2,8
  80f674:	10800017 	ldw	r2,0(r2)
  80f678:	80800215 	stw	r2,8(r16)

    alt_release_fd (old);
  80f67c:	e13ffd17 	ldw	r4,-12(fp)
  80f680:	0809ce40 	call	809ce4 <alt_release_fd>
  }
} 
  80f684:	dfc00817 	ldw	ra,32(sp)
  80f688:	df000717 	ldw	fp,28(sp)
  80f68c:	dc000617 	ldw	r16,24(sp)
  80f690:	dc400517 	ldw	r17,20(sp)
  80f694:	dec00904 	addi	sp,sp,36
  80f698:	f800283a 	ret

0080f69c <alt_io_redirect>:

/*
 * alt_io_redirect() is called once the device/filesystem lists have been 
 * initialised, but before main(). Its function is to redirect standard in,
 * standard out and standard error so that they point to the devices selected by
 * the user (as defined in system.h).
 *
 * Prior to the call to this function, io is directed towards /dev/null. If
 * i/o can not be redirected to the requested device, for example if the device 
 * does not exist, then it remains directed at /dev/null. 
 */
 
void alt_io_redirect(const char* stdout_dev, 
                     const char* stdin_dev, 
                     const char* stderr_dev)
{
  80f69c:	defffb04 	addi	sp,sp,-20
  80f6a0:	dfc00415 	stw	ra,16(sp)
  80f6a4:	df000315 	stw	fp,12(sp)
  80f6a8:	df000304 	addi	fp,sp,12
  80f6ac:	e13ffd15 	stw	r4,-12(fp)
  80f6b0:	e17ffe15 	stw	r5,-8(fp)
  80f6b4:	e1bfff15 	stw	r6,-4(fp)
  /* Redirect the channels */

  alt_open_fd (&alt_fd_list[STDOUT_FILENO], stdout_dev, O_WRONLY, 0777);
  80f6b8:	01002074 	movhi	r4,129
  80f6bc:	2103b804 	addi	r4,r4,3808
  80f6c0:	e17ffd17 	ldw	r5,-12(fp)
  80f6c4:	01800044 	movi	r6,1
  80f6c8:	01c07fc4 	movi	r7,511
  80f6cc:	080f5c00 	call	80f5c0 <alt_open_fd>
  alt_open_fd (&alt_fd_list[STDIN_FILENO], stdin_dev, O_RDONLY, 0777);
  80f6d0:	01002074 	movhi	r4,129
  80f6d4:	2103b504 	addi	r4,r4,3796
  80f6d8:	e17ffe17 	ldw	r5,-8(fp)
  80f6dc:	000d883a 	mov	r6,zero
  80f6e0:	01c07fc4 	movi	r7,511
  80f6e4:	080f5c00 	call	80f5c0 <alt_open_fd>
  alt_open_fd (&alt_fd_list[STDERR_FILENO], stderr_dev, O_WRONLY, 0777);
  80f6e8:	01002074 	movhi	r4,129
  80f6ec:	2103bb04 	addi	r4,r4,3820
  80f6f0:	e17fff17 	ldw	r5,-4(fp)
  80f6f4:	01800044 	movi	r6,1
  80f6f8:	01c07fc4 	movi	r7,511
  80f6fc:	080f5c00 	call	80f5c0 <alt_open_fd>
}  
  80f700:	dfc00417 	ldw	ra,16(sp)
  80f704:	df000317 	ldw	fp,12(sp)
  80f708:	dec00504 	addi	sp,sp,20
  80f70c:	f800283a 	ret

0080f710 <alt_irq_register>:
 
int alt_irq_register (alt_u32 id, 
                      void* context, 
                      alt_isr_func handler)
{
  80f710:	defff304 	addi	sp,sp,-52
  80f714:	df000c15 	stw	fp,48(sp)
  80f718:	df000c04 	addi	fp,sp,48
  80f71c:	e13ff415 	stw	r4,-48(fp)
  80f720:	e17ff515 	stw	r5,-44(fp)
  80f724:	e1bff615 	stw	r6,-40(fp)
  int rc = -EINVAL;  
  80f728:	00bffa84 	movi	r2,-22
  80f72c:	e0bff715 	stw	r2,-36(fp)
  alt_irq_context status;

  if (id < ALT_NIRQ)
  80f730:	e0bff417 	ldw	r2,-48(fp)
  80f734:	10800828 	cmpgeui	r2,r2,32
  80f738:	10005a1e 	bne	r2,zero,80f8a4 <alt_irq_register+0x194>
  80f73c:	0005303a 	rdctl	r2,status
  80f740:	e0bffa15 	stw	r2,-24(fp)
  80f744:	e0fffa17 	ldw	r3,-24(fp)
  80f748:	00bfff84 	movi	r2,-2
  80f74c:	1884703a 	and	r2,r3,r2
  80f750:	1001703a 	wrctl	status,r2
  80f754:	e0bffa17 	ldw	r2,-24(fp)
  80f758:	e0bff915 	stw	r2,-28(fp)
  80f75c:	e0bff917 	ldw	r2,-28(fp)
  80f760:	e0bff815 	stw	r2,-32(fp)
  {
    /* 
     * interrupts are disabled while the handler tables are updated to ensure
     * that an interrupt doesn't occur while the tables are in an inconsistant
     * state.
     */

    status = alt_irq_disable_all ();

    alt_irq[id].handler = handler;
  80f764:	00c02074 	movhi	r3,129
  80f768:	18c9fc04 	addi	r3,r3,10224
  80f76c:	e0bff417 	ldw	r2,-48(fp)
  80f770:	100490fa 	slli	r2,r2,3
  80f774:	10c7883a 	add	r3,r2,r3
  80f778:	e0bff617 	ldw	r2,-40(fp)
  80f77c:	18800015 	stw	r2,0(r3)
    alt_irq[id].context = context;
  80f780:	00c02074 	movhi	r3,129
  80f784:	18c9fc04 	addi	r3,r3,10224
  80f788:	e0bff417 	ldw	r2,-48(fp)
  80f78c:	100490fa 	slli	r2,r2,3
  80f790:	10c5883a 	add	r2,r2,r3
  80f794:	10c00104 	addi	r3,r2,4
  80f798:	e0bff517 	ldw	r2,-44(fp)
  80f79c:	18800015 	stw	r2,0(r3)

    rc = (handler) ? alt_irq_enable (id): alt_irq_disable (id);
  80f7a0:	e0bff617 	ldw	r2,-40(fp)
  80f7a4:	1005003a 	cmpeq	r2,r2,zero
  80f7a8:	10001c1e 	bne	r2,zero,80f81c <alt_irq_register+0x10c>
  80f7ac:	e0bff417 	ldw	r2,-48(fp)
  80f7b0:	e0bffa15 	stw	r2,-24(fp)
  80f7b4:	0005303a 	rdctl	r2,status
  80f7b8:	e0bffd15 	stw	r2,-12(fp)
  80f7bc:	e0fffd17 	ldw	r3,-12(fp)
  80f7c0:	00bfff84 	movi	r2,-2
  80f7c4:	1884703a 	and	r2,r3,r2
  80f7c8:	1001703a 	wrctl	status,r2
  80f7cc:	e0bffd17 	ldw	r2,-12(fp)
  80f7d0:	e0bffc15 	stw	r2,-16(fp)
  80f7d4:	e0bffc17 	ldw	r2,-16(fp)
  80f7d8:	e0bffb15 	stw	r2,-20(fp)
  80f7dc:	00c00044 	movi	r3,1
  80f7e0:	e0bffa17 	ldw	r2,-24(fp)
  80f7e4:	1886983a 	sll	r3,r3,r2
  80f7e8:	d0a02717 	ldw	r2,-32612(gp)
  80f7ec:	10c4b03a 	or	r2,r2,r3
  80f7f0:	d0a02715 	stw	r2,-32612(gp)
  80f7f4:	d0a02717 	ldw	r2,-32612(gp)
  80f7f8:	100170fa 	wrctl	ienable,r2
  80f7fc:	e0bffb17 	ldw	r2,-20(fp)
  80f800:	e0bffd15 	stw	r2,-12(fp)
  80f804:	e0bffd17 	ldw	r2,-12(fp)
  80f808:	1001703a 	wrctl	status,r2
  80f80c:	e03ff915 	stw	zero,-28(fp)
  80f810:	e0bff917 	ldw	r2,-28(fp)
  80f814:	e0bfff15 	stw	r2,-4(fp)
  80f818:	00001c06 	br	80f88c <alt_irq_register+0x17c>
  80f81c:	e0bff417 	ldw	r2,-48(fp)
  80f820:	e0bffd15 	stw	r2,-12(fp)
  80f824:	0005303a 	rdctl	r2,status
  80f828:	e0bffe15 	stw	r2,-8(fp)
  80f82c:	e0fffe17 	ldw	r3,-8(fp)
  80f830:	00bfff84 	movi	r2,-2
  80f834:	1884703a 	and	r2,r3,r2
  80f838:	1001703a 	wrctl	status,r2
  80f83c:	e0bffe17 	ldw	r2,-8(fp)
  80f840:	e0bffa15 	stw	r2,-24(fp)
  80f844:	e0bffa17 	ldw	r2,-24(fp)
  80f848:	e0bffb15 	stw	r2,-20(fp)
  80f84c:	00c00044 	movi	r3,1
  80f850:	e0bffd17 	ldw	r2,-12(fp)
  80f854:	1884983a 	sll	r2,r3,r2
  80f858:	0086303a 	nor	r3,zero,r2
  80f85c:	d0a02717 	ldw	r2,-32612(gp)
  80f860:	10c4703a 	and	r2,r2,r3
  80f864:	d0a02715 	stw	r2,-32612(gp)
  80f868:	d0a02717 	ldw	r2,-32612(gp)
  80f86c:	100170fa 	wrctl	ienable,r2
  80f870:	e0bffb17 	ldw	r2,-20(fp)
  80f874:	e0bffe15 	stw	r2,-8(fp)
  80f878:	e0bffe17 	ldw	r2,-8(fp)
  80f87c:	1001703a 	wrctl	status,r2
  80f880:	e03ffc15 	stw	zero,-16(fp)
  80f884:	e0bffc17 	ldw	r2,-16(fp)
  80f888:	e0bfff15 	stw	r2,-4(fp)
  80f88c:	e0bfff17 	ldw	r2,-4(fp)
  80f890:	e0bff715 	stw	r2,-36(fp)
  80f894:	e0bff817 	ldw	r2,-32(fp)
  80f898:	e0bffe15 	stw	r2,-8(fp)
  80f89c:	e0bffe17 	ldw	r2,-8(fp)
  80f8a0:	1001703a 	wrctl	status,r2

    alt_irq_enable_all(status);
  }
  return rc; 
  80f8a4:	e0bff717 	ldw	r2,-36(fp)
}
  80f8a8:	df000c17 	ldw	fp,48(sp)
  80f8ac:	dec00d04 	addi	sp,sp,52
  80f8b0:	f800283a 	ret

0080f8b4 <alt_file_locked>:
 * themselves, and report the error from the filesystems open() function. 
 */ 

static int alt_file_locked (alt_fd* fd)
{
  80f8b4:	defffa04 	addi	sp,sp,-24
  80f8b8:	dfc00515 	stw	ra,20(sp)
  80f8bc:	df000415 	stw	fp,16(sp)
  80f8c0:	dc000315 	stw	r16,12(sp)
  80f8c4:	df000404 	addi	fp,sp,16
  80f8c8:	e13ffc15 	stw	r4,-16(fp)
  alt_u32 i;

  /*
   * Mark the file descriptor as belonging to a device.
   */

  fd->fd_flags |= ALT_FD_DEV;
  80f8cc:	e0fffc17 	ldw	r3,-16(fp)
  80f8d0:	e0bffc17 	ldw	r2,-16(fp)
  80f8d4:	10800217 	ldw	r2,8(r2)
  80f8d8:	10900034 	orhi	r2,r2,16384
  80f8dc:	18800215 	stw	r2,8(r3)

  /*
   * Loop through all current file descriptors searching for one that's locked
   * for exclusive access. If a match is found, generate an error.
   */

  for (i = 0; i <= alt_max_fd; i++)
  80f8e0:	e03ffd15 	stw	zero,-12(fp)
  80f8e4:	d0e01417 	ldw	r3,-32688(gp)
  80f8e8:	e0bffd17 	ldw	r2,-12(fp)
  80f8ec:	18802436 	bltu	r3,r2,80f980 <alt_file_locked+0xcc>
  {
    if ((alt_fd_list[i].dev == fd->dev) &&
  80f8f0:	04002074 	movhi	r16,129
  80f8f4:	8403b504 	addi	r16,r16,3796
  80f8f8:	e13ffd17 	ldw	r4,-12(fp)
  80f8fc:	01400304 	movi	r5,12
  80f900:	08007a40 	call	8007a4 <__mulsi3>
  80f904:	1405883a 	add	r2,r2,r16
  80f908:	e0fffc17 	ldw	r3,-16(fp)
  80f90c:	11000017 	ldw	r4,0(r2)
  80f910:	18800017 	ldw	r2,0(r3)
  80f914:	2080161e 	bne	r4,r2,80f970 <alt_file_locked+0xbc>
  80f918:	04002074 	movhi	r16,129
  80f91c:	8403b504 	addi	r16,r16,3796
  80f920:	e13ffd17 	ldw	r4,-12(fp)
  80f924:	01400304 	movi	r5,12
  80f928:	08007a40 	call	8007a4 <__mulsi3>
  80f92c:	1405883a 	add	r2,r2,r16
  80f930:	10800204 	addi	r2,r2,8
  80f934:	10800017 	ldw	r2,0(r2)
  80f938:	1004403a 	cmpge	r2,r2,zero
  80f93c:	10000c1e 	bne	r2,zero,80f970 <alt_file_locked+0xbc>
  80f940:	e13ffd17 	ldw	r4,-12(fp)
  80f944:	01400304 	movi	r5,12
  80f948:	08007a40 	call	8007a4 <__mulsi3>
  80f94c:	1007883a 	mov	r3,r2
  80f950:	00802074 	movhi	r2,129
  80f954:	1083b504 	addi	r2,r2,3796
  80f958:	1887883a 	add	r3,r3,r2
  80f95c:	e0bffc17 	ldw	r2,-16(fp)
  80f960:	18800326 	beq	r3,r2,80f970 <alt_file_locked+0xbc>
        (alt_fd_list[i].fd_flags & ALT_FD_EXCL) &&
        (&alt_fd_list[i] != fd))
    {
      return -EACCES;
  80f964:	00bffcc4 	movi	r2,-13
  80f968:	e0bffe15 	stw	r2,-8(fp)
  80f96c:	00000506 	br	80f984 <alt_file_locked+0xd0>
  80f970:	e0bffd17 	ldw	r2,-12(fp)
  80f974:	10800044 	addi	r2,r2,1
  80f978:	e0bffd15 	stw	r2,-12(fp)
  80f97c:	003fd906 	br	80f8e4 <alt_file_locked+0x30>
    }
  }
  
  /* The device is not locked */
 
  return 0;
  80f980:	e03ffe15 	stw	zero,-8(fp)
}
  80f984:	e0bffe17 	ldw	r2,-8(fp)
  80f988:	dfc00517 	ldw	ra,20(sp)
  80f98c:	df000417 	ldw	fp,16(sp)
  80f990:	dc000317 	ldw	r16,12(sp)
  80f994:	dec00604 	addi	sp,sp,24
  80f998:	f800283a 	ret

0080f99c <open>:

/*
 * open() is called in order to get a file descriptor that reference the file
 * or device named "name". This descriptor can then be used to manipulate the
 * file/device using the standard system calls, e.g. write(), read(), ioctl()
 * etc.
 *
 * This is equivalent to the standard open() system call.
 *
 * ALT_OPEN is mapped onto the open() system call in alt_syscall.h
 */
 
int ALT_OPEN (const char* file, int flags, int mode)
{ 
  80f99c:	defff404 	addi	sp,sp,-48
  80f9a0:	dfc00b15 	stw	ra,44(sp)
  80f9a4:	df000a15 	stw	fp,40(sp)
  80f9a8:	df000a04 	addi	fp,sp,40
  80f9ac:	e13ff615 	stw	r4,-40(fp)
  80f9b0:	e17ff715 	stw	r5,-36(fp)
  80f9b4:	e1bff815 	stw	r6,-32(fp)
  alt_dev* dev;
  alt_fd*  fd;
  int index  = -1;
  80f9b8:	00bfffc4 	movi	r2,-1
  80f9bc:	e0bffb15 	stw	r2,-20(fp)
  int status = -ENODEV;
  80f9c0:	00bffb44 	movi	r2,-19
  80f9c4:	e0bffc15 	stw	r2,-16(fp)
  int isafs = 0;
  80f9c8:	e03ffd15 	stw	zero,-12(fp)

  /* 
   * Check the device list, to see if a device with a matching name is 
   * registered.
   */
  
  if (!(dev = alt_find_dev (file, &alt_dev_list)))
  80f9cc:	e13ff617 	ldw	r4,-40(fp)
  80f9d0:	d1601204 	addi	r5,gp,-32696
  80f9d4:	080f5180 	call	80f518 <alt_find_dev>
  80f9d8:	e0bff915 	stw	r2,-28(fp)
  80f9dc:	e0bff917 	ldw	r2,-28(fp)
  80f9e0:	1004c03a 	cmpne	r2,r2,zero
  80f9e4:	1000051e 	bne	r2,zero,80f9fc <open+0x60>
  {
    /* No matching device, so try the filesystem list */

    dev   = alt_find_file (file);
  80f9e8:	e13ff617 	ldw	r4,-40(fp)
  80f9ec:	080fd240 	call	80fd24 <alt_find_file>
  80f9f0:	e0bff915 	stw	r2,-28(fp)
    isafs = 1;
  80f9f4:	00800044 	movi	r2,1
  80f9f8:	e0bffd15 	stw	r2,-12(fp)
  }

  /* 
   * If a matching device or filesystem is found, allocate a file descriptor. 
   */

  if (dev)
  80f9fc:	e0bff917 	ldw	r2,-28(fp)
  80fa00:	1005003a 	cmpeq	r2,r2,zero
  80fa04:	1000321e 	bne	r2,zero,80fad0 <open+0x134>
  {
    if ((index = alt_get_fd (dev)) < 0)
  80fa08:	e13ff917 	ldw	r4,-28(fp)
  80fa0c:	080fe080 	call	80fe08 <alt_get_fd>
  80fa10:	e0bffb15 	stw	r2,-20(fp)
  80fa14:	e0bffb17 	ldw	r2,-20(fp)
  80fa18:	1004403a 	cmpge	r2,r2,zero
  80fa1c:	1000031e 	bne	r2,zero,80fa2c <open+0x90>
    {
      status = index;
  80fa20:	e0bffb17 	ldw	r2,-20(fp)
  80fa24:	e0bffc15 	stw	r2,-16(fp)
  80fa28:	00002b06 	br	80fad8 <open+0x13c>
    }
    else
    {
      fd = &alt_fd_list[index];
  80fa2c:	e13ffb17 	ldw	r4,-20(fp)
  80fa30:	01400304 	movi	r5,12
  80fa34:	08007a40 	call	8007a4 <__mulsi3>
  80fa38:	1007883a 	mov	r3,r2
  80fa3c:	00802074 	movhi	r2,129
  80fa40:	1083b504 	addi	r2,r2,3796
  80fa44:	1885883a 	add	r2,r3,r2
  80fa48:	e0bffa15 	stw	r2,-24(fp)
      fd->fd_flags = (flags & ~ALT_FD_FLAGS_MASK);
  80fa4c:	e13ffa17 	ldw	r4,-24(fp)
  80fa50:	e0fff717 	ldw	r3,-36(fp)
  80fa54:	00900034 	movhi	r2,16384
  80fa58:	10bfffc4 	addi	r2,r2,-1
  80fa5c:	1884703a 	and	r2,r3,r2
  80fa60:	20800215 	stw	r2,8(r4)
      
      /* If this is a device, ensure it isn't already locked */

      if (isafs || ((status = alt_file_locked (fd)) >= 0))
  80fa64:	e0bffd17 	ldw	r2,-12(fp)
  80fa68:	1004c03a 	cmpne	r2,r2,zero
  80fa6c:	1000071e 	bne	r2,zero,80fa8c <open+0xf0>
  80fa70:	e13ffa17 	ldw	r4,-24(fp)
  80fa74:	080f8b40 	call	80f8b4 <alt_file_locked>
  80fa78:	e0bffc15 	stw	r2,-16(fp)
  80fa7c:	e0bffc17 	ldw	r2,-16(fp)
  80fa80:	1004403a 	cmpge	r2,r2,zero
  80fa84:	1000011e 	bne	r2,zero,80fa8c <open+0xf0>
  80fa88:	00001306 	br	80fad8 <open+0x13c>
      {
        /* 
         * If the device or filesystem provides an open() callback function,
         * call it now to perform any device/filesystem specific operations.
         */
    
        status = (dev->open) ? dev->open(fd, file, flags, mode): 0;
  80fa8c:	e0bff917 	ldw	r2,-28(fp)
  80fa90:	10800317 	ldw	r2,12(r2)
  80fa94:	1005003a 	cmpeq	r2,r2,zero
  80fa98:	1000091e 	bne	r2,zero,80fac0 <open+0x124>
  80fa9c:	e0bff917 	ldw	r2,-28(fp)
  80faa0:	10800317 	ldw	r2,12(r2)
  80faa4:	e13ffa17 	ldw	r4,-24(fp)
  80faa8:	e17ff617 	ldw	r5,-40(fp)
  80faac:	e1bff717 	ldw	r6,-36(fp)
  80fab0:	e1fff817 	ldw	r7,-32(fp)
  80fab4:	103ee83a 	callr	r2
  80fab8:	e0bfff15 	stw	r2,-4(fp)
  80fabc:	00000106 	br	80fac4 <open+0x128>
  80fac0:	e03fff15 	stw	zero,-4(fp)
  80fac4:	e0bfff17 	ldw	r2,-4(fp)
  80fac8:	e0bffc15 	stw	r2,-16(fp)
  80facc:	00000206 	br	80fad8 <open+0x13c>
      }
    }
  }
  else
  {
    status = -ENODEV;
  80fad0:	00bffb44 	movi	r2,-19
  80fad4:	e0bffc15 	stw	r2,-16(fp)
  }

  /* Allocation failed, so clean up and return an error */ 

  if (status < 0)
  80fad8:	e0bffc17 	ldw	r2,-16(fp)
  80fadc:	1004403a 	cmpge	r2,r2,zero
  80fae0:	1000091e 	bne	r2,zero,80fb08 <open+0x16c>
  {
    alt_release_fd (index);  
  80fae4:	e13ffb17 	ldw	r4,-20(fp)
  80fae8:	0809ce40 	call	809ce4 <alt_release_fd>
    ALT_ERRNO = -status;
  80faec:	080fb240 	call	80fb24 <alt_get_errno>
  80faf0:	e0fffc17 	ldw	r3,-16(fp)
  80faf4:	00c7c83a 	sub	r3,zero,r3
  80faf8:	10c00015 	stw	r3,0(r2)
    return -1;
  80fafc:	00bfffc4 	movi	r2,-1
  80fb00:	e0bffe15 	stw	r2,-8(fp)
  80fb04:	00000206 	br	80fb10 <open+0x174>
  }
  
  /* return the reference upon success */

  return index;
  80fb08:	e0bffb17 	ldw	r2,-20(fp)
  80fb0c:	e0bffe15 	stw	r2,-8(fp)
}
  80fb10:	e0bffe17 	ldw	r2,-8(fp)
  80fb14:	dfc00b17 	ldw	ra,44(sp)
  80fb18:	df000a17 	ldw	fp,40(sp)
  80fb1c:	dec00c04 	addi	sp,sp,48
  80fb20:	f800283a 	ret

0080fb24 <alt_get_errno>:
  80fb24:	defffd04 	addi	sp,sp,-12
  80fb28:	dfc00215 	stw	ra,8(sp)
  80fb2c:	df000115 	stw	fp,4(sp)
  80fb30:	df000104 	addi	fp,sp,4
  80fb34:	d0a01517 	ldw	r2,-32684(gp)
  80fb38:	1005003a 	cmpeq	r2,r2,zero
  80fb3c:	1000041e 	bne	r2,zero,80fb50 <alt_get_errno+0x2c>
  80fb40:	d0a01517 	ldw	r2,-32684(gp)
  80fb44:	103ee83a 	callr	r2
  80fb48:	e0bfff15 	stw	r2,-4(fp)
  80fb4c:	00000206 	br	80fb58 <alt_get_errno+0x34>
  80fb50:	d0a03004 	addi	r2,gp,-32576
  80fb54:	e0bfff15 	stw	r2,-4(fp)
  80fb58:	e0bfff17 	ldw	r2,-4(fp)
  80fb5c:	dfc00217 	ldw	ra,8(sp)
  80fb60:	df000117 	ldw	fp,4(sp)
  80fb64:	dec00304 	addi	sp,sp,12
  80fb68:	f800283a 	ret

0080fb6c <alt_alarm_stop>:
 * the alarm executes.
 */

void alt_alarm_stop (alt_alarm* alarm)
{
  80fb6c:	defffb04 	addi	sp,sp,-20
  80fb70:	df000415 	stw	fp,16(sp)
  80fb74:	df000404 	addi	fp,sp,16
  80fb78:	e13ffc15 	stw	r4,-16(fp)
  80fb7c:	0005303a 	rdctl	r2,status
  80fb80:	e0bfff15 	stw	r2,-4(fp)
  80fb84:	e0ffff17 	ldw	r3,-4(fp)
  80fb88:	00bfff84 	movi	r2,-2
  80fb8c:	1884703a 	and	r2,r3,r2
  80fb90:	1001703a 	wrctl	status,r2
  80fb94:	e0bfff17 	ldw	r2,-4(fp)
  80fb98:	e0bffe15 	stw	r2,-8(fp)
  80fb9c:	e0bffe17 	ldw	r2,-8(fp)
  80fba0:	e0bffd15 	stw	r2,-12(fp)
  80fba4:	e0bffc17 	ldw	r2,-16(fp)
  80fba8:	e0bfff15 	stw	r2,-4(fp)
  80fbac:	e0bfff17 	ldw	r2,-4(fp)
  80fbb0:	10c00017 	ldw	r3,0(r2)
  80fbb4:	e0bfff17 	ldw	r2,-4(fp)
  80fbb8:	10800117 	ldw	r2,4(r2)
  80fbbc:	18800115 	stw	r2,4(r3)
  80fbc0:	e0bfff17 	ldw	r2,-4(fp)
  80fbc4:	10c00117 	ldw	r3,4(r2)
  80fbc8:	e0bfff17 	ldw	r2,-4(fp)
  80fbcc:	10800017 	ldw	r2,0(r2)
  80fbd0:	18800015 	stw	r2,0(r3)
  80fbd4:	e0ffff17 	ldw	r3,-4(fp)
  80fbd8:	e0bfff17 	ldw	r2,-4(fp)
  80fbdc:	18800115 	stw	r2,4(r3)
  80fbe0:	e0ffff17 	ldw	r3,-4(fp)
  80fbe4:	e0bfff17 	ldw	r2,-4(fp)
  80fbe8:	18800015 	stw	r2,0(r3)
  80fbec:	e0bffd17 	ldw	r2,-12(fp)
  80fbf0:	e0bfff15 	stw	r2,-4(fp)
  80fbf4:	e0bfff17 	ldw	r2,-4(fp)
  80fbf8:	1001703a 	wrctl	status,r2
  alt_irq_context irq_context;

  irq_context = alt_irq_disable_all();
  alt_llist_remove (&alarm->llist);
  alt_irq_enable_all (irq_context);
}
  80fbfc:	df000417 	ldw	fp,16(sp)
  80fc00:	dec00504 	addi	sp,sp,20
  80fc04:	f800283a 	ret

0080fc08 <alt_tick>:

/*
 * alt_tick() is periodically called by the system clock driver in order to
 * process the registered list of alarms. Each alarm is registed with a
 * callback interval, and a callback function, "callback". 
 *
 * The return value of the callback function indicates how many ticks are to
 * elapse until the next callback. A return value of zero indicates that the
 * alarm should be deactivated. 
 * 
 * alt_tick() is expected to run at interrupt level.
 */

void alt_tick (void)
{
  80fc08:	defffb04 	addi	sp,sp,-20
  80fc0c:	dfc00415 	stw	ra,16(sp)
  80fc10:	df000315 	stw	fp,12(sp)
  80fc14:	df000304 	addi	fp,sp,12
  alt_alarm* next;
  alt_alarm* alarm = (alt_alarm*) alt_alarm_list.next;
  80fc18:	d0a02b17 	ldw	r2,-32596(gp)
  80fc1c:	e0bffe15 	stw	r2,-8(fp)

  alt_u32    next_callback;

  /* update the tick counter */

  _alt_nticks++;
  80fc20:	d0a02a17 	ldw	r2,-32600(gp)
  80fc24:	10800044 	addi	r2,r2,1
  80fc28:	d0a02a15 	stw	r2,-32600(gp)

  /* process the registered callbacks */

  while (alarm != (alt_alarm*) &alt_alarm_list)
  80fc2c:	e0fffe17 	ldw	r3,-8(fp)
  80fc30:	d0a02b04 	addi	r2,gp,-32596
  80fc34:	18803026 	beq	r3,r2,80fcf8 <alt_tick+0xf0>
  {
    next = (alt_alarm*) alarm->llist.next;
  80fc38:	e0bffe17 	ldw	r2,-8(fp)
  80fc3c:	10800017 	ldw	r2,0(r2)
  80fc40:	e0bffd15 	stw	r2,-12(fp)

    /* 
     * Upon the tick-counter rolling over it is safe to clear the 
     * roll-over flag; once the flag is cleared this (or subsequnt)
     * tick events are enabled to generate an alarm event. 
     */
    if ((alarm->rollover) && (_alt_nticks == 0))
  80fc44:	e0bffe17 	ldw	r2,-8(fp)
  80fc48:	10800403 	ldbu	r2,16(r2)
  80fc4c:	1005003a 	cmpeq	r2,r2,zero
  80fc50:	1000051e 	bne	r2,zero,80fc68 <alt_tick+0x60>
  80fc54:	d0a02a17 	ldw	r2,-32600(gp)
  80fc58:	1004c03a 	cmpne	r2,r2,zero
  80fc5c:	1000021e 	bne	r2,zero,80fc68 <alt_tick+0x60>
    {
      alarm->rollover = 0;
  80fc60:	e0bffe17 	ldw	r2,-8(fp)
  80fc64:	10000405 	stb	zero,16(r2)
    }
    
    /* if the alarm period has expired, make the callback */    
    if ((alarm->time <= _alt_nticks) && (alarm->rollover == 0))
  80fc68:	e0bffe17 	ldw	r2,-8(fp)
  80fc6c:	10c00217 	ldw	r3,8(r2)
  80fc70:	d0a02a17 	ldw	r2,-32600(gp)
  80fc74:	10c01d36 	bltu	r2,r3,80fcec <alt_tick+0xe4>
  80fc78:	e0bffe17 	ldw	r2,-8(fp)
  80fc7c:	10800403 	ldbu	r2,16(r2)
  80fc80:	1004c03a 	cmpne	r2,r2,zero
  80fc84:	1000191e 	bne	r2,zero,80fcec <alt_tick+0xe4>
    {
      next_callback = alarm->callback (alarm->context);
  80fc88:	e0bffe17 	ldw	r2,-8(fp)
  80fc8c:	e0fffe17 	ldw	r3,-8(fp)
  80fc90:	10800317 	ldw	r2,12(r2)
  80fc94:	19000517 	ldw	r4,20(r3)
  80fc98:	103ee83a 	callr	r2
  80fc9c:	e0bfff15 	stw	r2,-4(fp)

      /* deactivate the alarm if the return value is zero */

      if (next_callback == 0)
  80fca0:	e0bfff17 	ldw	r2,-4(fp)
  80fca4:	1004c03a 	cmpne	r2,r2,zero
  80fca8:	1000031e 	bne	r2,zero,80fcb8 <alt_tick+0xb0>
      {
        alt_alarm_stop (alarm);
  80fcac:	e13ffe17 	ldw	r4,-8(fp)
  80fcb0:	080fb6c0 	call	80fb6c <alt_alarm_stop>
  80fcb4:	00000d06 	br	80fcec <alt_tick+0xe4>
      }
      else
      {
        alarm->time += next_callback;
  80fcb8:	e13ffe17 	ldw	r4,-8(fp)
  80fcbc:	e0bffe17 	ldw	r2,-8(fp)
  80fcc0:	10c00217 	ldw	r3,8(r2)
  80fcc4:	e0bfff17 	ldw	r2,-4(fp)
  80fcc8:	1885883a 	add	r2,r3,r2
  80fccc:	20800215 	stw	r2,8(r4)
        
        /* 
         * If the desired alarm time causes a roll-over, set the rollover
         * flag. This will prevent the subsequent tick event from causing
         * an alarm too early.
         */
        if(alarm->time < _alt_nticks)
  80fcd0:	e0bffe17 	ldw	r2,-8(fp)
  80fcd4:	10c00217 	ldw	r3,8(r2)
  80fcd8:	d0a02a17 	ldw	r2,-32600(gp)
  80fcdc:	1880032e 	bgeu	r3,r2,80fcec <alt_tick+0xe4>
        {
          alarm->rollover = 1;
  80fce0:	e0fffe17 	ldw	r3,-8(fp)
  80fce4:	00800044 	movi	r2,1
  80fce8:	18800405 	stb	r2,16(r3)
        }
      }
    }
    alarm = next;
  80fcec:	e0bffd17 	ldw	r2,-12(fp)
  80fcf0:	e0bffe15 	stw	r2,-8(fp)
  80fcf4:	003fcd06 	br	80fc2c <alt_tick+0x24>
  }

  /* 
   * Update the operating system specific timer facilities.
   */

  ALT_OS_TIME_TICK();
}
  80fcf8:	dfc00417 	ldw	ra,16(sp)
  80fcfc:	df000317 	ldw	fp,12(sp)
  80fd00:	dec00504 	addi	sp,sp,20
  80fd04:	f800283a 	ret

0080fd08 <altera_nios2_irq_init>:
 * To initialize the internal interrupt controller, just clear the IENABLE
 * register so that all possible IRQs are disabled.
 */
void altera_nios2_irq_init(void) 
{
  80fd08:	deffff04 	addi	sp,sp,-4
  80fd0c:	df000015 	stw	fp,0(sp)
  80fd10:	d839883a 	mov	fp,sp
    NIOS2_WRITE_IENABLE(0);
  80fd14:	000170fa 	wrctl	ienable,zero
}
  80fd18:	df000017 	ldw	fp,0(sp)
  80fd1c:	dec00104 	addi	sp,sp,4
  80fd20:	f800283a 	ret

0080fd24 <alt_find_file>:
 * "/myfilesystem/junk.txt" would match: "/myfilesystem", but not: "/myfile". 
 */
 
alt_dev* alt_find_file (const char* name)
{
  80fd24:	defffa04 	addi	sp,sp,-24
  80fd28:	dfc00515 	stw	ra,20(sp)
  80fd2c:	df000415 	stw	fp,16(sp)
  80fd30:	df000404 	addi	fp,sp,16
  80fd34:	e13ffc15 	stw	r4,-16(fp)
  alt_dev* next = (alt_dev*) alt_fs_list.next;   
  80fd38:	d0a01017 	ldw	r2,-32704(gp)
  80fd3c:	e0bffd15 	stw	r2,-12(fp)

  alt_32 len;
 
  /*
   * Check each list entry in turn, until a match is found, or we reach the
   * end of the list (i.e. next winds up pointing back to the list head).
   */ 
 
  while (next != (alt_dev*) &alt_fs_list)
  80fd40:	e0fffd17 	ldw	r3,-12(fp)
  80fd44:	d0a01004 	addi	r2,gp,-32704
  80fd48:	18802926 	beq	r3,r2,80fdf0 <alt_find_file+0xcc>
  {
    len = strlen(next->name);
  80fd4c:	e0bffd17 	ldw	r2,-12(fp)
  80fd50:	11000217 	ldw	r4,8(r2)
  80fd54:	08070bc0 	call	8070bc <strlen>
  80fd58:	e0bffe15 	stw	r2,-8(fp)
    
    if (next->name[len-1] == '/')
  80fd5c:	e0bffd17 	ldw	r2,-12(fp)
  80fd60:	10c00217 	ldw	r3,8(r2)
  80fd64:	e0bffe17 	ldw	r2,-8(fp)
  80fd68:	1885883a 	add	r2,r3,r2
  80fd6c:	10bfffc4 	addi	r2,r2,-1
  80fd70:	10800007 	ldb	r2,0(r2)
  80fd74:	10800bd8 	cmpnei	r2,r2,47
  80fd78:	1000031e 	bne	r2,zero,80fd88 <alt_find_file+0x64>
    {
      len -= 1;
  80fd7c:	e0bffe17 	ldw	r2,-8(fp)
  80fd80:	10bfffc4 	addi	r2,r2,-1
  80fd84:	e0bffe15 	stw	r2,-8(fp)
    }

    if (((name[len] == '/') || (name[len] == '\0')) && 
  80fd88:	e0fffc17 	ldw	r3,-16(fp)
  80fd8c:	e0bffe17 	ldw	r2,-8(fp)
  80fd90:	1885883a 	add	r2,r3,r2
  80fd94:	10800007 	ldb	r2,0(r2)
  80fd98:	10800be0 	cmpeqi	r2,r2,47
  80fd9c:	1000061e 	bne	r2,zero,80fdb8 <alt_find_file+0x94>
  80fda0:	e0fffc17 	ldw	r3,-16(fp)
  80fda4:	e0bffe17 	ldw	r2,-8(fp)
  80fda8:	1885883a 	add	r2,r3,r2
  80fdac:	10800007 	ldb	r2,0(r2)
  80fdb0:	1004c03a 	cmpne	r2,r2,zero
  80fdb4:	10000a1e 	bne	r2,zero,80fde0 <alt_find_file+0xbc>
  80fdb8:	e0bffd17 	ldw	r2,-12(fp)
  80fdbc:	11000217 	ldw	r4,8(r2)
  80fdc0:	e17ffc17 	ldw	r5,-16(fp)
  80fdc4:	e1bffe17 	ldw	r6,-8(fp)
  80fdc8:	081004c0 	call	81004c <memcmp>
  80fdcc:	1004c03a 	cmpne	r2,r2,zero
  80fdd0:	1000031e 	bne	r2,zero,80fde0 <alt_find_file+0xbc>
        !memcmp (next->name, name, len))
    {
      /* match found */

      return next;
  80fdd4:	e0bffd17 	ldw	r2,-12(fp)
  80fdd8:	e0bfff15 	stw	r2,-4(fp)
  80fddc:	00000506 	br	80fdf4 <alt_find_file+0xd0>
    }
    next = (alt_dev*) next->llist.next;
  80fde0:	e0bffd17 	ldw	r2,-12(fp)
  80fde4:	10800017 	ldw	r2,0(r2)
  80fde8:	e0bffd15 	stw	r2,-12(fp)
  80fdec:	003fd406 	br	80fd40 <alt_find_file+0x1c>
  }
  
  /* No match found */
  
  return NULL;     
  80fdf0:	e03fff15 	stw	zero,-4(fp)
}
  80fdf4:	e0bfff17 	ldw	r2,-4(fp)
  80fdf8:	dfc00517 	ldw	ra,20(sp)
  80fdfc:	df000417 	ldw	fp,16(sp)
  80fe00:	dec00604 	addi	sp,sp,24
  80fe04:	f800283a 	ret

0080fe08 <alt_get_fd>:
 * negative value indicates failure.
 */

int alt_get_fd (alt_dev* dev)
{
  80fe08:	defff804 	addi	sp,sp,-32
  80fe0c:	dfc00715 	stw	ra,28(sp)
  80fe10:	df000615 	stw	fp,24(sp)
  80fe14:	dc000515 	stw	r16,20(sp)
  80fe18:	df000604 	addi	fp,sp,24
  80fe1c:	e13ffa15 	stw	r4,-24(fp)
  alt_32 i;
  int rc = -EMFILE;
  80fe20:	00bffa04 	movi	r2,-24
  80fe24:	e0bffc15 	stw	r2,-16(fp)
  80fe28:	e03ffd15 	stw	zero,-12(fp)
  
  /* 
   * Take the alt_fd_list_lock semaphore in order to avoid races when 
   * accessing the file descriptor pool.
   */
  
  ALT_SEM_PEND(alt_fd_list_lock, 0);
  
  /* 
   * Search through the list of file descriptors, and allocate the first
   * free descriptor that's found. 
   *
   * If a free descriptor is found, then the value of "alt_max_fd" is 
   * updated accordingly. "alt_max_fd" is a 'highwater mark' which 
   * indicates the highest file descriptor ever allocated. This is used to
   * improve efficency when searching the file descriptor list, and 
   * therefore reduce contention on the alt_fd_list_lock semaphore. 
   */

  for (i = 0; i < ALT_MAX_FD; i++)
  80fe2c:	e03ffb15 	stw	zero,-20(fp)
  80fe30:	e0bffb17 	ldw	r2,-20(fp)
  80fe34:	10800808 	cmpgei	r2,r2,32
  80fe38:	10001d1e 	bne	r2,zero,80feb0 <alt_get_fd+0xa8>
  {
    if (!alt_fd_list[i].dev)
  80fe3c:	04002074 	movhi	r16,129
  80fe40:	8403b504 	addi	r16,r16,3796
  80fe44:	e13ffb17 	ldw	r4,-20(fp)
  80fe48:	01400304 	movi	r5,12
  80fe4c:	08007a40 	call	8007a4 <__mulsi3>
  80fe50:	1405883a 	add	r2,r2,r16
  80fe54:	10800017 	ldw	r2,0(r2)
  80fe58:	1004c03a 	cmpne	r2,r2,zero
  80fe5c:	1000101e 	bne	r2,zero,80fea0 <alt_get_fd+0x98>
    {
      alt_fd_list[i].dev = dev;
  80fe60:	04002074 	movhi	r16,129
  80fe64:	8403b504 	addi	r16,r16,3796
  80fe68:	e13ffb17 	ldw	r4,-20(fp)
  80fe6c:	01400304 	movi	r5,12
  80fe70:	08007a40 	call	8007a4 <__mulsi3>
  80fe74:	1407883a 	add	r3,r2,r16
  80fe78:	e0bffa17 	ldw	r2,-24(fp)
  80fe7c:	18800015 	stw	r2,0(r3)
      if (i > alt_max_fd)
  80fe80:	e0fffb17 	ldw	r3,-20(fp)
  80fe84:	d0a01417 	ldw	r2,-32688(gp)
  80fe88:	10c0020e 	bge	r2,r3,80fe94 <alt_get_fd+0x8c>
      {
        alt_max_fd = i;
  80fe8c:	e0bffb17 	ldw	r2,-20(fp)
  80fe90:	d0a01415 	stw	r2,-32688(gp)
      }
      rc = i;
  80fe94:	e0bffb17 	ldw	r2,-20(fp)
  80fe98:	e0bffc15 	stw	r2,-16(fp)
      goto alt_get_fd_exit;
  80fe9c:	00000406 	br	80feb0 <alt_get_fd+0xa8>
  80fea0:	e0bffb17 	ldw	r2,-20(fp)
  80fea4:	10800044 	addi	r2,r2,1
  80fea8:	e0bffb15 	stw	r2,-20(fp)
  80feac:	003fe006 	br	80fe30 <alt_get_fd+0x28>
  80feb0:	e03ffe15 	stw	zero,-8(fp)
    }
  }

 alt_get_fd_exit:

  /*
   * Release the alt_fd_list_lock semaphore now that we are done with the
   * file descriptor pool.
   */

  ALT_SEM_POST(alt_fd_list_lock);

  return rc;
  80feb4:	e0bffc17 	ldw	r2,-16(fp)
}
  80feb8:	dfc00717 	ldw	ra,28(sp)
  80febc:	df000617 	ldw	fp,24(sp)
  80fec0:	dc000517 	ldw	r16,20(sp)
  80fec4:	dec00804 	addi	sp,sp,32
  80fec8:	f800283a 	ret

0080fecc <atexit>:
  80fecc:	d0a00a17 	ldw	r2,-32728(gp)
  80fed0:	defffe04 	addi	sp,sp,-8
  80fed4:	dc000015 	stw	r16,0(sp)
  80fed8:	dfc00115 	stw	ra,4(sp)
  80fedc:	11405217 	ldw	r5,328(r2)
  80fee0:	2021883a 	mov	r16,r4
  80fee4:	01004304 	movi	r4,268
  80fee8:	28001b26 	beq	r5,zero,80ff58 <atexit+0x8c>
  80feec:	28c00117 	ldw	r3,4(r5)
  80fef0:	008007c4 	movi	r2,31
  80fef4:	10c00d16 	blt	r2,r3,80ff2c <atexit+0x60>
  80fef8:	28800104 	addi	r2,r5,4
  80fefc:	10c00017 	ldw	r3,0(r2)
  80ff00:	000d883a 	mov	r6,zero
  80ff04:	180890ba 	slli	r4,r3,2
  80ff08:	18c00044 	addi	r3,r3,1
  80ff0c:	10c00015 	stw	r3,0(r2)
  80ff10:	2149883a 	add	r4,r4,r5
  80ff14:	24000215 	stw	r16,8(r4)
  80ff18:	3005883a 	mov	r2,r6
  80ff1c:	dfc00117 	ldw	ra,4(sp)
  80ff20:	dc000017 	ldw	r16,0(sp)
  80ff24:	dec00204 	addi	sp,sp,8
  80ff28:	f800283a 	ret
  80ff2c:	08007cc0 	call	8007cc <malloc>
  80ff30:	100b883a 	mov	r5,r2
  80ff34:	01bfffc4 	movi	r6,-1
  80ff38:	103ff726 	beq	r2,zero,80ff18 <atexit+0x4c>
  80ff3c:	d0e00a17 	ldw	r3,-32728(gp)
  80ff40:	10004215 	stw	zero,264(r2)
  80ff44:	10000115 	stw	zero,4(r2)
  80ff48:	18805217 	ldw	r2,328(r3)
  80ff4c:	28800015 	stw	r2,0(r5)
  80ff50:	19405215 	stw	r5,328(r3)
  80ff54:	003fe806 	br	80fef8 <atexit+0x2c>
  80ff58:	01402074 	movhi	r5,129
  80ff5c:	294a3c04 	addi	r5,r5,10480
  80ff60:	11405215 	stw	r5,328(r2)
  80ff64:	003fe106 	br	80feec <atexit+0x20>

0080ff68 <exit>:
  80ff68:	d0a00a17 	ldw	r2,-32728(gp)
  80ff6c:	defff804 	addi	sp,sp,-32
  80ff70:	dd800015 	stw	r22,0(sp)
  80ff74:	dfc00715 	stw	ra,28(sp)
  80ff78:	dc000615 	stw	r16,24(sp)
  80ff7c:	dc400515 	stw	r17,20(sp)
  80ff80:	dc800415 	stw	r18,16(sp)
  80ff84:	dcc00315 	stw	r19,12(sp)
  80ff88:	dd000215 	stw	r20,8(sp)
  80ff8c:	dd400115 	stw	r21,4(sp)
  80ff90:	15005217 	ldw	r20,328(r2)
  80ff94:	202d883a 	mov	r22,r4
  80ff98:	a0002526 	beq	r20,zero,810030 <exit+0xc8>
  80ff9c:	a0800117 	ldw	r2,4(r20)
  80ffa0:	a5402204 	addi	r21,r20,136
  80ffa4:	0027883a 	mov	r19,zero
  80ffa8:	14bfffc4 	addi	r18,r2,-1
  80ffac:	9006803a 	cmplt	r3,r18,zero
  80ffb0:	1800021e 	bne	r3,zero,80ffbc <exit+0x54>
  80ffb4:	00800044 	movi	r2,1
  80ffb8:	14a6983a 	sll	r19,r2,r18
  80ffbc:	1800191e 	bne	r3,zero,810024 <exit+0xbc>
  80ffc0:	900690ba 	slli	r3,r18,2
  80ffc4:	1d05883a 	add	r2,r3,r20
  80ffc8:	14400204 	addi	r17,r2,8
  80ffcc:	1821883a 	mov	r16,r3
  80ffd0:	00000806 	br	80fff4 <exit+0x8c>
  80ffd4:	88800017 	ldw	r2,0(r17)
  80ffd8:	29400017 	ldw	r5,0(r5)
  80ffdc:	94bfffc4 	addi	r18,r18,-1
  80ffe0:	843fff04 	addi	r16,r16,-4
  80ffe4:	103ee83a 	callr	r2
  80ffe8:	8c7fff04 	addi	r17,r17,-4
  80ffec:	9827d07a 	srai	r19,r19,1
  80fff0:	90000c16 	blt	r18,zero,810024 <exit+0xbc>
  80fff4:	a8802017 	ldw	r2,128(r21)
  80fff8:	854b883a 	add	r5,r16,r21
  80fffc:	b009883a 	mov	r4,r22
  810000:	14c4703a 	and	r2,r2,r19
  810004:	103ff31e 	bne	r2,zero,80ffd4 <exit+0x6c>
  810008:	88800017 	ldw	r2,0(r17)
  81000c:	94bfffc4 	addi	r18,r18,-1
  810010:	843fff04 	addi	r16,r16,-4
  810014:	103ee83a 	callr	r2
  810018:	8c7fff04 	addi	r17,r17,-4
  81001c:	9827d07a 	srai	r19,r19,1
  810020:	903ff40e 	bge	r18,zero,80fff4 <exit+0x8c>
  810024:	a5000017 	ldw	r20,0(r20)
  810028:	a03fdc1e 	bne	r20,zero,80ff9c <exit+0x34>
  81002c:	d0a00a17 	ldw	r2,-32728(gp)
  810030:	10c00f17 	ldw	r3,60(r2)
  810034:	1800021e 	bne	r3,zero,810040 <exit+0xd8>
  810038:	b009883a 	mov	r4,r22
  81003c:	08100ec0 	call	8100ec <_exit>
  810040:	1009883a 	mov	r4,r2
  810044:	183ee83a 	callr	r3
  810048:	003ffb06 	br	810038 <exit+0xd0>

0081004c <memcmp>:
  81004c:	01c000c4 	movi	r7,3
  810050:	3980032e 	bgeu	r7,r6,810060 <memcmp+0x14>
  810054:	2144b03a 	or	r2,r4,r5
  810058:	11c4703a 	and	r2,r2,r7
  81005c:	10000d26 	beq	r2,zero,810094 <memcmp+0x48>
  810060:	31bfffc4 	addi	r6,r6,-1
  810064:	00bfffc4 	movi	r2,-1
  810068:	30800826 	beq	r6,r2,81008c <memcmp+0x40>
  81006c:	100f883a 	mov	r7,r2
  810070:	20c00003 	ldbu	r3,0(r4)
  810074:	28800003 	ldbu	r2,0(r5)
  810078:	31bfffc4 	addi	r6,r6,-1
  81007c:	21000044 	addi	r4,r4,1
  810080:	29400044 	addi	r5,r5,1
  810084:	18800b1e 	bne	r3,r2,8100b4 <memcmp+0x68>
  810088:	31fff91e 	bne	r6,r7,810070 <memcmp+0x24>
  81008c:	0005883a 	mov	r2,zero
  810090:	f800283a 	ret
  810094:	20c00017 	ldw	r3,0(r4)
  810098:	28800017 	ldw	r2,0(r5)
  81009c:	18bff01e 	bne	r3,r2,810060 <memcmp+0x14>
  8100a0:	31bfff04 	addi	r6,r6,-4
  8100a4:	21000104 	addi	r4,r4,4
  8100a8:	29400104 	addi	r5,r5,4
  8100ac:	39bff936 	bltu	r7,r6,810094 <memcmp+0x48>
  8100b0:	003feb06 	br	810060 <memcmp+0x14>
  8100b4:	1885c83a 	sub	r2,r3,r2
  8100b8:	f800283a 	ret

008100bc <alt_sim_halt>:
  8100bc:	defffd04 	addi	sp,sp,-12
  8100c0:	df000215 	stw	fp,8(sp)
  8100c4:	df000204 	addi	fp,sp,8
  8100c8:	e13ffe15 	stw	r4,-8(fp)
  8100cc:	e0bffe17 	ldw	r2,-8(fp)
  8100d0:	e0bfff15 	stw	r2,-4(fp)
  8100d4:	00c00044 	movi	r3,1
  8100d8:	e0bfff17 	ldw	r2,-4(fp)
  8100dc:	180171ba 	wrctl	ctl6,r3
  8100e0:	df000217 	ldw	fp,8(sp)
  8100e4:	dec00304 	addi	sp,sp,12
  8100e8:	f800283a 	ret

008100ec <_exit>:
 * ALT_EXIT is mapped onto the _exit() system call in alt_syscall.h
 */

void ALT_EXIT (int exit_code)
{
  8100ec:	defffd04 	addi	sp,sp,-12
  8100f0:	dfc00215 	stw	ra,8(sp)
  8100f4:	df000115 	stw	fp,4(sp)
  8100f8:	df000104 	addi	fp,sp,4
  8100fc:	e13fff15 	stw	r4,-4(fp)
  /* ALT_LOG - please see HAL/inc/alt_log_printf.h for details */
  ALT_LOG_PRINT_BOOT("[alt_exit.c] Entering _exit() function.\r\n");
  ALT_LOG_PRINT_BOOT("[alt_exit.c] Exit code from main was %d.\r\n",exit_code);
  /* Stop all other threads */

  ALT_LOG_PRINT_BOOT("[alt_exit.c] Calling ALT_OS_STOP().\r\n");
  ALT_OS_STOP();

  /* Provide notification to the simulator that we've stopped */

  ALT_LOG_PRINT_BOOT("[alt_exit.c] Calling ALT_SIM_HALT().\r\n");
  ALT_SIM_HALT(exit_code);
  810100:	e13fff17 	ldw	r4,-4(fp)
  810104:	08100bc0 	call	8100bc <alt_sim_halt>

  /* spin forever, since there's no where to go back to */

  ALT_LOG_PRINT_BOOT("[alt_exit.c] Spinning forever.\r\n");
  while (1);
  810108:	003fff06 	br	810108 <_exit+0x1c>
