
Audio.elf:     file format elf32-littlenios2
Audio.elf
architecture: nios2, flags 0x00000112:
EXEC_P, HAS_SYMS, D_PAGED
start address 0x008001a8

Program Header:
    LOAD off    0x000000b4 vaddr 0x01080020 paddr 0x00800000 align 2**0
         filesz 0x000001a8 memsz 0x000001a8 flags r-x
    LOAD off    0x0000025c vaddr 0x008001a8 paddr 0x008001a8 align 2**0
         filesz 0x00010478 memsz 0x00010478 flags r-x
    LOAD off    0x000106d4 vaddr 0x00810620 paddr 0x00810620 align 2**0
         filesz 0x00001b00 memsz 0x000022c8 flags rw-
    LOAD off    0x000121d4 vaddr 0x01080000 paddr 0x01080000 align 2**0
         filesz 0x00000020 memsz 0x00000020 flags r-x

Sections:
Idx Name          Size      VMA       LMA       File off  Algn
  0 .entry        00000020  01080000  01080000  000121d4  2**5
                  CONTENTS, ALLOC, LOAD, READONLY, CODE
  1 .exceptions   000001a8  01080020  00800000  000000b4  2**2
                  CONTENTS, ALLOC, LOAD, READONLY, CODE
  2 .text         0000feac  008001a8  008001a8  0000025c  2**2
                  CONTENTS, ALLOC, LOAD, READONLY, CODE
  3 .rodata       000005cc  00810054  00810054  00010108  2**2
                  CONTENTS, ALLOC, LOAD, READONLY, DATA
  4 .rwdata       00001b00  00810620  00810620  000106d4  2**2
                  CONTENTS, ALLOC, LOAD, DATA, SMALL_DATA
  5 .bss          000007c8  00812120  00812120  000121d4  2**2
                  ALLOC, SMALL_DATA
  6 .sdram_0      00000000  008128e8  008128e8  000121f4  2**0
                  CONTENTS
  7 .sram_0       00000000  010801c8  010801c8  000121f4  2**0
                  CONTENTS
  8 .comment      0000115c  00000000  00000000  000121f4  2**0
                  CONTENTS, READONLY
  9 .debug_aranges 00000c78  00000000  00000000  00013350  2**3
                  CONTENTS, READONLY, DEBUGGING
 10 .debug_pubnames 000019ea  00000000  00000000  00013fc8  2**0
                  CONTENTS, READONLY, DEBUGGING
 11 .debug_info   00025649  00000000  00000000  000159b2  2**0
                  CONTENTS, READONLY, DEBUGGING
 12 .debug_abbrev 00007729  00000000  00000000  0003affb  2**0
                  CONTENTS, READONLY, DEBUGGING
 13 .debug_line   000153d7  00000000  00000000  00042724  2**0
                  CONTENTS, READONLY, DEBUGGING
 14 .debug_frame  00001bf8  00000000  00000000  00057afc  2**2
                  CONTENTS, READONLY, DEBUGGING
 15 .debug_str    0000242c  00000000  00000000  000596f4  2**0
                  CONTENTS, READONLY, DEBUGGING
 16 .debug_alt_sim_info 00000010  00000000  00000000  0005bb20  2**2
                  CONTENTS, READONLY, DEBUGGING
 17 .debug_ranges 000005a0  00000010  00000010  0005bb30  2**0
                  CONTENTS, READONLY, DEBUGGING
 18 .cpu          00000005  00000000  00000000  0005fcbd  2**0
                  CONTENTS, READONLY
 19 .simulation_enabled 00000001  00000000  00000000  0005fcc2  2**0
                  CONTENTS, READONLY
 20 .sysid_hash   00000004  00000000  00000000  0005fcc3  2**0
                  CONTENTS, READONLY
 21 .sysid_base   00000004  00000000  00000000  0005fcc7  2**0
                  CONTENTS, READONLY
 22 .sysid_time   00000004  00000000  00000000  0005fccb  2**0
                  CONTENTS, READONLY
 23 .stderr_dev   0000000b  00000000  00000000  0005fccf  2**0
                  CONTENTS, READONLY
 24 .stdin_dev    0000000b  00000000  00000000  0005fcda  2**0
                  CONTENTS, READONLY
 25 .stdout_dev   0000000b  00000000  00000000  0005fce5  2**0
                  CONTENTS, READONLY
 26 .sopc_system_name 0000000a  00000000  00000000  0005fcf0  2**0
                  CONTENTS, READONLY
 27 .quartus_project_dir 00000035  00000000  00000000  0005fcfa  2**0
                  CONTENTS, READONLY
 28 .jdi          000042c3  00000000  00000000  0005fd2f  2**0
                  CONTENTS, READONLY
SYMBOL TABLE:
01080000 l    d  .entry	00000000 
01080020 l    d  .exceptions	00000000 
008001a8 l    d  .text	00000000 
00810054 l    d  .rodata	00000000 
00810620 l    d  .rwdata	00000000 
00812120 l    d  .bss	00000000 
008128e8 l    d  .sdram_0	00000000 
010801c8 l    d  .sram_0	00000000 
00000000 l    d  .comment	00000000 
00000000 l    d  .debug_aranges	00000000 
00000000 l    d  .debug_pubnames	00000000 
00000000 l    d  .debug_info	00000000 
00000000 l    d  .debug_abbrev	00000000 
00000000 l    d  .debug_line	00000000 
00000000 l    d  .debug_frame	00000000 
00000000 l    d  .debug_str	00000000 
00000000 l    d  .debug_alt_sim_info	00000000 
00000010 l    d  .debug_ranges	00000000 
00000000 l    d  *ABS*	00000000 
00000000 l    d  *ABS*	00000000 
00000000 l    d  *ABS*	00000000 
00000000 l    df *ABS*	00000000 d:/Docs/documents/docs/GitHub/systems-project-verilog/software/Audio_bsp/HAL/src/crt0.S
00000000 l    df *ABS*	00000000 ./HAL/inc/sys/alt_log_printf.h
00000000 l    df *ABS*	00000000 ./system.h
00000000 l    df *ABS*	00000000 ./HAL/inc/sys/alt_log_printf.h
00000000 l    df *ABS*	00000000 d:/Docs/documents/docs/GitHub/systems-project-verilog/software/Audio_bsp/HAL/src/crt0.S
00000000 l    df *ABS*	00000000 ./HAL/inc/nios2.h
00000000 l    df *ABS*	00000000 d:/Docs/documents/docs/GitHub/systems-project-verilog/software/Audio_bsp/HAL/src/crt0.S
00000000 l    df *ABS*	00000000 ./system.h
00000000 l    df *ABS*	00000000 ./linker.h
00000000 l    df *ABS*	00000000 ./system.h
00000000 l    df *ABS*	00000000 d:/Docs/documents/docs/GitHub/systems-project-verilog/software/Audio_bsp/HAL/src/crt0.S
00000000 l    df *ABS*	00000000 <command line>
00000000 l    df *ABS*	00000000 <built-in>
00000000 l    df *ABS*	00000000 /cygdrive/d/Docs/documents/docs/GitHub/systems-project-verilog/software/Audio_bsp//
00000000 l    df *ABS*	00000000 d:/Docs/documents/docs/GitHub/systems-project-verilog/software/Audio_bsp/HAL/src/crt0.S
008001e0 l       .text	00000000 alt_after_alt_main
00000000 l    df *ABS*	00000000 d:/Docs/documents/docs/GitHub/systems-project-verilog/software/Audio_bsp/HAL/src/alt_irq_entry.S
00000000 l    df *ABS*	00000000 ./system.h
00000000 l    df *ABS*	00000000 ./linker.h
00000000 l    df *ABS*	00000000 ./system.h
00000000 l    df *ABS*	00000000 d:/Docs/documents/docs/GitHub/systems-project-verilog/software/Audio_bsp/HAL/src/alt_irq_entry.S
00000000 l    df *ABS*	00000000 <command line>
00000000 l    df *ABS*	00000000 <built-in>
00000000 l    df *ABS*	00000000 /cygdrive/d/Docs/documents/docs/GitHub/systems-project-verilog/software/Audio_bsp//
00000000 l    df *ABS*	00000000 d:/Docs/documents/docs/GitHub/systems-project-verilog/software/Audio_bsp/HAL/src/alt_irq_entry.S
00000000 l    df *ABS*	00000000 d:/Docs/documents/docs/GitHub/systems-project-verilog/software/Audio_bsp/HAL/src/alt_exception_entry.S
00000000 l    df *ABS*	00000000 ./system.h
00000000 l    df *ABS*	00000000 ./linker.h
00000000 l    df *ABS*	00000000 ./system.h
00000000 l    df *ABS*	00000000 d:/Docs/documents/docs/GitHub/systems-project-verilog/software/Audio_bsp/HAL/src/alt_exception_entry.S
00000000 l    df *ABS*	00000000 <command line>
00000000 l    df *ABS*	00000000 <built-in>
00000000 l    df *ABS*	00000000 /cygdrive/d/Docs/documents/docs/GitHub/systems-project-verilog/software/Audio_bsp//
00000000 l    df *ABS*	00000000 d:/Docs/documents/docs/GitHub/systems-project-verilog/software/Audio_bsp/HAL/src/alt_exception_entry.S
00000000 l    df *ABS*	00000000 alt_irq_handler.c
00000000 l    df *ABS*	00000000 hello_world.c
00000000 l    df *ABS*	00000000 lib2-divmod.c
008005d0 l     F .text	00000060 udivmodsi4
00000000 l    df *ABS*	00000000 lib2-mul.c
00000000 l    df *ABS*	00000000 malloc.c
00000000 l    df *ABS*	00000000 mallocr.c
00000000 l    df *ABS*	00000000 printf.c
00000000 l    df *ABS*	00000000 sbrkr.c
00000000 l    df *ABS*	00000000 vfprintf1.c
00800e74 l     F .text	00000058 __sprint
0081010c l     O .rodata	00000010 blanks.0
0081011c l     O .rodata	00000010 zeroes.1
00000000 l    df *ABS*	00000000 wcrtomb.c
00000000 l    df *ABS*	00000000 wcsrtombs.c
00000000 l    df *ABS*	00000000 wctomb_r.c
00000000 l    df *ABS*	00000000 wsetup.c
00000000 l    df *ABS*	00000000 dtoa.c
00803314 l     F .text	0000022c quorem
00000000 l    df *ABS*	00000000 fflush.c
00000000 l    df *ABS*	00000000 findfp.c
00804a14 l     F .text	00000058 std
00000000 l    df *ABS*	00000000 mallocr.c
00000000 l    df *ABS*	00000000 fvwrite.c
00000000 l    df *ABS*	00000000 fwalk.c
00000000 l    df *ABS*	00000000 impure.c
00810a50 l     O .rwdata	0000037c impure_data
00000000 l    df *ABS*	00000000 int_errno.c
00000000 l    df *ABS*	00000000 locale.c
00810340 l     O .rodata	00000030 lconv
008120a8 l     O .rwdata	00000004 charset
00000000 l    df *ABS*	00000000 makebuf.c
00000000 l    df *ABS*	00000000 memchr.c
00000000 l    df *ABS*	00000000 memcpy.c
00000000 l    df *ABS*	00000000 memmove.c
00000000 l    df *ABS*	00000000 memset.c
00000000 l    df *ABS*	00000000 mprec.c
00810488 l     O .rodata	0000000c p05.0
00000000 l    df *ABS*	00000000 mallocr.c
00000000 l    df *ABS*	00000000 s_isinf.c
00000000 l    df *ABS*	00000000 s_isnan.c
00000000 l    df *ABS*	00000000 stdio.c
00000000 l    df *ABS*	00000000 strcmp.c
00000000 l    df *ABS*	00000000 strlen.c
00000000 l    df *ABS*	00000000 writer.c
00000000 l    df *ABS*	00000000 mallocr.c
00000000 l    df *ABS*	00000000 closer.c
00000000 l    df *ABS*	00000000 fstatr.c
00000000 l    df *ABS*	00000000 lseekr.c
00000000 l    df *ABS*	00000000 readr.c
00000000 l    df *ABS*	00000000 libgcc2.c
00000000 l    df *ABS*	00000000 libgcc2.c
00000000 l    df *ABS*	00000000 libgcc2.c
00000000 l    df *ABS*	00000000 nios2-dp-bit.c
00807f6c l     F .text	0000031c _fpadd_parts
00000000 l    df *ABS*	00000000 nios2-dp-bit.c
00000000 l    df *ABS*	00000000 nios2-dp-bit.c
00000000 l    df *ABS*	00000000 nios2-dp-bit.c
00000000 l    df *ABS*	00000000 nios2-dp-bit.c
00000000 l    df *ABS*	00000000 nios2-dp-bit.c
00000000 l    df *ABS*	00000000 nios2-dp-bit.c
00000000 l    df *ABS*	00000000 nios2-dp-bit.c
00000000 l    df *ABS*	00000000 nios2-dp-bit.c
00000000 l    df *ABS*	00000000 nios2-dp-bit.c
00000000 l    df *ABS*	00000000 nios2-dp-bit.c
00000000 l    df *ABS*	00000000 libgcc2.c
00000000 l    df *ABS*	00000000 libgcc2.c
00000000 l    df *ABS*	00000000 libgcc2.c
00000000 l    df *ABS*	00000000 nios2-dp-bit.c
00000000 l    df *ABS*	00000000 nios2-dp-bit.c
00000000 l    df *ABS*	00000000 nios2-dp-bit.c
00000000 l    df *ABS*	00000000 libgcc2.c
00000000 l    df *ABS*	00000000 alt_close.c
0080956c l     F .text	00000048 alt_get_errno
00000000 l    df *ABS*	00000000 alt_dev.c
008095b4 l     F .text	00000028 alt_dev_null_write
00000000 l    df *ABS*	00000000 alt_errno.c
00000000 l    df *ABS*	00000000 alt_fstat.c
008096b0 l     F .text	00000048 alt_get_errno
00000000 l    df *ABS*	00000000 alt_isatty.c
008097b8 l     F .text	00000048 alt_get_errno
00000000 l    df *ABS*	00000000 alt_load.c
0080987c l     F .text	00000068 alt_load_section
00000000 l    df *ABS*	00000000 alt_lseek.c
008099d4 l     F .text	00000048 alt_get_errno
00000000 l    df *ABS*	00000000 alt_main.c
00000000 l    df *ABS*	00000000 alt_malloc_lock.c
00000000 l    df *ABS*	00000000 alt_read.c
00809be4 l     F .text	00000048 alt_get_errno
00000000 l    df *ABS*	00000000 alt_release_fd.c
00000000 l    df *ABS*	00000000 alt_sbrk.c
008120d0 l     O .rwdata	00000004 heap_end
00000000 l    df *ABS*	00000000 alt_write.c
00809e80 l     F .text	00000048 alt_get_errno
00000000 l    df *ABS*	00000000 alt_sys_init.c
00810f80 l     O .rwdata	00001060 jtag_uart_0
00811fe0 l     O .rwdata	00000030 audio_and_video_config_0
00812010 l     O .rwdata	00000030 audio
00812040 l     O .rwdata	0000002c SDCARD
00809f5c l     F .text	00000030 alt_dev_reg
00000000 l    df *ABS*	00000000 altera_avalon_jtag_uart_fd.c
00000000 l    df *ABS*	00000000 altera_avalon_jtag_uart_init.c
0080a17c l     F .text	00000220 altera_avalon_jtag_uart_irq
0080a39c l     F .text	000000c0 altera_avalon_jtag_uart_timeout
00000000 l    df *ABS*	00000000 altera_avalon_jtag_uart_ioctl.c
00000000 l    df *ABS*	00000000 altera_avalon_jtag_uart_read.c
00000000 l    df *ABS*	00000000 altera_avalon_jtag_uart_write.c
00000000 l    df *ABS*	00000000 altera_up_avalon_audio.c
00000000 l    df *ABS*	00000000 altera_up_sd_card_avalon_interface.c
00000000 l    df *ABS*	00000000 alt_alarm_start.c
00000000 l    df *ABS*	00000000 alt_dcache_flush_all.c
00000000 l    df *ABS*	00000000 alt_dev_llist_insert.c
0080f368 l     F .text	00000048 alt_get_errno
00000000 l    df *ABS*	00000000 alt_do_ctors.c
00000000 l    df *ABS*	00000000 alt_do_dtors.c
00000000 l    df *ABS*	00000000 alt_find_dev.c
00000000 l    df *ABS*	00000000 alt_icache_flush_all.c
00000000 l    df *ABS*	00000000 alt_io_redirect.c
0080f508 l     F .text	000000dc alt_open_fd
00000000 l    df *ABS*	00000000 alt_irq_register.c
00000000 l    df *ABS*	00000000 alt_irq_vars.c
00000000 l    df *ABS*	00000000 alt_open.c
0080f7fc l     F .text	000000e8 alt_file_locked
0080fa6c l     F .text	00000048 alt_get_errno
00000000 l    df *ABS*	00000000 alt_tick.c
00000000 l    df *ABS*	00000000 altera_nios2_irq.c
00000000 l    df *ABS*	00000000 alt_find_file.c
00000000 l    df *ABS*	00000000 alt_get_fd.c
00000000 l    df *ABS*	00000000 atexit.c
00812130 l     O .bss	00000004 lock.0
00000000 l    df *ABS*	00000000 exit.c
00000000 l    df *ABS*	00000000 memcmp.c
00000000 l    df *ABS*	00000000 alt_exit.c
00810004 l     F .text	00000030 alt_sim_halt
008120dc g     O .rwdata	00000004 aux_status_register
00806758 g     F .text	000000b0 _mprec_log10
00810370 g     O .rodata	00000028 __mprec_tinytens
00809a1c g     F .text	00000070 alt_main
00809420 g     F .text	00000050 __ashldi3
00805b90 g     F .text	00000064 _hi0bits
008126dc g     O .bss	00000100 alt_irq
00807244 g     F .text	00000064 _lseek_r
00810620 g       *ABS*	00000000 __flash_rwdata_start
008089bc g     F .text	0000008c __eqdf2
0080b59c g     F .text	0000019c Check_for_Master_Boot_Record
0080ac9c g     F .text	00000074 alt_up_audio_read_fifo_avail
008128e8 g       *ABS*	00000000 __alt_heap_start
0080ef90 g     F .text	000001bc alt_up_sd_card_fclose
00800df4 g     F .text	00000034 printf
0080ad10 g     F .text	0000006c alt_up_audio_record_r
00802bb0 g     F .text	00000064 _wcrtomb_r
00806ec0 g     F .text	00000078 __sseek
00804a90 g     F .text	0000009c __sinit
00805360 g     F .text	00000088 _setlocale_r
00809aa8 g     F .text	0000001c __malloc_unlock
00812100 g     O .rwdata	00000004 current_sector_modified
0080ac18 g     F .text	00000084 alt_up_audio_reset_audio_core
008056f8 g     F .text	00000108 memmove
00804a80 g     F .text	00000010 _cleanup
0080589c g     F .text	000000b0 _Balloc
0080dbb8 g     F .text	000000c4 alt_up_sd_card_is_Present
0080b2dc g     F .text	00000048 Save_Modified_Sector
00808ad4 g     F .text	0000008c __gtdf2
00000000  w      *UND*	00000000 __errno
01080000 g     F .entry	0000000c __reset
008120f8 g     O .rwdata	00000004 fat_partition_size_in_512_byte_sectors
00806530 g     F .text	0000017c _d2b
00805ce4 g     F .text	00000254 _multiply
00800000 g       *ABS*	00000000 __flash_exceptions_start
008071e4 g     F .text	00000060 _fstat_r
0081212c g     O .bss	00000004 errno
008066ac g     F .text	000000ac _ratio
0080abe0 g     F .text	00000038 alt_up_audio_write_interrupt_pending
008120c8 g     O .rwdata	00000004 alt_argv
0081a06c g       *ABS*	00000000 _gp
0080e100 g     F .text	00000378 alt_up_sd_card_fopen
0080dcec g     F .text	000000c8 alt_up_sd_card_find_first
00805a94 g     F .text	000000fc _s2b
00805ca8 g     F .text	0000003c _i2b
008120ec g     O .rwdata	00000004 command_argument_register
00812124 g     O .bss	00000004 buffers
00810e00 g     O .rwdata	00000180 alt_fd_list
0080d45c g     F .text	00000118 find_first_empty_record_in_root_directory
0080f460 g     F .text	00000090 alt_find_dev
0080563c g     F .text	000000bc memcpy
00812120 g     O .bss	00000004 left_buffer
00804a6c g     F .text	00000014 _cleanup_r
00808c78 g     F .text	000000d0 __floatsidf
0080f5e4 g     F .text	00000074 alt_io_redirect
00808bec g     F .text	0000008c __ltdf2
00810054 g       *ABS*	00000000 __DTOR_END__
0080d08c g     F .text	000001a0 find_first_empty_cluster
0080fc50 g     F .text	0000001c altera_nios2_irq_init
0080dafc g     F .text	000000bc alt_up_sd_card_open_dev
0080b168 g     F .text	0000005c alt_up_audio_read_fifo_head
0080a5c0 g     F .text	00000234 altera_avalon_jtag_uart_read
00800714 g     F .text	00000014 malloc
008006cc g     F .text	00000010 __udivsi3
008096f8 g     F .text	000000c0 isatty
008103c0 g     O .rodata	000000c8 __mprec_tens
008053e8 g     F .text	00000008 __locale_charset
0081208c g     O .rwdata	00000004 __malloc_top_pad
008120a4 g     O .rwdata	00000004 __mb_cur_max
008053f0 g     F .text	0000000c _localeconv_r
0080c500 g     F .text	0000009c get_dir_divider_location
00800e28 g     F .text	0000004c _sbrk_r
0080c26c g     F .text	000000a4 filename_to_upper_case
0080e478 g     F .text	00000084 alt_up_sd_card_set_attributes
00805428 g     F .text	00000148 __smakebuf
0081207c g     O .rwdata	00000004 audio_ptr
0080b738 g     F .text	0000022c Read_File_Record_At_Offset
008072a8 g     F .text	00000064 _read_r
00810dcc g     O .rwdata	0000000c __lc_ctype
008120bc g     O .rwdata	00000004 alt_max_fd
0080b1c4 g     F .text	00000064 alt_up_audio_write_fifo_head
008091e4 g     F .text	00000128 __unpack_d
0080cc98 g     F .text	000003f4 find_file_in_directory
0080492c g     F .text	000000e8 fflush
00812084 g     O .rwdata	00000004 __malloc_max_sbrked_mem
0080f658 g     F .text	000001a4 alt_irq_register
0080dc7c g     F .text	00000070 alt_up_sd_card_is_FAT16
00808288 g     F .text	0000006c __adddf3
0080791c g     F .text	00000650 __umoddi3
008098e4 g     F .text	000000f0 lseek
008004bc g     F .text	00000114 playSound
0080c7f4 g     F .text	000004a4 get_home_directory_cluster_for_file
00812070 g     O .rwdata	00000004 audio_dev_reference
00806808 g     F .text	00000550 _realloc_r
008128e8 g       *ABS*	00000000 __bss_end
0080fb50 g     F .text	00000100 alt_tick
00805bf4 g     F .text	000000b4 _lo0bits
0080732c g     F .text	000005f0 __udivdi3
00810398 g     O .rodata	00000028 __mprec_bigtens
0080619c g     F .text	00000064 __mcmp
00812104 g     O .rwdata	00000004 current_sector_index
0080aa48 g     F .text	00000038 alt_up_audio_open_dev
0080ae68 g     F .text	0000006c alt_up_audio_play_r
0080fab4 g     F .text	0000009c alt_alarm_stop
0080b4b8 g     F .text	000000e4 mark_cluster
00812108 g     O .rwdata	00000004 alt_irq_active
010800ec g     F .exceptions	000000dc alt_irq_handler
00810dd8 g     O .rwdata	00000028 alt_dev_null
0080d574 g     F .text	0000015c convert_filename_to_name_extension
0080f2a0 g     F .text	00000018 alt_dcache_flush_all
008120d8 g     O .rwdata	00000004 is_sd_card_formated_as_FAT16
00808d48 g     F .text	000000b0 __fixdfsi
00812078 g     O .rwdata	00000004 sound
0080d22c g     F .text	00000230 find_first_empty_record_in_a_subdirectory
00812120 g       *ABS*	00000000 __ram_rwdata_end
00806d58 g     F .text	00000044 isinf
008120b4 g     O .rwdata	00000008 alt_dev_list
00809d60 g     F .text	00000120 write
008120fc g     O .rwdata	00000004 device_pointer
00810620 g       *ABS*	00000000 __ram_rodata_end
008095dc g     F .text	000000d4 fstat
00808f04 g     F .text	00000050 __lshrdi3
008120a0 g     O .rwdata	00000004 __nlocale_changed
008006dc g     F .text	00000010 __umodsi3
008128e8 g       *ABS*	00000000 end
00805f38 g     F .text	0000012c _pow5mult
0080a0c4 g     F .text	000000b8 altera_avalon_jtag_uart_init
00810054 g       *ABS*	00000000 __CTOR_LIST__
01000000 g       *ABS*	00000000 __alt_stack_pointer
0080a7f4 g     F .text	00000254 altera_avalon_jtag_uart_write
00812134 g     O .bss	00000020 size_array
00805570 g     F .text	000000cc memchr
00800ecc g     F .text	00001c78 ___vfprintf_internal_r
00804c50 g     F .text	000002b8 _free_r
00802c38 g     F .text	00000140 _wcsrtombs_r
0081209c g     O .rwdata	00000004 __mlocale_changed
00812088 g     O .rwdata	00000004 __malloc_sbrk_base
008001a8 g     F .text	0000003c _start
00812110 g     O .rwdata	00000004 _alt_tick_rate
0080b040 g     F .text	00000128 alt_up_audio_write_fifo
00812114 g     O .rwdata	00000004 _alt_nticks
00809ac4 g     F .text	00000120 read
00809ef8 g     F .text	00000064 alt_sys_init
0080af40 g     F .text	00000100 alt_up_audio_read_fifo
0080ab5c g     F .text	0000004c alt_up_audio_disable_write_interrupt
00802d78 g     F .text	0000003c wcsrtombs
0080a45c g     F .text	0000006c altera_avalon_jtag_uart_close
008006ec g     F .text	00000028 __mulsi3
00810620 g       *ABS*	00000000 __ram_rwdata_start
00810054 g       *ABS*	00000000 __ram_rodata_start
00810620 g     O .rwdata	00000028 __malloc_current_mallinfo
00804f08 g     F .text	00000384 __sfvwrite
0080730c g     F .text	00000020 __negdi2
008120d4 g     O .rwdata	00000004 initialized
00809f8c g     F .text	00000054 altera_avalon_jtag_uart_read_fd
0080fd50 g     F .text	000000c4 alt_get_fd
00812174 g     O .bss	00000014 search_data
0080930c g     F .text	00000114 __fpcmp_parts_d
00807188 g     F .text	0000005c _close_r
0080ab14 g     F .text	00000048 alt_up_audio_enable_write_interrupt
0080ff94 g     F .text	00000070 memcmp
0080a034 g     F .text	00000044 altera_avalon_jtag_uart_close_fd
008128e8 g       *ABS*	00000000 __alt_stack_base
0081206c g     O .rwdata	00000004 device_reference
0080a078 g     F .text	0000004c altera_avalon_jtag_uart_ioctl_fd
0080876c g     F .text	00000250 __divdf3
0080aac8 g     F .text	0000004c alt_up_audio_disable_read_interrupt
00812188 g     O .bss	00000054 boot_sector_data
00810648 g     O .rwdata	00000408 __malloc_av_
0080836c g     F .text	00000400 __muldf3
00806dd0 g     F .text	00000070 __sread
0080fc6c g     F .text	000000e4 alt_find_file
0080f2b8 g     F .text	000000b0 alt_dev_llist_insert
00809a8c g     F .text	0000001c __malloc_lock
00809ca0 g     F .text	000000c0 sbrk
008070c4 g     F .text	000000c4 _calloc_r
0080e580 g     F .text	00000084 alt_up_sd_card_get_size
00812128 g     O .bss	00000004 fifospace
00812120 g       *ABS*	00000000 __bss_start
00805800 g     F .text	0000009c memset
008001e4 g     F .text	000002d8 main
0080ade8 g     F .text	00000080 alt_up_audio_write_fifo_space
008120cc g     O .rwdata	00000004 alt_envp
00812080 g     O .rwdata	00000004 __malloc_max_total_mem
00809fe0 g     F .text	00000054 altera_avalon_jtag_uart_write_fd
0080e4fc g     F .text	00000084 alt_up_sd_card_get_attributes
00806384 g     F .text	00000088 _ulp
0080b228 g     F .text	000000b4 Write_Sector_Data
0080e990 g     F .text	00000600 alt_up_sd_card_write
00806f38 g     F .text	00000014 __sclose
01000000 g       *ABS*	00000000 __alt_heap_limit
008127dc g     O .bss	0000010c _atexit0
00803540 g     F .text	000013ec _dtoa_r
0080073c g     F .text	000006b8 _malloc_r
008120c0 g     O .rwdata	00000004 alt_errno
0080528c g     F .text	000000d4 _fwalk
00800630 g     F .text	00000050 __divsi3
00810494 g     O .rodata	00000014 __thenan_df
00804b2c g     F .text	00000124 _malloc_trim_r
00810054 g       *ABS*	00000000 __CTOR_END__
008120e0 g     O .rwdata	00000004 status_register
00806f4c g     F .text	000000b8 strcmp
008120e8 g     O .rwdata	00000004 command_register
00810054 g       *ABS*	00000000 __flash_rodata_start
00810054 g       *ABS*	00000000 __DTOR_LIST__
00808a48 g     F .text	0000008c __nedf2
01080000 g       *ABS*	00000000 __alt_mem_sram_0
00809ec8 g     F .text	00000030 alt_irq_init
00809c2c g     F .text	00000074 alt_release_fd
0080b408 g     F .text	000000b0 get_cluster_flag
00803208 g     F .text	0000010c __swsetup
008104a8 g     O .rodata	00000100 .hidden __clz_tab
0080b964 g     F .text	00000264 Write_File_Record_At_Offset
00812098 g     O .rwdata	00000004 _PathLocale
0080fe14 g     F .text	0000009c atexit
00807060 g     F .text	00000064 _write_r
0080640c g     F .text	00000124 _b2d
008053fc g     F .text	0000001c setlocale
0080bbc8 g     F .text	000005c4 Check_for_DOS_FAT
0080d6d0 g     F .text	000002f8 create_file
00812094 g     O .rwdata	00000004 _impure_ptr
008120e4 g     O .rwdata	00000004 CSD_register_w0
008120c4 g     O .rwdata	00000004 alt_argc
0080f408 g     F .text	00000058 _do_dtors
00806d9c g     F .text	00000034 isnan
00800000 g       *ABS*	00000000 __alt_mem_sdram_0
01080020 g       .exceptions	00000000 alt_irq_entry
008120ac g     O .rwdata	00000008 alt_fs_list
0080c310 g     F .text	000001f0 check_file_name_for_FAT16_compliance
008120f0 g     O .rwdata	00000004 buffer_memory
0080ad7c g     F .text	0000006c alt_up_audio_record_l
01080020 g       *ABS*	00000000 __ram_exceptions_start
00805418 g     F .text	00000010 localeconv
00805970 g     F .text	00000124 _multadd
008120f4 g     O .rwdata	00000004 fat_partition_offset_in_512_byte_sectors
00812120 g       *ABS*	00000000 _edata
008128e8 g       *ABS*	00000000 _end
008121dc g     O .bss	00000500 active_files
010801c8 g       *ABS*	00000000 __ram_exceptions_end
0080d9c8 g     F .text	00000134 copy_file_record_name_to_string
0080a4c8 g     F .text	000000f8 altera_avalon_jtag_uart_ioctl
0080c18c g     F .text	000000e0 Look_for_FAT16
0080aed4 g     F .text	0000006c alt_up_audio_play_l
00806e40 g     F .text	00000080 __swrite
00812090 g     O .rwdata	00000004 __malloc_trim_threshold
0080feb0 g     F .text	000000e4 exit
0080ddb4 g     F .text	0000034c alt_up_sd_card_find_next
00806200 g     F .text	00000184 __mdiff
00800680 g     F .text	0000004c __modsi3
0080b324 g     F .text	000000e4 Read_Sector_Data
01000000 g       *ABS*	00000000 __alt_data_end
01080020 g     F .exceptions	00000000 alt_exception
00810034 g     F .text	00000020 _exit
0080f14c g     F .text	00000154 alt_alarm_start
00808df8 g     F .text	0000010c __muldi3
0080e604 g     F .text	0000038c alt_up_sd_card_read
00807004 g     F .text	0000005c strlen
0080f8e4 g     F .text	00000188 open
00808b60 g     F .text	0000008c __gedf2
0080f4f0 g     F .text	00000018 alt_icache_flush_all
0081210c g     O .rwdata	00000004 alt_priority_mask
00802b44 g     F .text	0000006c __vfprintf_internal
00802db4 g     F .text	00000454 _wctomb_r
008082f4 g     F .text	00000078 __subdf3
00812118 g     O .rwdata	00000008 alt_alarm_list
0080f3b0 g     F .text	00000058 _do_ctors
00802c14 g     F .text	00000024 wcrtomb
00809470 g     F .text	000000fc close
00809800 g     F .text	0000007c alt_load
0080aa80 g     F .text	00000048 alt_up_audio_enable_read_interrupt
00812154 g     O .bss	00000020 fileNames
00808f54 g     F .text	00000290 __pack_d
00812074 g     O .rwdata	00000004 buffer_index
0080c59c g     F .text	00000258 match_file_record_to_name_ext
00806064 g     F .text	00000138 _lshift
00800728 g     F .text	00000014 free
0080594c g     F .text	00000024 _Bfree
0080aba8 g     F .text	00000038 alt_up_audio_read_interrupt_pending


Disassembly of section .entry:

01080000 <__reset>:
 * is allowed or if optimizing for RTL simulation.
 */
#if defined(ALT_ALLOW_CODE_AT_RESET) || defined(ALT_SIM_OPTIMIZE)
    /* Jump to the _start entry point in the .text section. */
    movhi r1, %hi(_start)
 1080000:	00402034 	movhi	at,128
    ori r1, r1, %lo(_start)
 1080004:	08406a14 	ori	at,at,424
    jmp r1
 1080008:	0800683a 	jmp	at
	...
Disassembly of section .exceptions:

01080020 <alt_exception>:
         * caller saved registers on the stack (See the Nios2 ABI
         * documentation for details).
         */

        addi  sp, sp, -76
 1080020:	deffed04 	addi	sp,sp,-76

#ifdef ALT_STACK_CHECK

        bltu  sp, et, .Lstack_overflow

#endif

#endif

        stw   ra,  0(sp)
 1080024:	dfc00015 	stw	ra,0(sp)

        /*
         * Leave a gap in the stack frame at 4(sp) for the muldiv handler to
         * store zero into.
         */

        stw   r1,   8(sp)
 1080028:	d8400215 	stw	at,8(sp)
        stw   r2,  12(sp)
 108002c:	d8800315 	stw	r2,12(sp)
        stw   r3,  16(sp)
 1080030:	d8c00415 	stw	r3,16(sp)
        stw   r4,  20(sp)
 1080034:	d9000515 	stw	r4,20(sp)
        stw   r5,  24(sp)
 1080038:	d9400615 	stw	r5,24(sp)
        stw   r6,  28(sp)
 108003c:	d9800715 	stw	r6,28(sp)
        stw   r7,  32(sp)
 1080040:	d9c00815 	stw	r7,32(sp)

        rdctl r5, estatus
 1080044:	000b307a 	rdctl	r5,estatus

        stw   r8,  36(sp)
 1080048:	da000915 	stw	r8,36(sp)
        stw   r9,  40(sp)
 108004c:	da400a15 	stw	r9,40(sp)
        stw   r10, 44(sp)
 1080050:	da800b15 	stw	r10,44(sp)
        stw   r11, 48(sp)
 1080054:	dac00c15 	stw	r11,48(sp)
        stw   r12, 52(sp)
 1080058:	db000d15 	stw	r12,52(sp)
        stw   r13, 56(sp)
 108005c:	db400e15 	stw	r13,56(sp)
        stw   r14, 60(sp)
 1080060:	db800f15 	stw	r14,60(sp)
        stw   r15, 64(sp)
 1080064:	dbc01015 	stw	r15,64(sp)

        /*
         * ea-4 contains the address of the instruction being executed
         * when the exception occured. For interrupt exceptions, we will
         * will be re-issue the isntruction. Store it in 72(sp)
         */
        stw   r5,  68(sp)  /* estatus */
 1080068:	d9401115 	stw	r5,68(sp)
        addi  r15, ea, -4  /* instruction that caused exception */
 108006c:	ebffff04 	addi	r15,ea,-4
        stw   r15,  72(sp)
 1080070:	dbc01215 	stw	r15,72(sp)
        /*
         * Test to see if the exception was a software exception or caused 
         * by an external interrupt, and vector accordingly.
         */
        rdctl r4, ipending
 1080074:	0009313a 	rdctl	r4,ipending
        andi  r2, r5, 1
 1080078:	2880004c 	andi	r2,r5,1
        beq   r2, zero, .Lnot_irq
 108007c:	10000326 	beq	r2,zero,108008c <__ram_exceptions_start+0x6c>
        beq   r4, zero, .Lnot_irq
 1080080:	20000226 	beq	r4,zero,108008c <__ram_exceptions_start+0x6c>
#endif /* ALT_CI_INTERRUPT_VECTOR_N */

        .section .exceptions.irqhandler, "xa"
        /*
         * Now that all necessary registers have been preserved, call 
         * alt_irq_handler() to process the interrupts.
         */

        call alt_irq_handler
 1080084:	10800ec0 	call	10800ec <alt_irq_handler>

        .section .exceptions.irqreturn, "xa"

        br    .Lexception_exit
 1080088:	00000306 	br	1080098 <__ram_exceptions_start+0x78>

        /*
         * The interrupt testing code (.exceptions.irqtest) will be
         * linked here here. If an interrupt is active, it calls the HAL
         * IRQ handler (alt_irq_handler()) which successively calls
         * registered interrupt handler(s) until no interrupts remain
         * pending. It then jumps to .exceptions.exit. If there is no
         * interrupt then it continues to .exception.notirq, below.
         */

        .section .exceptions.notirq, "xa"

        /*
         * Prepare to service unimplemtned instructions or traps,
         * each of which is optionally inked into section .exceptions.soft,
         * which will preceed .exceptions.unknown below.
         *
         * Unlike interrupts, we want to skip the exception-causing instructon
         * upon completion, so we write ea (address of instruction *after*
         * the one where the exception occured) into 72(sp). The actual
         * instruction that caused the exception is written in r2, which these
         * handlers will utilize.
         */
        stw   ea,  72(sp)  /* Don't re-issue */
 108008c:	df401215 	stw	ea,72(sp)
        ldw   r2, -4(ea)   /* Instruction that caused exception */
 1080090:	e8bfff17 	ldw	r2,-4(ea)

        /*
         * Other exception handling code, if enabled, will be linked here.
         * This includes unimplemted (multiply/divide) instruction support
         * (a BSP generaton option), and a trap handler (that would typically
         * be augmented with user-specific code). These are not linked in by
         * default.
         */

        /*
         * In the context of linker sections, "unknown" are all exceptions
         * not handled by the built-in handlers above (interupt, and trap or
         * unimplemented instruction decoding, if enabled).
         *
         * Advanced exception types can be serviced by registering a handler.
         * To do so, enable the "Enable Instruction-related Exception API" HAL
         * BSP setting. If this setting is disabled, this handler code will
         * either break (if the debug core is present) or enter an infinite
         * loop because we don't how how to handle the exception.
         */
        .section .exceptions.unknown
#ifdef ALT_INCLUDE_INSTRUCTION_RELATED_EXCEPTION_API
        /*
         * The C-based HAL routine alt_instruction_exception_entry() will
         * attempt to service the exception by calling a user-registered
         * exception handler using alt_instruction_exception_register().
         * If no handler was registered it will either break (if the
         * debugger is present) or go into an infinite loop since the
         * handling behavior is undefined; in that case we will not return here.
         */

        /* Load exception-causing address as first argument (r4) */
        addi   r4, ea, -4

        /* Call the instruction-exception entry */
        call   alt_instruction_exception_entry

        /*
         * If alt_instruction_exception_entry() returned, the exception was
         * serviced by a user-registered routine. Its return code (now in r2)
         * indicates whether to re-issue or skip the exception-causing
         * instruction
         *
         * Return code was 0: Skip. The instruction after the exception is
         * already stored in 72(sp).
         */
        bne   r2, r0, .Lexception_exit

        /*
         * Otherwise, modify 72(sp) to re-issue the instruction that caused the
         * exception.
         */
        addi  r15, ea, -4  /* instruction that caused exception */
        stw   r15,  72(sp)

#else /* ALT_INCLUDE_INSTRUCTION_RELATED_EXCEPTION_API disabled */

        /*
         * We got here because an instruction-related exception occured, but the
         * handler API was not compiled in. We do not presume to know how to
         * handle it. If the debugger is present, break, otherwise hang.
         *
         *  If you get here then one of the following could have happened:
         *
         *  - An instruction-generated exception occured, and the processor
         *    does not have the extra exceptions feature enabled, or you
         *    have not registered a handler using
         *    alt_instruction_exception_register()
         *
         *  Some examples of instruction-generated exceptions and why they
         *  might occur:
         *
         *  - Your program could have been compiled for a full-featured
         *    Nios II core, but it is running on a smaller core, and
         *    instruction emulation has been disabled by defining
         *    ALT_NO_INSTRUCTION_EMULATION.
         *
         *    You can work around the problem by re-enabling instruction
         *    emulation, or you can figure out why your program is being
         *    compiled for a system other than the one that it is running on.
         *
         *  - Your program has executed a trap instruction, but has not
         *    implemented a handler for this instruction.
         *
         *  - Your program has executed an illegal instruction (one which is
         *    not defined in the instruction set).
         *
         *  - Your processor includes an MMU or MPU, and you have enabled it
         *    before registering an exception handler to service exceptions it
         *    generates.
         *
         * The problem could also be hardware related:
         *  - If your hardware is broken and is generating spurious interrupts
         *    (a peripheral which negates its interrupt output before its
         *    interrupt handler has been executed will cause spurious
         *    interrupts)
         */
#ifdef NIOS2_HAS_DEBUG_STUB
       /*
        *  Either tell the user now (if there is a debugger attached) or go into
        *  the debug monitor which will loop until a debugger is attached.
        */
        break
 1080094:	003da03a 	break	0
#else
       /*
        *  If there is no debug stub then a BREAK will probably cause a reboot.
        *  An infinate loop will probably be more useful.
        */
0:
        br   0b
#endif /* NIOS2_HAS_DEBUG_STUB */

#endif /* ALT_INCLUDE_INSTRUCTION_RELATED_EXCEPTION_API */

        .section .exceptions.exit.label
.Lexception_exit:

        .section .exceptions.exit, "xa"

        /* 
         * Restore the saved registers, so that all general purpose registers 
         * have been restored to their state at the time the interrupt occured.
         */

        ldw   r5,  68(sp)
 1080098:	d9401117 	ldw	r5,68(sp)
        ldw   ea,  72(sp)  /* This becomes the PC once eret is executed */
 108009c:	df401217 	ldw	ea,72(sp)
        ldw   ra,   0(sp)
 10800a0:	dfc00017 	ldw	ra,0(sp)

        wrctl estatus, r5
 10800a4:	2801707a 	wrctl	estatus,r5

        ldw   r1,   8(sp)
 10800a8:	d8400217 	ldw	at,8(sp)
        ldw   r2,  12(sp)
 10800ac:	d8800317 	ldw	r2,12(sp)
        ldw   r3,  16(sp)
 10800b0:	d8c00417 	ldw	r3,16(sp)
        ldw   r4,  20(sp)
 10800b4:	d9000517 	ldw	r4,20(sp)
        ldw   r5,  24(sp)
 10800b8:	d9400617 	ldw	r5,24(sp)
        ldw   r6,  28(sp)
 10800bc:	d9800717 	ldw	r6,28(sp)
        ldw   r7,  32(sp)
 10800c0:	d9c00817 	ldw	r7,32(sp)

#ifdef ALT_EXCEPTION_STACK
#ifdef ALT_STACK_CHECK
        ldw   et, %gprel(alt_exception_old_stack_limit)(gp)
#endif
#endif

        ldw   r8,  36(sp)
 10800c4:	da000917 	ldw	r8,36(sp)
        ldw   r9,  40(sp)
 10800c8:	da400a17 	ldw	r9,40(sp)
        ldw   r10, 44(sp)
 10800cc:	da800b17 	ldw	r10,44(sp)
        ldw   r11, 48(sp)
 10800d0:	dac00c17 	ldw	r11,48(sp)
        ldw   r12, 52(sp)
 10800d4:	db000d17 	ldw	r12,52(sp)
        ldw   r13, 56(sp)
 10800d8:	db400e17 	ldw	r13,56(sp)
        ldw   r14, 60(sp)
 10800dc:	db800f17 	ldw	r14,60(sp)
        ldw   r15, 64(sp)
 10800e0:	dbc01017 	ldw	r15,64(sp)

#ifdef ALT_EXCEPTION_STACK

#ifdef ALT_STACK_CHECK
        stw   et, %gprel(alt_stack_limit_value)(gp)
        stw   zero, %gprel(alt_exception_old_stack_limit)(gp)
#endif

        ldw   sp,  76(sp)

#else
        addi  sp, sp, 76
 10800e4:	dec01304 	addi	sp,sp,76

#endif

        /*
         * Return to the interrupted instruction.
         */

        eret
 10800e8:	ef80083a 	eret

010800ec <alt_irq_handler>:
 */

void alt_irq_handler (void) __attribute__ ((section (".exceptions")));
void alt_irq_handler (void)
{
 10800ec:	defff904 	addi	sp,sp,-28
 10800f0:	dfc00615 	stw	ra,24(sp)
 10800f4:	df000515 	stw	fp,20(sp)
 10800f8:	df000504 	addi	fp,sp,20
 10800fc:	0005313a 	rdctl	r2,ipending
 1080100:	e0bfff15 	stw	r2,-4(fp)
 1080104:	e0bfff17 	ldw	r2,-4(fp)
 1080108:	e0bffe15 	stw	r2,-8(fp)
 108010c:	e0bffe17 	ldw	r2,-8(fp)
 1080110:	e0bffb15 	stw	r2,-20(fp)
#ifdef ALT_CI_INTERRUPT_VECTOR
  alt_32 offset;
  char*  alt_irq_base = (char*)alt_irq;
#else
  alt_u32 active;
  alt_u32 mask;
  alt_u32 i;
#endif /* ALT_CI_INTERRUPT_VECTOR */
  
  /*
   * Notify the operating system that we are at interrupt level.
   */ 
  
  ALT_OS_INT_ENTER();

#ifdef ALT_CI_INTERRUPT_VECTOR
  /*
   * Call the interrupt vector custom instruction using the 
   * ALT_CI_INTERRUPT_VECTOR macro.
   * It returns the offset into the vector table of the lowest-valued pending
   * interrupt (corresponds to highest priority) or a negative value if none.
   * The custom instruction assumes that each table entry is eight bytes.
   */
  while ((offset = ALT_CI_INTERRUPT_VECTOR) >= 0) {
    struct ALT_IRQ_HANDLER* handler_entry = 
      (struct ALT_IRQ_HANDLER*)(alt_irq_base + offset);
#ifdef ALT_ENHANCED_INTERRUPT_API_PRESENT
    handler_entry->handler(handler_entry->context);
#else
    handler_entry->handler(handler_entry->context, offset >> 3);
#endif
  }
#else /* ALT_CI_INTERRUPT_VECTOR */
  /* 
   * Obtain from the interrupt controller a bit list of pending interrupts,
   * and then process the highest priority interrupt. This process loops, 
   * loading the active interrupt list on each pass until alt_irq_pending() 
   * return zero.
   * 
   * The maximum interrupt latency for the highest priority interrupt is
   * reduced by finding out which interrupts are pending as late as possible.
   * Consider the case where the high priority interupt is asserted during
   * the interrupt entry sequence for a lower priority interrupt to see why
   * this is the case.
   */

  active = alt_irq_pending ();

  do
  {
    i = 0;
 1080114:	e03ffd15 	stw	zero,-12(fp)
    mask = 1;
 1080118:	00800044 	movi	r2,1
 108011c:	e0bffc15 	stw	r2,-16(fp)

    /*
     * Test each bit in turn looking for an active interrupt. Once one is 
     * found, the interrupt handler asigned by a call to alt_irq_register() is
     * called to clear the interrupt condition.
     */

    do
    {
      if (active & mask)
 1080120:	e0fffb17 	ldw	r3,-20(fp)
 1080124:	e0bffc17 	ldw	r2,-16(fp)
 1080128:	1884703a 	and	r2,r3,r2
 108012c:	1005003a 	cmpeq	r2,r2,zero
 1080130:	1000101e 	bne	r2,zero,1080174 <alt_irq_handler+0x88>
      { 
#ifdef ALT_ENHANCED_INTERRUPT_API_PRESENT
        alt_irq[i].handler(alt_irq[i].context); 
#else
        alt_irq[i].handler(alt_irq[i].context, i); 
 1080134:	00c02074 	movhi	r3,129
 1080138:	18c9b704 	addi	r3,r3,9948
 108013c:	e0bffd17 	ldw	r2,-12(fp)
 1080140:	100490fa 	slli	r2,r2,3
 1080144:	10c9883a 	add	r4,r2,r3
 1080148:	00c02074 	movhi	r3,129
 108014c:	18c9b704 	addi	r3,r3,9948
 1080150:	e0bffd17 	ldw	r2,-12(fp)
 1080154:	100490fa 	slli	r2,r2,3
 1080158:	10c5883a 	add	r2,r2,r3
 108015c:	10800104 	addi	r2,r2,4
 1080160:	20c00017 	ldw	r3,0(r4)
 1080164:	11000017 	ldw	r4,0(r2)
 1080168:	e17ffd17 	ldw	r5,-12(fp)
 108016c:	183ee83a 	callr	r3
#endif
        break;
 1080170:	00000706 	br	1080190 <alt_irq_handler+0xa4>
      }
      mask <<= 1;
 1080174:	e0bffc17 	ldw	r2,-16(fp)
 1080178:	1085883a 	add	r2,r2,r2
 108017c:	e0bffc15 	stw	r2,-16(fp)
      i++;
 1080180:	e0bffd17 	ldw	r2,-12(fp)
 1080184:	10800044 	addi	r2,r2,1
 1080188:	e0bffd15 	stw	r2,-12(fp)

    } while (1);
 108018c:	003fe406 	br	1080120 <alt_irq_handler+0x34>
 1080190:	0005313a 	rdctl	r2,ipending
 1080194:	e0bffe15 	stw	r2,-8(fp)
 1080198:	e0bffe17 	ldw	r2,-8(fp)
 108019c:	e0bfff15 	stw	r2,-4(fp)
 10801a0:	e0bfff17 	ldw	r2,-4(fp)
 10801a4:	e0bffb15 	stw	r2,-20(fp)

    active = alt_irq_pending ();
    
  } while (active);
 10801a8:	e0bffb17 	ldw	r2,-20(fp)
 10801ac:	1005003a 	cmpeq	r2,r2,zero
 10801b0:	1000011e 	bne	r2,zero,10801b8 <alt_irq_handler+0xcc>
 10801b4:	003fd706 	br	1080114 <alt_irq_handler+0x28>
#endif /* ALT_CI_INTERRUPT_VECTOR */

  /*
   * Notify the operating system that interrupt processing is complete.
   */ 

  ALT_OS_INT_EXIT();
}
 10801b8:	dfc00617 	ldw	ra,24(sp)
 10801bc:	df000517 	ldw	fp,20(sp)
 10801c0:	dec00704 	addi	sp,sp,28
 10801c4:	f800283a 	ret
Disassembly of section .text:

008001a8 <_start>:

    .size __reset, . - __reset
#endif /* Jump to _start */

/*
 * When not using exit, provide an _exit symbol to prevent unresolved
 * references to _exit from the linker script.
 */
#ifdef ALT_NO_EXIT
    .globl _exit
_exit:
#endif

/*************************************************************************\
|                          TEXT SECTION (.text)                           |
\*************************************************************************/

/*
 * Start of the .text section, and also the code entry point when
 * the code is executed by a bootloader rather than directly from reset.
 */
    .section .text
    .align 2

    .globl _start
    .type _start, @function
_start:

/*
 * Initialize the data cache if present (i.e. size > 0) and not
 * optimizing for RTL simulation.
 * RTL simulations can ensure the data cache is already initialized
 * so skipping this loop speeds up RTL simulation.
 */

#if NIOS2_DCACHE_SIZE > 0 && !defined(ALT_SIM_OPTIMIZE)

    /* Assume the data cache size is always a power of two. */
#if NIOS2_DCACHE_SIZE > 0x8000
    movhi r2, %hi(NIOS2_DCACHE_SIZE)
#else
    movui r2, NIOS2_DCACHE_SIZE
#endif

0:
    initd 0(r2)
    addi r2, r2, -NIOS2_DCACHE_LINE_SIZE
    bgt r2, zero, 0b
1:

    /*
     * The following debug information tells the ISS not to run the loop above
     * but to perform its actions using faster internal code.
     */
    .pushsection .debug_alt_sim_info
    .int 2, 1, 0b, 1b
    .popsection

#endif /* Initialize Data Cache */

    /* Log that caches have been initialized. */
    ALT_LOG_PUTS(alt_log_msg_cache)

    /* Log that the stack pointer is about to be setup. */
    ALT_LOG_PUTS(alt_log_msg_stackpointer)

#if (NIOS2_NUM_OF_SHADOW_REG_SETS == 0)    
    /*
     * Now that the caches are initialized, set up the stack pointer.
     * The value provided by the linker is assumed to be correctly aligned.
     */
    movhi sp, %hi(__alt_stack_pointer)
  8001a8:	06c04034 	movhi	sp,256
    ori sp, sp, %lo(__alt_stack_pointer)
  8001ac:	dec00014 	ori	sp,sp,0

    /* Set up the global pointer. */
    movhi gp, %hi(_gp)
  8001b0:	06802074 	movhi	gp,129
    ori gp, gp, %lo(_gp)
  8001b4:	d6a81b14 	ori	gp,gp,41068

#else /* NIOS2_NUM_OF_SHADOW_REG_SETS > 0 */

    /*
     * Set up the GP and SP in all shadow register sets.
     */

    /* 
     * Check current register set number, if CPU resets into a shadow register 
     * set, switch register set to 0 by writing zero to SSTATUS register and 
     * execute an ERET instruction that just jumps to the next PC address 
     * (use the NEXTPC instruction to get this).
     */
    
    rdctl r2, status
    
    /* Get the current register set number (STATUS.CRS). */
    andi r3, r2, NIOS2_STATUS_CRS_MSK
    
    /* Skip switch register set if STATUS.CRS is 0.  */
    beq r3, zero, .Lskip_switch_reg_set
    
    .set nobreak
    
    /* Current register set is non-zero, set SSTATUS to 0. */
    mov sstatus, zero
    
    /* Get next pc and store in ea. */
    nextpc ea
    
    /* Point to instruction after eret. */
    addi ea, ea, 8
    
    /* 
     * Execute ERET instruction that just jumps to the next PC address 
     */
    eret
    
.Lskip_switch_reg_set:    
    mov r2, zero
    
    /* Reset STATUS register */
    wrctl status, r2

    movui r3, NIOS2_NUM_OF_SHADOW_REG_SETS
    
    /* Set up the stack pointer in register set 0. */
    movhi sp, %hi(__alt_stack_pointer)
    ori sp, sp, %lo(__alt_stack_pointer)
    
    /* Set up the global pointer in register set 0. */
    movhi gp, %hi(_gp)
    ori gp, gp, %lo(_gp)     

.Lsetup_sp_and_gp_loop:
    /* 
     * Setup GP and SP for shadow register set 
     * from NIOS2_NUM_OF_SHADOW_REG_SETS to 0
     */

    /* Skip if number of register sets is 0. */
    beq r3, zero, .Lno_shadow_register_set


    /* Add previous register set STATUS.PRS by 1 */
    movhi r4, 1
    add r2, r2, r4

    /* Write STATUS */
    wrctl status, r2

    /* Clear r0 in the shadow register set (not done by hardware) */
    wrprs r0, r0

    /* Write the GP in previous register set */
    wrprs gp, gp

    /* Only write the SP in previous register set
     * if using the seperate exception stack. For normal case (single stack),
     * funnel code would read the SP from previous register set.
     */
#ifdef ALT_INTERRUPT_STACK

    movhi et, %hiadj(__alt_interrupt_stack_pointer)
    addi  et, et, %lo(__alt_interrupt_stack_pointer)
    wrprs sp, et

#endif /* ALT_INTERRUPT_STACK */

    /* Decrease number of register set counter by 1 */
    addi r3, r3, -1

    br .Lsetup_sp_and_gp_loop
.Lno_shadow_register_set:

#endif /* NIOS2_NUM_OF_SHADOW_REG_SETS */
/*
 * Clear the BSS if not optimizing for RTL simulation.
 *
 * This uses the symbols: __bss_start and __bss_end, which are defined
 * by the linker script. They mark the begining and the end of the bss
 * region. The linker script guarantees that these values are word aligned.
 */
#ifndef ALT_SIM_OPTIMIZE
    /* Log that the BSS is about to be cleared. */
    ALT_LOG_PUTS(alt_log_msg_bss)

    movhi r2, %hi(__bss_start)
  8001b8:	00802074 	movhi	r2,129
    ori r2, r2, %lo(__bss_start)
  8001bc:	10884814 	ori	r2,r2,8480

    movhi r3, %hi(__bss_end)
  8001c0:	00c02074 	movhi	r3,129
    ori r3, r3, %lo(__bss_end)
  8001c4:	18ca3a14 	ori	r3,r3,10472

    beq r2, r3, 1f
  8001c8:	10c00326 	beq	r2,r3,8001d8 <_start+0x30>

0:
    stw zero, (r2)
  8001cc:	10000015 	stw	zero,0(r2)
    addi r2, r2, 4
  8001d0:	10800104 	addi	r2,r2,4
    bltu r2, r3, 0b
  8001d4:	10fffd36 	bltu	r2,r3,8001cc <_start+0x24>

1:

    /*
     * The following debug information tells the ISS not to run the loop above
     * but to perform its actions using faster internal code.
     */
    .pushsection .debug_alt_sim_info
    .int 3, 1, 0b, 1b
    .popsection
#endif /* ALT_SIM_OPTIMIZE */

/*
 * The alt_load() facility is normally used when there is no bootloader.
 * It copies some sections into RAM so it acts like a mini-bootloader.
 */
#ifdef CALL_ALT_LOAD

#ifdef ALT_STACK_CHECK
    /*
     * If the user has selected stack checking then we need to set up a safe
     * value in the stack limit register so that the relocation functions
     * don't think the stack has overflowed (the contents of the rwdata
     * section aren't defined until alt_load() has been called).
     */
    mov   et, zero
#endif

    call alt_load
  8001d8:	08098000 	call	809800 <alt_load>

#endif /* CALL_ALT_LOAD */

#ifdef ALT_STACK_CHECK
    /*
     * Set up the stack limit (if required).  The linker has set up the
     * copy of the variable which is in memory.
     */

    ldw   et, %gprel(alt_stack_limit_value)(gp)
#endif

    /* Log that alt_main is about to be called. */
    ALT_LOG_PUTS(alt_log_msg_alt_main)

    /* Call the C entry point. It should never return. */
    call alt_main
  8001dc:	0809a1c0 	call	809a1c <alt_main>

008001e0 <alt_after_alt_main>:

    /* Wait in infinite loop in case alt_main does return. */
alt_after_alt_main:
    br alt_after_alt_main
  8001e0:	003fff06 	br	8001e0 <alt_after_alt_main>

008001e4 <main>:
volatile int * audio_ptr = (int *) AUDIO_BASE;
unsigned int fifospace;


int main() {
  8001e4:	defff604 	addi	sp,sp,-40
  8001e8:	dfc00915 	stw	ra,36(sp)
  8001ec:	df000815 	stw	fp,32(sp)
  8001f0:	dc000715 	stw	r16,28(sp)
  8001f4:	df000804 	addi	fp,sp,32

	// these are the varibles that are used in the main loop
	short int file_handle = 1;
  8001f8:	00800044 	movi	r2,1
  8001fc:	e0bff80d 	sth	r2,-32(fp)
	BYTE file_data1;
	BYTE file_data2;
	BYTE file_data3;
	unsigned int  file_data =0;
  800200:	e03ffa15 	stw	zero,-24(fp)
	volatile int * sound_id_ptr = (int *) SOUNDS_IDS_BASE;
  800204:	e03ffb15 	stw	zero,-20(fp)
	volatile int * sound_start_ptr = (int *) START_SOUND_BASE;
  800208:	00804004 	movi	r2,256
  80020c:	e0bffc15 	stw	r2,-16(fp)
	buffers = malloc(NUM_OF_FILES * sizeof(UINT16 *));
  800210:	01000804 	movi	r4,32
  800214:	08007140 	call	800714 <malloc>
  800218:	d0a02e15 	stw	r2,-32584(gp)
	int i;

	//set the file names up so that they can be referenced
	fileNames[0]="notokens.raw";
  80021c:	00c02074 	movhi	r3,129
  800220:	18c85504 	addi	r3,r3,8532
  800224:	00802074 	movhi	r2,129
  800228:	10801504 	addi	r2,r2,84
  80022c:	18800015 	stw	r2,0(r3)
	fileNames[1]="COLLECT.raw";
  800230:	00c02074 	movhi	r3,129
  800234:	18c85504 	addi	r3,r3,8532
  800238:	00802074 	movhi	r2,129
  80023c:	10801904 	addi	r2,r2,100
  800240:	18800115 	stw	r2,4(r3)
	fileNames[2]="error.raw";
  800244:	00c02074 	movhi	r3,129
  800248:	18c85504 	addi	r3,r3,8532
  80024c:	00802074 	movhi	r2,129
  800250:	10801c04 	addi	r2,r2,112
  800254:	18800215 	stw	r2,8(r3)
	fileNames[3]="insert.raw";
  800258:	00c02074 	movhi	r3,129
  80025c:	18c85504 	addi	r3,r3,8532
  800260:	00802074 	movhi	r2,129
  800264:	10801f04 	addi	r2,r2,124
  800268:	18800315 	stw	r2,12(r3)
	fileNames[4]="niceday.raw";
  80026c:	00c02074 	movhi	r3,129
  800270:	18c85504 	addi	r3,r3,8532
  800274:	00802074 	movhi	r2,129
  800278:	10802204 	addi	r2,r2,136
  80027c:	18800415 	stw	r2,16(r3)
	fileNames[5]="outofsrv.raw";
  800280:	00c02074 	movhi	r3,129
  800284:	18c85504 	addi	r3,r3,8532
  800288:	00802074 	movhi	r2,129
  80028c:	10802504 	addi	r2,r2,148
  800290:	18800515 	stw	r2,20(r3)
	fileNames[6]="thnkyou.raw";
  800294:	00c02074 	movhi	r3,129
  800298:	18c85504 	addi	r3,r3,8532
  80029c:	00802074 	movhi	r2,129
  8002a0:	10802904 	addi	r2,r2,164
  8002a4:	18800615 	stw	r2,24(r3)
	fileNames[7]="wait.raw";
  8002a8:	00c02074 	movhi	r3,129
  8002ac:	18c85504 	addi	r3,r3,8532
  8002b0:	00802074 	movhi	r2,129
  8002b4:	10802c04 	addi	r2,r2,176
  8002b8:	18800715 	stw	r2,28(r3)
	//printf("hi there sexy.\n");

	//set up the device references to the audio and the sdcard names as defined in the SOPC
	device_reference = alt_up_sd_card_open_dev("/dev/SDCARD");
  8002bc:	01002074 	movhi	r4,129
  8002c0:	21002f04 	addi	r4,r4,188
  8002c4:	080dafc0 	call	80dafc <alt_up_sd_card_open_dev>
  8002c8:	d0a00015 	stw	r2,-32768(gp)
	audio_dev_reference = alt_up_audio_open_dev("/dev/audio");
  8002cc:	01002074 	movhi	r4,129
  8002d0:	21003204 	addi	r4,r4,200
  8002d4:	080aa480 	call	80aa48 <alt_up_audio_open_dev>
  8002d8:	d0a00115 	stw	r2,-32764(gp)

	if (device_reference != NULL) {			//if the sdcard reference has not failed go into the loop
  8002dc:	d0a00017 	ldw	r2,-32768(gp)
  8002e0:	1005003a 	cmpeq	r2,r2,zero
  8002e4:	1000601e 	bne	r2,zero,800468 <main+0x284>
		if (alt_up_sd_card_is_Present()) {	//check a card is present before trying to load it
  8002e8:	080dbb80 	call	80dbb8 <alt_up_sd_card_is_Present>
  8002ec:	1005003a 	cmpeq	r2,r2,zero
  8002f0:	10005c1e 	bne	r2,zero,800464 <main+0x280>
			//printf("Card connected.\n");
			if (alt_up_sd_card_is_FAT16()) { //check the file format is fat16 as this is what we can read
  8002f4:	080dc7c0 	call	80dc7c <alt_up_sd_card_is_FAT16>
  8002f8:	1005003a 	cmpeq	r2,r2,zero
  8002fc:	10005a1e 	bne	r2,zero,800468 <main+0x284>
				//printf("FAT16 file system detected.\n");
				for (i =0; i < NUM_OF_FILES;i++)	//load the number of files as defined earlier
  800300:	e03ffd15 	stw	zero,-12(fp)
  800304:	e0bffd17 	ldw	r2,-12(fp)
  800308:	10800208 	cmpgei	r2,r2,8
  80030c:	1000561e 	bne	r2,zero,800468 <main+0x284>
				{
					file_handle = alt_up_sd_card_fopen(fileNames[i], false); //load the file as specifed depending on the iteration if not there do not create
  800310:	00c02074 	movhi	r3,129
  800314:	18c85504 	addi	r3,r3,8532
  800318:	e0bffd17 	ldw	r2,-12(fp)
  80031c:	100490ba 	slli	r2,r2,2
  800320:	10c5883a 	add	r2,r2,r3
  800324:	11000017 	ldw	r4,0(r2)
  800328:	000b883a 	mov	r5,zero
  80032c:	080e1000 	call	80e100 <alt_up_sd_card_fopen>
  800330:	e0bff80d 	sth	r2,-32(fp)
					int size = alt_up_sd_card_get_size(file_handle);		//get the size in bytes of the file
  800334:	e13ff80f 	ldh	r4,-32(fp)
  800338:	080e5800 	call	80e580 <alt_up_sd_card_get_size>
  80033c:	e0bffe15 	stw	r2,-8(fp)
					size_array[i]= (size/3);								//put the number samples needed into an array. to get sample mutiple the bytes to bits so times 8 then divide by 24 to get number of samples this simplfies to divide by 3
  800340:	00c02074 	movhi	r3,129
  800344:	18c84d04 	addi	r3,r3,8500
  800348:	e0bffd17 	ldw	r2,-12(fp)
  80034c:	100490ba 	slli	r2,r2,2
  800350:	10e1883a 	add	r16,r2,r3
  800354:	e13ffe17 	ldw	r4,-8(fp)
  800358:	014000c4 	movi	r5,3
  80035c:	08006300 	call	800630 <__divsi3>
  800360:	80800015 	stw	r2,0(r16)
					//printf("size, %d.\n", size);
					printf("file handle= %d.\n",file_handle);
  800364:	e17ff80f 	ldh	r5,-32(fp)
  800368:	01002074 	movhi	r4,129
  80036c:	21003504 	addi	r4,r4,212
  800370:	0800df40 	call	800df4 <printf>
					fifospace = *(audio_ptr + 1);	 		// read the audio port fifospace register
  800374:	d0a00417 	ldw	r2,-32752(gp)
  800378:	10800104 	addi	r2,r2,4
  80037c:	10800017 	ldw	r2,0(r2)
  800380:	d0a02f15 	stw	r2,-32580(gp)
					buffers[i] = malloc((size*2));			//set the buffer to point to memory location, doubled due to issue with malloc
  800384:	e0bffd17 	ldw	r2,-12(fp)
  800388:	100690ba 	slli	r3,r2,2
  80038c:	d0a02e17 	ldw	r2,-32584(gp)
  800390:	18a1883a 	add	r16,r3,r2
  800394:	e0fffe17 	ldw	r3,-8(fp)
  800398:	1805883a 	mov	r2,r3
  80039c:	10c9883a 	add	r4,r2,r3
  8003a0:	08007140 	call	800714 <malloc>
  8003a4:	80800015 	stw	r2,0(r16)
					left_buffer = buffers[i];				//point left buffer to this location
  8003a8:	e0bffd17 	ldw	r2,-12(fp)
  8003ac:	100690ba 	slli	r3,r2,2
  8003b0:	d0a02e17 	ldw	r2,-32584(gp)
  8003b4:	1885883a 	add	r2,r3,r2
  8003b8:	10800017 	ldw	r2,0(r2)
  8003bc:	d0a02d15 	stw	r2,-32588(gp)
					buffer_index = 0;						//reset buffer index
  8003c0:	d0200215 	stw	zero,-32760(gp)
					while ((buffer_index < size_array[i]) ) //while the number of samples in buffer is less than total number of sample load a sample
  8003c4:	00c02074 	movhi	r3,129
  8003c8:	18c84d04 	addi	r3,r3,8500
  8003cc:	e0bffd17 	ldw	r2,-12(fp)
  8003d0:	100490ba 	slli	r2,r2,2
  8003d4:	10c5883a 	add	r2,r2,r3
  8003d8:	d0e00217 	ldw	r3,-32760(gp)
  8003dc:	10800017 	ldw	r2,0(r2)
  8003e0:	18801c2e 	bgeu	r3,r2,800454 <main+0x270>
					{
						file_data1 = alt_up_sd_card_read(file_handle); //load the 3 bytes indivually
  8003e4:	e13ff80f 	ldh	r4,-32(fp)
  8003e8:	080e6040 	call	80e604 <alt_up_sd_card_read>
  8003ec:	e0bff885 	stb	r2,-30(fp)
						file_data2 = alt_up_sd_card_read(file_handle);
  8003f0:	e13ff80f 	ldh	r4,-32(fp)
  8003f4:	080e6040 	call	80e604 <alt_up_sd_card_read>
  8003f8:	e0bff8c5 	stb	r2,-29(fp)
						file_data3 = alt_up_sd_card_read(file_handle);
  8003fc:	e13ff80f 	ldh	r4,-32(fp)
  800400:	080e6040 	call	80e604 <alt_up_sd_card_read>
  800404:	e0bff905 	stb	r2,-28(fp)
						file_data = ((file_data3<<24 | file_data2<<16) | file_data1<<8);//contatiate the sample bytes back into a sigle sample
  800408:	e0bff903 	ldbu	r2,-28(fp)
  80040c:	1006963a 	slli	r3,r2,24
  800410:	e0bff8c3 	ldbu	r2,-29(fp)
  800414:	1004943a 	slli	r2,r2,16
  800418:	1886b03a 	or	r3,r3,r2
  80041c:	e0bff883 	ldbu	r2,-30(fp)
  800420:	1004923a 	slli	r2,r2,8
  800424:	1884b03a 	or	r2,r3,r2
  800428:	e0bffa15 	stw	r2,-24(fp)
						left_buffer[buffer_index] = file_data; 			//puts this data in the buffer location
  80042c:	d0a00217 	ldw	r2,-32760(gp)
  800430:	100690ba 	slli	r3,r2,2
  800434:	d0a02d17 	ldw	r2,-32588(gp)
  800438:	1887883a 	add	r3,r3,r2
  80043c:	e0bffa17 	ldw	r2,-24(fp)
  800440:	18800015 	stw	r2,0(r3)
						buffer_index++;
  800444:	d0a00217 	ldw	r2,-32760(gp)
  800448:	10800044 	addi	r2,r2,1
  80044c:	d0a00215 	stw	r2,-32760(gp)
  800450:	003fdc06 	br	8003c4 <main+0x1e0>
  800454:	e0bffd17 	ldw	r2,-12(fp)
  800458:	10800044 	addi	r2,r2,1
  80045c:	e0bffd15 	stw	r2,-12(fp)
  800460:	003fa806 	br	800304 <main+0x120>
					}
				}
			}
			else {
				//printf("Unknown file system.\n");
			}
		} else if ((alt_up_sd_card_is_Present() == false)) {
  800464:	080dbb80 	call	80dbb8 <alt_up_sd_card_is_Present>
			//printf("Card disconnected.\n");
		}
	}
	printf("sounds buffered and ready to play");
  800468:	01002074 	movhi	r4,129
  80046c:	21003a04 	addi	r4,r4,232
  800470:	0800df40 	call	800df4 <printf>
	while (1)
	{
		//sound = (*sound_id_ptr&0x07);	//get the input from the input port and bitmask to get number
		if ((*(sound_start_ptr)&0x01) ==1)			//if the start is high play the file
  800474:	e0bffc17 	ldw	r2,-16(fp)
  800478:	10800017 	ldw	r2,0(r2)
  80047c:	1080004c 	andi	r2,r2,1
  800480:	1005003a 	cmpeq	r2,r2,zero
  800484:	103ffb1e 	bne	r2,zero,800474 <main+0x290>
		{	sound = (*sound_id_ptr&0x07);
  800488:	e0bffb17 	ldw	r2,-20(fp)
  80048c:	10800017 	ldw	r2,0(r2)
  800490:	108001cc 	andi	r2,r2,7
  800494:	d0a00315 	stw	r2,-32756(gp)
//			printf("sound is %d\n", sound);
			if (sound >=0 && sound < NUM_OF_FILES) //if the id is a valid number then you can play
  800498:	d0a00317 	ldw	r2,-32756(gp)
  80049c:	1004803a 	cmplt	r2,r2,zero
  8004a0:	103ff41e 	bne	r2,zero,800474 <main+0x290>
  8004a4:	d0a00317 	ldw	r2,-32756(gp)
  8004a8:	10800208 	cmpgei	r2,r2,8
  8004ac:	103ff11e 	bne	r2,zero,800474 <main+0x290>
			{
				playSound(sound);					//call the play functions
  8004b0:	d1200317 	ldw	r4,-32756(gp)
  8004b4:	08004bc0 	call	8004bc <playSound>
  8004b8:	003fee06 	br	800474 <main+0x290>

008004bc <playSound>:
			}
		}
	}
	return 0;
}

void playSound (int n)
{
  8004bc:	defffe04 	addi	sp,sp,-8
  8004c0:	df000115 	stw	fp,4(sp)
  8004c4:	df000104 	addi	fp,sp,4
  8004c8:	e13fff15 	stw	r4,-4(fp)
	left_buffer = buffers[n];				//set the buffer to the location of the requested sound file
  8004cc:	e0bfff17 	ldw	r2,-4(fp)
  8004d0:	100690ba 	slli	r3,r2,2
  8004d4:	d0a02e17 	ldw	r2,-32584(gp)
  8004d8:	1885883a 	add	r2,r3,r2
  8004dc:	10800017 	ldw	r2,0(r2)
  8004e0:	d0a02d15 	stw	r2,-32588(gp)
	buffer_index=0;							//reset the buffer_index
  8004e4:	d0200215 	stw	zero,-32760(gp)
	*(audio_ptr) = 0x8;						//clear the old fifo
  8004e8:	d0e00417 	ldw	r3,-32752(gp)
  8004ec:	00800204 	movi	r2,8
  8004f0:	18800015 	stw	r2,0(r3)
	*(audio_ptr) = 0x0;						//stop clearing the fifo
  8004f4:	d0a00417 	ldw	r2,-32752(gp)
  8004f8:	10000015 	stw	zero,0(r2)
	fifospace = *(audio_ptr + 1);	 		// read the audio port fifospace register
  8004fc:	d0a00417 	ldw	r2,-32752(gp)
  800500:	10800104 	addi	r2,r2,4
  800504:	10800017 	ldw	r2,0(r2)
  800508:	d0a02f15 	stw	r2,-32580(gp)
	if ( (fifospace & 0x00FF0000) > BUF_THRESHOLD ) 	// check WSRC
  80050c:	d0a02f17 	ldw	r2,-32580(gp)
  800510:	10803fec 	andhi	r2,r2,255
  800514:	10801870 	cmpltui	r2,r2,97
  800518:	1000281e 	bne	r2,zero,8005bc <playSound+0x100>
	{
		// output data until the buffer is empty or the audio-out FIFO is full
		while ( (buffer_index < size_array[n]) ){	//while the buffer index is less than size of samples
  80051c:	00c02074 	movhi	r3,129
  800520:	18c84d04 	addi	r3,r3,8500
  800524:	e0bfff17 	ldw	r2,-4(fp)
  800528:	100490ba 	slli	r2,r2,2
  80052c:	10c5883a 	add	r2,r2,r3
  800530:	d0e00217 	ldw	r3,-32760(gp)
  800534:	10800017 	ldw	r2,0(r2)
  800538:	18801c2e 	bgeu	r3,r2,8005ac <playSound+0xf0>
			fifospace = *(audio_ptr + 1);	// read the audio port fifospace register
  80053c:	d0a00417 	ldw	r2,-32752(gp)
  800540:	10800104 	addi	r2,r2,4
  800544:	10800017 	ldw	r2,0(r2)
  800548:	d0a02f15 	stw	r2,-32580(gp)
			if((fifospace & 0x00FF0000) >BUF_THRESHOLD){	//if the fifo is not over 75% full
  80054c:	d0a02f17 	ldw	r2,-32580(gp)
  800550:	10803fec 	andhi	r2,r2,255
  800554:	10801870 	cmpltui	r2,r2,97
  800558:	103ff01e 	bne	r2,zero,80051c <playSound+0x60>
				*(audio_ptr + 2) = left_buffer[buffer_index];	//put data in the output fifos
  80055c:	d0a00417 	ldw	r2,-32752(gp)
  800560:	11000204 	addi	r4,r2,8
  800564:	d0a00217 	ldw	r2,-32760(gp)
  800568:	100690ba 	slli	r3,r2,2
  80056c:	d0a02d17 	ldw	r2,-32588(gp)
  800570:	1885883a 	add	r2,r3,r2
  800574:	10800017 	ldw	r2,0(r2)
  800578:	20800015 	stw	r2,0(r4)
				*(audio_ptr + 3) = left_buffer[buffer_index];
  80057c:	d0a00417 	ldw	r2,-32752(gp)
  800580:	11000304 	addi	r4,r2,12
  800584:	d0a00217 	ldw	r2,-32760(gp)
  800588:	100690ba 	slli	r3,r2,2
  80058c:	d0a02d17 	ldw	r2,-32588(gp)
  800590:	1885883a 	add	r2,r3,r2
  800594:	10800017 	ldw	r2,0(r2)
  800598:	20800015 	stw	r2,0(r4)
				++buffer_index;								//increment the buffer index
  80059c:	d0a00217 	ldw	r2,-32760(gp)
  8005a0:	10800044 	addi	r2,r2,1
  8005a4:	d0a00215 	stw	r2,-32760(gp)
  8005a8:	003fdc06 	br	80051c <playSound+0x60>
			}
		}
		fifospace = *(audio_ptr + 1);	// read the audio port fifospace register
  8005ac:	d0a00417 	ldw	r2,-32752(gp)
  8005b0:	10800104 	addi	r2,r2,4
  8005b4:	10800017 	ldw	r2,0(r2)
  8005b8:	d0a02f15 	stw	r2,-32580(gp)
	}
	//printf("file over.\n");
	sound = -1;							//set the sound invalid to prevent a repeated play
  8005bc:	00bfffc4 	movi	r2,-1
  8005c0:	d0a00315 	stw	r2,-32756(gp)

}
  8005c4:	df000117 	ldw	fp,4(sp)
  8005c8:	dec00204 	addi	sp,sp,8
  8005cc:	f800283a 	ret

008005d0 <udivmodsi4>:
  8005d0:	00800044 	movi	r2,1
  8005d4:	000f883a 	mov	r7,zero
  8005d8:	2900082e 	bgeu	r5,r4,8005fc <udivmodsi4+0x2c>
  8005dc:	28000716 	blt	r5,zero,8005fc <udivmodsi4+0x2c>
  8005e0:	294b883a 	add	r5,r5,r5
  8005e4:	1085883a 	add	r2,r2,r2
  8005e8:	29000e2e 	bgeu	r5,r4,800624 <udivmodsi4+0x54>
  8005ec:	1007003a 	cmpeq	r3,r2,zero
  8005f0:	1800081e 	bne	r3,zero,800614 <udivmodsi4+0x44>
  8005f4:	283ffa0e 	bge	r5,zero,8005e0 <udivmodsi4+0x10>
  8005f8:	1800061e 	bne	r3,zero,800614 <udivmodsi4+0x44>
  8005fc:	21400236 	bltu	r4,r5,800608 <udivmodsi4+0x38>
  800600:	2149c83a 	sub	r4,r4,r5
  800604:	388eb03a 	or	r7,r7,r2
  800608:	1004d07a 	srli	r2,r2,1
  80060c:	280ad07a 	srli	r5,r5,1
  800610:	103ffa1e 	bne	r2,zero,8005fc <udivmodsi4+0x2c>
  800614:	3000011e 	bne	r6,zero,80061c <udivmodsi4+0x4c>
  800618:	3809883a 	mov	r4,r7
  80061c:	2005883a 	mov	r2,r4
  800620:	f800283a 	ret
  800624:	1007003a 	cmpeq	r3,r2,zero
  800628:	183ff426 	beq	r3,zero,8005fc <udivmodsi4+0x2c>
  80062c:	003ff906 	br	800614 <udivmodsi4+0x44>

00800630 <__divsi3>:
  800630:	defffe04 	addi	sp,sp,-8
  800634:	dc000015 	stw	r16,0(sp)
  800638:	dfc00115 	stw	ra,4(sp)
  80063c:	000d883a 	mov	r6,zero
  800640:	0021883a 	mov	r16,zero
  800644:	20000816 	blt	r4,zero,800668 <__divsi3+0x38>
  800648:	28000a16 	blt	r5,zero,800674 <__divsi3+0x44>
  80064c:	08005d00 	call	8005d0 <udivmodsi4>
  800650:	80000126 	beq	r16,zero,800658 <__divsi3+0x28>
  800654:	0085c83a 	sub	r2,zero,r2
  800658:	dfc00117 	ldw	ra,4(sp)
  80065c:	dc000017 	ldw	r16,0(sp)
  800660:	dec00204 	addi	sp,sp,8
  800664:	f800283a 	ret
  800668:	0109c83a 	sub	r4,zero,r4
  80066c:	0021003a 	cmpeq	r16,zero,zero
  800670:	283ff60e 	bge	r5,zero,80064c <__divsi3+0x1c>
  800674:	014bc83a 	sub	r5,zero,r5
  800678:	8021003a 	cmpeq	r16,r16,zero
  80067c:	003ff306 	br	80064c <__divsi3+0x1c>

00800680 <__modsi3>:
  800680:	defffe04 	addi	sp,sp,-8
  800684:	dc000015 	stw	r16,0(sp)
  800688:	dfc00115 	stw	ra,4(sp)
  80068c:	01800044 	movi	r6,1
  800690:	0021883a 	mov	r16,zero
  800694:	20000816 	blt	r4,zero,8006b8 <__modsi3+0x38>
  800698:	28000a16 	blt	r5,zero,8006c4 <__modsi3+0x44>
  80069c:	08005d00 	call	8005d0 <udivmodsi4>
  8006a0:	80000126 	beq	r16,zero,8006a8 <__modsi3+0x28>
  8006a4:	0085c83a 	sub	r2,zero,r2
  8006a8:	dfc00117 	ldw	ra,4(sp)
  8006ac:	dc000017 	ldw	r16,0(sp)
  8006b0:	dec00204 	addi	sp,sp,8
  8006b4:	f800283a 	ret
  8006b8:	0109c83a 	sub	r4,zero,r4
  8006bc:	3021883a 	mov	r16,r6
  8006c0:	283ff60e 	bge	r5,zero,80069c <__modsi3+0x1c>
  8006c4:	014bc83a 	sub	r5,zero,r5
  8006c8:	003ff406 	br	80069c <__modsi3+0x1c>

008006cc <__udivsi3>:
  8006cc:	000d883a 	mov	r6,zero
  8006d0:	02002034 	movhi	r8,128
  8006d4:	42017404 	addi	r8,r8,1488
  8006d8:	4000683a 	jmp	r8

008006dc <__umodsi3>:
  8006dc:	01800044 	movi	r6,1
  8006e0:	02002034 	movhi	r8,128
  8006e4:	42017404 	addi	r8,r8,1488
  8006e8:	4000683a 	jmp	r8

008006ec <__mulsi3>:
  8006ec:	0007883a 	mov	r3,zero
  8006f0:	20000626 	beq	r4,zero,80070c <__mulsi3+0x20>
  8006f4:	2080004c 	andi	r2,r4,1
  8006f8:	2008d07a 	srli	r4,r4,1
  8006fc:	10000126 	beq	r2,zero,800704 <__mulsi3+0x18>
  800700:	1947883a 	add	r3,r3,r5
  800704:	294b883a 	add	r5,r5,r5
  800708:	203ffa1e 	bne	r4,zero,8006f4 <__mulsi3+0x8>
  80070c:	1805883a 	mov	r2,r3
  800710:	f800283a 	ret

00800714 <malloc>:
  800714:	200b883a 	mov	r5,r4
  800718:	d1200a17 	ldw	r4,-32728(gp)
  80071c:	02002034 	movhi	r8,128
  800720:	4201cf04 	addi	r8,r8,1852
  800724:	4000683a 	jmp	r8

00800728 <free>:
  800728:	200b883a 	mov	r5,r4
  80072c:	d1200a17 	ldw	r4,-32728(gp)
  800730:	02002034 	movhi	r8,128
  800734:	42131404 	addi	r8,r8,19536
  800738:	4000683a 	jmp	r8

0080073c <_malloc_r>:
  80073c:	defff504 	addi	sp,sp,-44
  800740:	28c002c4 	addi	r3,r5,11
  800744:	00800584 	movi	r2,22
  800748:	dc400715 	stw	r17,28(sp)
  80074c:	dc800615 	stw	r18,24(sp)
  800750:	dfc00a15 	stw	ra,40(sp)
  800754:	df000915 	stw	fp,36(sp)
  800758:	dc000815 	stw	r16,32(sp)
  80075c:	dcc00515 	stw	r19,20(sp)
  800760:	dd000415 	stw	r20,16(sp)
  800764:	dd400315 	stw	r21,12(sp)
  800768:	dd800215 	stw	r22,8(sp)
  80076c:	ddc00115 	stw	r23,4(sp)
  800770:	2025883a 	mov	r18,r4
  800774:	04400404 	movi	r17,16
  800778:	10c0032e 	bgeu	r2,r3,800788 <_malloc_r+0x4c>
  80077c:	00bffe04 	movi	r2,-8
  800780:	18a2703a 	and	r17,r3,r2
  800784:	88000116 	blt	r17,zero,80078c <_malloc_r+0x50>
  800788:	89400d2e 	bgeu	r17,r5,8007c0 <_malloc_r+0x84>
  80078c:	0005883a 	mov	r2,zero
  800790:	dfc00a17 	ldw	ra,40(sp)
  800794:	df000917 	ldw	fp,36(sp)
  800798:	dc000817 	ldw	r16,32(sp)
  80079c:	dc400717 	ldw	r17,28(sp)
  8007a0:	dc800617 	ldw	r18,24(sp)
  8007a4:	dcc00517 	ldw	r19,20(sp)
  8007a8:	dd000417 	ldw	r20,16(sp)
  8007ac:	dd400317 	ldw	r21,12(sp)
  8007b0:	dd800217 	ldw	r22,8(sp)
  8007b4:	ddc00117 	ldw	r23,4(sp)
  8007b8:	dec00b04 	addi	sp,sp,44
  8007bc:	f800283a 	ret
  8007c0:	9009883a 	mov	r4,r18
  8007c4:	0809a8c0 	call	809a8c <__malloc_lock>
  8007c8:	00807dc4 	movi	r2,503
  8007cc:	14401536 	bltu	r2,r17,800824 <_malloc_r+0xe8>
  8007d0:	03402074 	movhi	r13,129
  8007d4:	6b419204 	addi	r13,r13,1608
  8007d8:	8b4d883a 	add	r6,r17,r13
  8007dc:	34000317 	ldw	r16,12(r6)
  8007e0:	8812d0fa 	srli	r9,r17,3
  8007e4:	81803e26 	beq	r16,r6,8008e0 <_malloc_r+0x1a4>
  8007e8:	80c00117 	ldw	r3,4(r16)
  8007ec:	00bfff04 	movi	r2,-4
  8007f0:	82000317 	ldw	r8,12(r16)
  8007f4:	1886703a 	and	r3,r3,r2
  8007f8:	80cb883a 	add	r5,r16,r3
  8007fc:	28800117 	ldw	r2,4(r5)
  800800:	81c00217 	ldw	r7,8(r16)
  800804:	9009883a 	mov	r4,r18
  800808:	10800054 	ori	r2,r2,1
  80080c:	41c00215 	stw	r7,8(r8)
  800810:	28800115 	stw	r2,4(r5)
  800814:	3a000315 	stw	r8,12(r7)
  800818:	0809aa80 	call	809aa8 <__malloc_unlock>
  80081c:	80800204 	addi	r2,r16,8
  800820:	003fdb06 	br	800790 <_malloc_r+0x54>
  800824:	8806d27a 	srli	r3,r17,9
  800828:	8812d0fa 	srli	r9,r17,3
  80082c:	18000926 	beq	r3,zero,800854 <_malloc_r+0x118>
  800830:	00800104 	movi	r2,4
  800834:	10c02f2e 	bgeu	r2,r3,8008f4 <_malloc_r+0x1b8>
  800838:	00800504 	movi	r2,20
  80083c:	1a4016c4 	addi	r9,r3,91
  800840:	10c0042e 	bgeu	r2,r3,800854 <_malloc_r+0x118>
  800844:	00801504 	movi	r2,84
  800848:	10c11536 	bltu	r2,r3,800ca0 <_malloc_r+0x564>
  80084c:	8804d33a 	srli	r2,r17,12
  800850:	12401b84 	addi	r9,r2,110
  800854:	480490fa 	slli	r2,r9,3
  800858:	03402074 	movhi	r13,129
  80085c:	6b419204 	addi	r13,r13,1608
  800860:	134b883a 	add	r5,r2,r13
  800864:	2c000317 	ldw	r16,12(r5)
  800868:	81400926 	beq	r16,r5,800890 <_malloc_r+0x154>
  80086c:	01ffff04 	movi	r7,-4
  800870:	018003c4 	movi	r6,15
  800874:	80800117 	ldw	r2,4(r16)
  800878:	11c6703a 	and	r3,r2,r7
  80087c:	1c49c83a 	sub	r4,r3,r17
  800880:	3100aa16 	blt	r6,r4,800b2c <_malloc_r+0x3f0>
  800884:	2000690e 	bge	r4,zero,800a2c <_malloc_r+0x2f0>
  800888:	84000317 	ldw	r16,12(r16)
  80088c:	817ff91e 	bne	r16,r5,800874 <_malloc_r+0x138>
  800890:	4a400044 	addi	r9,r9,1
  800894:	03002074 	movhi	r12,129
  800898:	63019404 	addi	r12,r12,1616
  80089c:	64000217 	ldw	r16,8(r12)
  8008a0:	83002826 	beq	r16,r12,800944 <_malloc_r+0x208>
  8008a4:	80800117 	ldw	r2,4(r16)
  8008a8:	00ffff04 	movi	r3,-4
  8008ac:	10c6703a 	and	r3,r2,r3
  8008b0:	1c49c83a 	sub	r4,r3,r17
  8008b4:	008003c4 	movi	r2,15
  8008b8:	11006616 	blt	r2,r4,800a54 <_malloc_r+0x318>
  8008bc:	63000315 	stw	r12,12(r12)
  8008c0:	63000215 	stw	r12,8(r12)
  8008c4:	20000e16 	blt	r4,zero,800900 <_malloc_r+0x1c4>
  8008c8:	80c7883a 	add	r3,r16,r3
  8008cc:	18800117 	ldw	r2,4(r3)
  8008d0:	9009883a 	mov	r4,r18
  8008d4:	10800054 	ori	r2,r2,1
  8008d8:	18800115 	stw	r2,4(r3)
  8008dc:	003fce06 	br	800818 <_malloc_r+0xdc>
  8008e0:	81800204 	addi	r6,r16,8
  8008e4:	34000317 	ldw	r16,12(r6)
  8008e8:	81bfbf1e 	bne	r16,r6,8007e8 <_malloc_r+0xac>
  8008ec:	4a400084 	addi	r9,r9,2
  8008f0:	003fe806 	br	800894 <_malloc_r+0x158>
  8008f4:	8804d1ba 	srli	r2,r17,6
  8008f8:	12400e04 	addi	r9,r2,56
  8008fc:	003fd506 	br	800854 <_malloc_r+0x118>
  800900:	00807fc4 	movi	r2,511
  800904:	10c09436 	bltu	r2,r3,800b58 <_malloc_r+0x41c>
  800908:	1808d0fa 	srli	r4,r3,3
  80090c:	61bffe04 	addi	r6,r12,-8
  800910:	00800044 	movi	r2,1
  800914:	200a90fa 	slli	r5,r4,3
  800918:	2007d0ba 	srai	r3,r4,2
  80091c:	31000117 	ldw	r4,4(r6)
  800920:	2991883a 	add	r8,r5,r6
  800924:	41c00217 	ldw	r7,8(r8)
  800928:	10c4983a 	sll	r2,r2,r3
  80092c:	82000315 	stw	r8,12(r16)
  800930:	81c00215 	stw	r7,8(r16)
  800934:	2088b03a 	or	r4,r4,r2
  800938:	3c000315 	stw	r16,12(r7)
  80093c:	31000115 	stw	r4,4(r6)
  800940:	44000215 	stw	r16,8(r8)
  800944:	4807883a 	mov	r3,r9
  800948:	4800a616 	blt	r9,zero,800be4 <_malloc_r+0x4a8>
  80094c:	1807d0ba 	srai	r3,r3,2
  800950:	03402074 	movhi	r13,129
  800954:	6b419204 	addi	r13,r13,1608
  800958:	00800044 	movi	r2,1
  80095c:	10ce983a 	sll	r7,r2,r3
  800960:	69000117 	ldw	r4,4(r13)
  800964:	21c04836 	bltu	r4,r7,800a88 <_malloc_r+0x34c>
  800968:	21c4703a 	and	r2,r4,r7
  80096c:	10000a1e 	bne	r2,zero,800998 <_malloc_r+0x25c>
  800970:	39cf883a 	add	r7,r7,r7
  800974:	00bfff04 	movi	r2,-4
  800978:	4884703a 	and	r2,r9,r2
  80097c:	21c6703a 	and	r3,r4,r7
  800980:	12400104 	addi	r9,r2,4
  800984:	1800041e 	bne	r3,zero,800998 <_malloc_r+0x25c>
  800988:	39cf883a 	add	r7,r7,r7
  80098c:	4a400104 	addi	r9,r9,4
  800990:	21c4703a 	and	r2,r4,r7
  800994:	103ffc26 	beq	r2,zero,800988 <_malloc_r+0x24c>
  800998:	480490fa 	slli	r2,r9,3
  80099c:	4817883a 	mov	r11,r9
  8009a0:	134d883a 	add	r6,r2,r13
  8009a4:	300b883a 	mov	r5,r6
  8009a8:	2c000317 	ldw	r16,12(r5)
  8009ac:	81400926 	beq	r16,r5,8009d4 <_malloc_r+0x298>
  8009b0:	02bfff04 	movi	r10,-4
  8009b4:	020003c4 	movi	r8,15
  8009b8:	80800117 	ldw	r2,4(r16)
  8009bc:	1286703a 	and	r3,r2,r10
  8009c0:	1c49c83a 	sub	r4,r3,r17
  8009c4:	41008016 	blt	r8,r4,800bc8 <_malloc_r+0x48c>
  8009c8:	2000180e 	bge	r4,zero,800a2c <_malloc_r+0x2f0>
  8009cc:	84000317 	ldw	r16,12(r16)
  8009d0:	817ff91e 	bne	r16,r5,8009b8 <_malloc_r+0x27c>
  8009d4:	4a400044 	addi	r9,r9,1
  8009d8:	488000cc 	andi	r2,r9,3
  8009dc:	29400204 	addi	r5,r5,8
  8009e0:	103ff11e 	bne	r2,zero,8009a8 <_malloc_r+0x26c>
  8009e4:	588000cc 	andi	r2,r11,3
  8009e8:	31bffe04 	addi	r6,r6,-8
  8009ec:	5affffc4 	addi	r11,r11,-1
  8009f0:	1000e526 	beq	r2,zero,800d88 <_malloc_r+0x64c>
  8009f4:	30800217 	ldw	r2,8(r6)
  8009f8:	11bffa26 	beq	r2,r6,8009e4 <_malloc_r+0x2a8>
  8009fc:	03402074 	movhi	r13,129
  800a00:	6b419204 	addi	r13,r13,1608
  800a04:	39cf883a 	add	r7,r7,r7
  800a08:	68c00117 	ldw	r3,4(r13)
  800a0c:	19c01e36 	bltu	r3,r7,800a88 <_malloc_r+0x34c>
  800a10:	3800031e 	bne	r7,zero,800a20 <_malloc_r+0x2e4>
  800a14:	00001c06 	br	800a88 <_malloc_r+0x34c>
  800a18:	39cf883a 	add	r7,r7,r7
  800a1c:	4a400104 	addi	r9,r9,4
  800a20:	19c4703a 	and	r2,r3,r7
  800a24:	103ffc26 	beq	r2,zero,800a18 <_malloc_r+0x2dc>
  800a28:	003fdb06 	br	800998 <_malloc_r+0x25c>
  800a2c:	80c7883a 	add	r3,r16,r3
  800a30:	18800117 	ldw	r2,4(r3)
  800a34:	82000317 	ldw	r8,12(r16)
  800a38:	81c00217 	ldw	r7,8(r16)
  800a3c:	10800054 	ori	r2,r2,1
  800a40:	9009883a 	mov	r4,r18
  800a44:	18800115 	stw	r2,4(r3)
  800a48:	41c00215 	stw	r7,8(r8)
  800a4c:	3a000315 	stw	r8,12(r7)
  800a50:	003f7106 	br	800818 <_malloc_r+0xdc>
  800a54:	88800054 	ori	r2,r17,1
  800a58:	844b883a 	add	r5,r16,r17
  800a5c:	80800115 	stw	r2,4(r16)
  800a60:	2905883a 	add	r2,r5,r4
  800a64:	20c00054 	ori	r3,r4,1
  800a68:	61400315 	stw	r5,12(r12)
  800a6c:	61400215 	stw	r5,8(r12)
  800a70:	11000015 	stw	r4,0(r2)
  800a74:	9009883a 	mov	r4,r18
  800a78:	2b000215 	stw	r12,8(r5)
  800a7c:	28c00115 	stw	r3,4(r5)
  800a80:	2b000315 	stw	r12,12(r5)
  800a84:	003f6406 	br	800818 <_malloc_r+0xdc>
  800a88:	6d400217 	ldw	r21,8(r13)
  800a8c:	00bfff04 	movi	r2,-4
  800a90:	a8c00117 	ldw	r3,4(r21)
  800a94:	18ac703a 	and	r22,r3,r2
  800a98:	b449c83a 	sub	r4,r22,r17
  800a9c:	b4400236 	bltu	r22,r17,800aa8 <_malloc_r+0x36c>
  800aa0:	008003c4 	movi	r2,15
  800aa4:	11002316 	blt	r2,r4,800b34 <_malloc_r+0x3f8>
  800aa8:	d0a00817 	ldw	r2,-32736(gp)
  800aac:	073fffc4 	movi	fp,-1
  800ab0:	b02f883a 	mov	r23,r22
  800ab4:	8887883a 	add	r3,r17,r2
  800ab8:	d0a00717 	ldw	r2,-32740(gp)
  800abc:	ada7883a 	add	r19,r21,r22
  800ac0:	1d000404 	addi	r20,r3,16
  800ac4:	17000326 	beq	r2,fp,800ad4 <_malloc_r+0x398>
  800ac8:	18c403c4 	addi	r3,r3,4111
  800acc:	00bc0004 	movi	r2,-4096
  800ad0:	18a8703a 	and	r20,r3,r2
  800ad4:	9009883a 	mov	r4,r18
  800ad8:	a00b883a 	mov	r5,r20
  800adc:	db400015 	stw	r13,0(sp)
  800ae0:	0800e280 	call	800e28 <_sbrk_r>
  800ae4:	1021883a 	mov	r16,r2
  800ae8:	db400017 	ldw	r13,0(sp)
  800aec:	17000426 	beq	r2,fp,800b00 <_malloc_r+0x3c4>
  800af0:	14c03e2e 	bgeu	r2,r19,800bec <_malloc_r+0x4b0>
  800af4:	00802074 	movhi	r2,129
  800af8:	10819204 	addi	r2,r2,1608
  800afc:	a8803b26 	beq	r21,r2,800bec <_malloc_r+0x4b0>
  800b00:	68800217 	ldw	r2,8(r13)
  800b04:	013fff04 	movi	r4,-4
  800b08:	10c00117 	ldw	r3,4(r2)
  800b0c:	1906703a 	and	r3,r3,r4
  800b10:	1c49c83a 	sub	r4,r3,r17
  800b14:	1c400236 	bltu	r3,r17,800b20 <_malloc_r+0x3e4>
  800b18:	008003c4 	movi	r2,15
  800b1c:	11000516 	blt	r2,r4,800b34 <_malloc_r+0x3f8>
  800b20:	9009883a 	mov	r4,r18
  800b24:	0809aa80 	call	809aa8 <__malloc_unlock>
  800b28:	003f1806 	br	80078c <_malloc_r+0x50>
  800b2c:	4a7fffc4 	addi	r9,r9,-1
  800b30:	003f5706 	br	800890 <_malloc_r+0x154>
  800b34:	6c000217 	ldw	r16,8(r13)
  800b38:	88800054 	ori	r2,r17,1
  800b3c:	21000054 	ori	r4,r4,1
  800b40:	8447883a 	add	r3,r16,r17
  800b44:	80800115 	stw	r2,4(r16)
  800b48:	19000115 	stw	r4,4(r3)
  800b4c:	9009883a 	mov	r4,r18
  800b50:	68c00215 	stw	r3,8(r13)
  800b54:	003f3006 	br	800818 <_malloc_r+0xdc>
  800b58:	180ad27a 	srli	r5,r3,9
  800b5c:	1808d0fa 	srli	r4,r3,3
  800b60:	28000426 	beq	r5,zero,800b74 <_malloc_r+0x438>
  800b64:	00800104 	movi	r2,4
  800b68:	11405836 	bltu	r2,r5,800ccc <_malloc_r+0x590>
  800b6c:	1804d1ba 	srli	r2,r3,6
  800b70:	11000e04 	addi	r4,r2,56
  800b74:	200490fa 	slli	r2,r4,3
  800b78:	01402074 	movhi	r5,129
  800b7c:	29419204 	addi	r5,r5,1608
  800b80:	1351883a 	add	r8,r2,r13
  800b84:	41c00217 	ldw	r7,8(r8)
  800b88:	3a006d26 	beq	r7,r8,800d40 <_malloc_r+0x604>
  800b8c:	38800117 	ldw	r2,4(r7)
  800b90:	013fff04 	movi	r4,-4
  800b94:	1104703a 	and	r2,r2,r4
  800b98:	1880052e 	bgeu	r3,r2,800bb0 <_malloc_r+0x474>
  800b9c:	39c00217 	ldw	r7,8(r7)
  800ba0:	3a000326 	beq	r7,r8,800bb0 <_malloc_r+0x474>
  800ba4:	38800117 	ldw	r2,4(r7)
  800ba8:	1104703a 	and	r2,r2,r4
  800bac:	18bffb36 	bltu	r3,r2,800b9c <_malloc_r+0x460>
  800bb0:	3a000317 	ldw	r8,12(r7)
  800bb4:	82000315 	stw	r8,12(r16)
  800bb8:	81c00215 	stw	r7,8(r16)
  800bbc:	3c000315 	stw	r16,12(r7)
  800bc0:	44000215 	stw	r16,8(r8)
  800bc4:	003f5f06 	br	800944 <_malloc_r+0x208>
  800bc8:	82000317 	ldw	r8,12(r16)
  800bcc:	81c00217 	ldw	r7,8(r16)
  800bd0:	88800054 	ori	r2,r17,1
  800bd4:	844b883a 	add	r5,r16,r17
  800bd8:	41c00215 	stw	r7,8(r8)
  800bdc:	3a000315 	stw	r8,12(r7)
  800be0:	003f9e06 	br	800a5c <_malloc_r+0x320>
  800be4:	48c000c4 	addi	r3,r9,3
  800be8:	003f5806 	br	80094c <_malloc_r+0x210>
  800bec:	07002074 	movhi	fp,129
  800bf0:	e7018804 	addi	fp,fp,1568
  800bf4:	e0800017 	ldw	r2,0(fp)
  800bf8:	1505883a 	add	r2,r2,r20
  800bfc:	e0800015 	stw	r2,0(fp)
  800c00:	84c05826 	beq	r16,r19,800d64 <_malloc_r+0x628>
  800c04:	d0e00717 	ldw	r3,-32740(gp)
  800c08:	00bfffc4 	movi	r2,-1
  800c0c:	18805326 	beq	r3,r2,800d5c <_malloc_r+0x620>
  800c10:	e0800017 	ldw	r2,0(fp)
  800c14:	84c7c83a 	sub	r3,r16,r19
  800c18:	10c5883a 	add	r2,r2,r3
  800c1c:	e0800015 	stw	r2,0(fp)
  800c20:	80c001cc 	andi	r3,r16,7
  800c24:	0027883a 	mov	r19,zero
  800c28:	18000326 	beq	r3,zero,800c38 <_malloc_r+0x4fc>
  800c2c:	00800204 	movi	r2,8
  800c30:	10e7c83a 	sub	r19,r2,r3
  800c34:	84e1883a 	add	r16,r16,r19
  800c38:	8505883a 	add	r2,r16,r20
  800c3c:	1083ffcc 	andi	r2,r2,4095
  800c40:	00c40004 	movi	r3,4096
  800c44:	1887c83a 	sub	r3,r3,r2
  800c48:	98e7883a 	add	r19,r19,r3
  800c4c:	9009883a 	mov	r4,r18
  800c50:	980b883a 	mov	r5,r19
  800c54:	db400015 	stw	r13,0(sp)
  800c58:	0800e280 	call	800e28 <_sbrk_r>
  800c5c:	1007883a 	mov	r3,r2
  800c60:	00bfffc4 	movi	r2,-1
  800c64:	db400017 	ldw	r13,0(sp)
  800c68:	18804e26 	beq	r3,r2,800da4 <_malloc_r+0x668>
  800c6c:	e0800017 	ldw	r2,0(fp)
  800c70:	1c07c83a 	sub	r3,r3,r16
  800c74:	1cc9883a 	add	r4,r3,r19
  800c78:	14c5883a 	add	r2,r2,r19
  800c7c:	e0800015 	stw	r2,0(fp)
  800c80:	6c000215 	stw	r16,8(r13)
  800c84:	20800054 	ori	r2,r4,1
  800c88:	ab404426 	beq	r21,r13,800d9c <_malloc_r+0x660>
  800c8c:	014003c4 	movi	r5,15
  800c90:	2d801636 	bltu	r5,r22,800cec <_malloc_r+0x5b0>
  800c94:	00800044 	movi	r2,1
  800c98:	80800115 	stw	r2,4(r16)
  800c9c:	003f9806 	br	800b00 <_malloc_r+0x3c4>
  800ca0:	00805504 	movi	r2,340
  800ca4:	10c00336 	bltu	r2,r3,800cb4 <_malloc_r+0x578>
  800ca8:	8804d3fa 	srli	r2,r17,15
  800cac:	12401dc4 	addi	r9,r2,119
  800cb0:	003ee806 	br	800854 <_malloc_r+0x118>
  800cb4:	00815504 	movi	r2,1364
  800cb8:	02401f84 	movi	r9,126
  800cbc:	10fee536 	bltu	r2,r3,800854 <_malloc_r+0x118>
  800cc0:	8804d4ba 	srli	r2,r17,18
  800cc4:	12401f04 	addi	r9,r2,124
  800cc8:	003ee206 	br	800854 <_malloc_r+0x118>
  800ccc:	00800504 	movi	r2,20
  800cd0:	290016c4 	addi	r4,r5,91
  800cd4:	117fa72e 	bgeu	r2,r5,800b74 <_malloc_r+0x438>
  800cd8:	00801504 	movi	r2,84
  800cdc:	11403a36 	bltu	r2,r5,800dc8 <_malloc_r+0x68c>
  800ce0:	1804d33a 	srli	r2,r3,12
  800ce4:	11001b84 	addi	r4,r2,110
  800ce8:	003fa206 	br	800b74 <_malloc_r+0x438>
  800cec:	80800115 	stw	r2,4(r16)
  800cf0:	a8800117 	ldw	r2,4(r21)
  800cf4:	00fffe04 	movi	r3,-8
  800cf8:	b13ffd04 	addi	r4,r22,-12
  800cfc:	20ee703a 	and	r23,r4,r3
  800d00:	1080004c 	andi	r2,r2,1
  800d04:	15c4b03a 	or	r2,r2,r23
  800d08:	a8800115 	stw	r2,4(r21)
  800d0c:	adc7883a 	add	r3,r21,r23
  800d10:	00800144 	movi	r2,5
  800d14:	18800215 	stw	r2,8(r3)
  800d18:	18800115 	stw	r2,4(r3)
  800d1c:	2dc02436 	bltu	r5,r23,800db0 <_malloc_r+0x674>
  800d20:	e0c00017 	ldw	r3,0(fp)
  800d24:	d0a00617 	ldw	r2,-32744(gp)
  800d28:	10c0012e 	bgeu	r2,r3,800d30 <_malloc_r+0x5f4>
  800d2c:	d0e00615 	stw	r3,-32744(gp)
  800d30:	d0a00517 	ldw	r2,-32748(gp)
  800d34:	10ff722e 	bgeu	r2,r3,800b00 <_malloc_r+0x3c4>
  800d38:	d0e00515 	stw	r3,-32748(gp)
  800d3c:	003f7006 	br	800b00 <_malloc_r+0x3c4>
  800d40:	2005d0ba 	srai	r2,r4,2
  800d44:	00c00044 	movi	r3,1
  800d48:	29000117 	ldw	r4,4(r5)
  800d4c:	1886983a 	sll	r3,r3,r2
  800d50:	20c8b03a 	or	r4,r4,r3
  800d54:	29000115 	stw	r4,4(r5)
  800d58:	003f9606 	br	800bb4 <_malloc_r+0x478>
  800d5c:	d4200715 	stw	r16,-32740(gp)
  800d60:	003faf06 	br	800c20 <_malloc_r+0x4e4>
  800d64:	8083ffcc 	andi	r2,r16,4095
  800d68:	103fa61e 	bne	r2,zero,800c04 <_malloc_r+0x4c8>
  800d6c:	00802074 	movhi	r2,129
  800d70:	10819204 	addi	r2,r2,1608
  800d74:	10c00217 	ldw	r3,8(r2)
  800d78:	a5c9883a 	add	r4,r20,r23
  800d7c:	20800054 	ori	r2,r4,1
  800d80:	18800115 	stw	r2,4(r3)
  800d84:	003fe606 	br	800d20 <_malloc_r+0x5e4>
  800d88:	68800117 	ldw	r2,4(r13)
  800d8c:	01c6303a 	nor	r3,zero,r7
  800d90:	10c4703a 	and	r2,r2,r3
  800d94:	68800115 	stw	r2,4(r13)
  800d98:	003f1806 	br	8009fc <_malloc_r+0x2c0>
  800d9c:	80800115 	stw	r2,4(r16)
  800da0:	003fdf06 	br	800d20 <_malloc_r+0x5e4>
  800da4:	0027883a 	mov	r19,zero
  800da8:	8007883a 	mov	r3,r16
  800dac:	003faf06 	br	800c6c <_malloc_r+0x530>
  800db0:	a9400204 	addi	r5,r21,8
  800db4:	9009883a 	mov	r4,r18
  800db8:	db400015 	stw	r13,0(sp)
  800dbc:	0804c500 	call	804c50 <_free_r>
  800dc0:	db400017 	ldw	r13,0(sp)
  800dc4:	003fd606 	br	800d20 <_malloc_r+0x5e4>
  800dc8:	00805504 	movi	r2,340
  800dcc:	11400336 	bltu	r2,r5,800ddc <_malloc_r+0x6a0>
  800dd0:	1804d3fa 	srli	r2,r3,15
  800dd4:	11001dc4 	addi	r4,r2,119
  800dd8:	003f6606 	br	800b74 <_malloc_r+0x438>
  800ddc:	00815504 	movi	r2,1364
  800de0:	01001f84 	movi	r4,126
  800de4:	117f6336 	bltu	r2,r5,800b74 <_malloc_r+0x438>
  800de8:	1804d4ba 	srli	r2,r3,18
  800dec:	11001f04 	addi	r4,r2,124
  800df0:	003f6006 	br	800b74 <_malloc_r+0x438>

00800df4 <printf>:
  800df4:	defffc04 	addi	sp,sp,-16
  800df8:	dfc00015 	stw	ra,0(sp)
  800dfc:	d9400115 	stw	r5,4(sp)
  800e00:	d9800215 	stw	r6,8(sp)
  800e04:	d9c00315 	stw	r7,12(sp)
  800e08:	d0a00a17 	ldw	r2,-32728(gp)
  800e0c:	200b883a 	mov	r5,r4
  800e10:	d9800104 	addi	r6,sp,4
  800e14:	11000217 	ldw	r4,8(r2)
  800e18:	0802b440 	call	802b44 <__vfprintf_internal>
  800e1c:	dfc00017 	ldw	ra,0(sp)
  800e20:	dec00404 	addi	sp,sp,16
  800e24:	f800283a 	ret

00800e28 <_sbrk_r>:
  800e28:	defffe04 	addi	sp,sp,-8
  800e2c:	dc000015 	stw	r16,0(sp)
  800e30:	2021883a 	mov	r16,r4
  800e34:	2809883a 	mov	r4,r5
  800e38:	dfc00115 	stw	ra,4(sp)
  800e3c:	d0203015 	stw	zero,-32576(gp)
  800e40:	0809ca00 	call	809ca0 <sbrk>
  800e44:	1007883a 	mov	r3,r2
  800e48:	00bfffc4 	movi	r2,-1
  800e4c:	18800526 	beq	r3,r2,800e64 <_sbrk_r+0x3c>
  800e50:	1805883a 	mov	r2,r3
  800e54:	dfc00117 	ldw	ra,4(sp)
  800e58:	dc000017 	ldw	r16,0(sp)
  800e5c:	dec00204 	addi	sp,sp,8
  800e60:	f800283a 	ret
  800e64:	d0a03017 	ldw	r2,-32576(gp)
  800e68:	103ff926 	beq	r2,zero,800e50 <_sbrk_r+0x28>
  800e6c:	80800015 	stw	r2,0(r16)
  800e70:	003ff706 	br	800e50 <_sbrk_r+0x28>

00800e74 <__sprint>:
  800e74:	defffe04 	addi	sp,sp,-8
  800e78:	dc000015 	stw	r16,0(sp)
  800e7c:	dfc00115 	stw	ra,4(sp)
  800e80:	28800217 	ldw	r2,8(r5)
  800e84:	2821883a 	mov	r16,r5
  800e88:	0007883a 	mov	r3,zero
  800e8c:	1000061e 	bne	r2,zero,800ea8 <__sprint+0x34>
  800e90:	1805883a 	mov	r2,r3
  800e94:	28000115 	stw	zero,4(r5)
  800e98:	dfc00117 	ldw	ra,4(sp)
  800e9c:	dc000017 	ldw	r16,0(sp)
  800ea0:	dec00204 	addi	sp,sp,8
  800ea4:	f800283a 	ret
  800ea8:	0804f080 	call	804f08 <__sfvwrite>
  800eac:	1007883a 	mov	r3,r2
  800eb0:	1805883a 	mov	r2,r3
  800eb4:	80000115 	stw	zero,4(r16)
  800eb8:	80000215 	stw	zero,8(r16)
  800ebc:	dfc00117 	ldw	ra,4(sp)
  800ec0:	dc000017 	ldw	r16,0(sp)
  800ec4:	dec00204 	addi	sp,sp,8
  800ec8:	f800283a 	ret

00800ecc <___vfprintf_internal_r>:
  800ecc:	defe4a04 	addi	sp,sp,-1752
  800ed0:	dc01b315 	stw	r16,1740(sp)
  800ed4:	d9419e15 	stw	r5,1656(sp)
  800ed8:	d9019d15 	stw	r4,1652(sp)
  800edc:	dfc1b515 	stw	ra,1748(sp)
  800ee0:	df01b415 	stw	fp,1744(sp)
  800ee4:	dc41b215 	stw	r17,1736(sp)
  800ee8:	dc81b115 	stw	r18,1732(sp)
  800eec:	dcc1b015 	stw	r19,1728(sp)
  800ef0:	dd01af15 	stw	r20,1724(sp)
  800ef4:	dd41ae15 	stw	r21,1720(sp)
  800ef8:	dd81ad15 	stw	r22,1716(sp)
  800efc:	ddc1ac15 	stw	r23,1712(sp)
  800f00:	3021883a 	mov	r16,r6
  800f04:	d9c19f15 	stw	r7,1660(sp)
  800f08:	08054180 	call	805418 <localeconv>
  800f0c:	d8c19e17 	ldw	r3,1656(sp)
  800f10:	10800017 	ldw	r2,0(r2)
  800f14:	000b883a 	mov	r5,zero
  800f18:	1900030b 	ldhu	r4,12(r3)
  800f1c:	d881a315 	stw	r2,1676(sp)
  800f20:	d941a415 	stw	r5,1680(sp)
  800f24:	2080020c 	andi	r2,r4,8
  800f28:	d941a515 	stw	r5,1684(sp)
  800f2c:	d801a615 	stw	zero,1688(sp)
  800f30:	d801a915 	stw	zero,1700(sp)
  800f34:	d801aa15 	stw	zero,1704(sp)
  800f38:	10004226 	beq	r2,zero,801044 <___vfprintf_internal_r+0x178>
  800f3c:	18800417 	ldw	r2,16(r3)
  800f40:	10004026 	beq	r2,zero,801044 <___vfprintf_internal_r+0x178>
  800f44:	20c0068c 	andi	r3,r4,26
  800f48:	00800284 	movi	r2,10
  800f4c:	18804626 	beq	r3,r2,801068 <___vfprintf_internal_r+0x19c>
  800f50:	dc800904 	addi	r18,sp,36
  800f54:	802d883a 	mov	r22,r16
  800f58:	dc800615 	stw	r18,24(sp)
  800f5c:	d8000815 	stw	zero,32(sp)
  800f60:	d8000715 	stw	zero,28(sp)
  800f64:	d801a115 	stw	zero,1668(sp)
  800f68:	b1000003 	ldbu	r4,0(r22)
  800f6c:	b027883a 	mov	r19,r22
  800f70:	20803fcc 	andi	r2,r4,255
  800f74:	1080201c 	xori	r2,r2,128
  800f78:	10bfe004 	addi	r2,r2,-128
  800f7c:	10000826 	beq	r2,zero,800fa0 <___vfprintf_internal_r+0xd4>
  800f80:	00c00944 	movi	r3,37
  800f84:	10c00626 	beq	r2,r3,800fa0 <___vfprintf_internal_r+0xd4>
  800f88:	b5800044 	addi	r22,r22,1
  800f8c:	b1000003 	ldbu	r4,0(r22)
  800f90:	20803fcc 	andi	r2,r4,255
  800f94:	1080201c 	xori	r2,r2,128
  800f98:	10bfe004 	addi	r2,r2,-128
  800f9c:	103ff91e 	bne	r2,zero,800f84 <___vfprintf_internal_r+0xb8>
  800fa0:	b4e3c83a 	sub	r17,r22,r19
  800fa4:	88000f26 	beq	r17,zero,800fe4 <___vfprintf_internal_r+0x118>
  800fa8:	d8800817 	ldw	r2,32(sp)
  800fac:	d8c00717 	ldw	r3,28(sp)
  800fb0:	94c00015 	stw	r19,0(r18)
  800fb4:	1445883a 	add	r2,r2,r17
  800fb8:	18c00044 	addi	r3,r3,1
  800fbc:	d8800815 	stw	r2,32(sp)
  800fc0:	008001c4 	movi	r2,7
  800fc4:	94400115 	stw	r17,4(r18)
  800fc8:	d8c00715 	stw	r3,28(sp)
  800fcc:	94800204 	addi	r18,r18,8
  800fd0:	10c05a16 	blt	r2,r3,80113c <___vfprintf_internal_r+0x270>
  800fd4:	d8c1a117 	ldw	r3,1668(sp)
  800fd8:	b1000003 	ldbu	r4,0(r22)
  800fdc:	1c47883a 	add	r3,r3,r17
  800fe0:	d8c1a115 	stw	r3,1668(sp)
  800fe4:	20803fcc 	andi	r2,r4,255
  800fe8:	1080201c 	xori	r2,r2,128
  800fec:	10bfe004 	addi	r2,r2,-128
  800ff0:	10036d26 	beq	r2,zero,801da8 <___vfprintf_internal_r+0xedc>
  800ff4:	b5800044 	addi	r22,r22,1
  800ff8:	b1000003 	ldbu	r4,0(r22)
  800ffc:	053fffc4 	movi	r20,-1
  801000:	d801a015 	stw	zero,1664(sp)
  801004:	d801a715 	stw	zero,1692(sp)
  801008:	d801a215 	stw	zero,1672(sp)
  80100c:	d8019c05 	stb	zero,1648(sp)
  801010:	27003fcc 	andi	fp,r4,255
  801014:	e700201c 	xori	fp,fp,128
  801018:	e73fe004 	addi	fp,fp,-128
  80101c:	b5800044 	addi	r22,r22,1
  801020:	e0fff804 	addi	r3,fp,-32
  801024:	00801604 	movi	r2,88
  801028:	10c19c36 	bltu	r2,r3,80169c <___vfprintf_internal_r+0x7d0>
  80102c:	180490ba 	slli	r2,r3,2
  801030:	00c02074 	movhi	r3,129
  801034:	18c04b04 	addi	r3,r3,300
  801038:	10c5883a 	add	r2,r2,r3
  80103c:	11000017 	ldw	r4,0(r2)
  801040:	2000683a 	jmp	r4
  801044:	d9019e17 	ldw	r4,1656(sp)
  801048:	08032080 	call	803208 <__swsetup>
  80104c:	00ffffc4 	movi	r3,-1
  801050:	10002d1e 	bne	r2,zero,801108 <___vfprintf_internal_r+0x23c>
  801054:	d9c19e17 	ldw	r7,1656(sp)
  801058:	00800284 	movi	r2,10
  80105c:	3900030b 	ldhu	r4,12(r7)
  801060:	20c0068c 	andi	r3,r4,26
  801064:	18bfba1e 	bne	r3,r2,800f50 <___vfprintf_internal_r+0x84>
  801068:	d8819e17 	ldw	r2,1656(sp)
  80106c:	1280038b 	ldhu	r10,14(r2)
  801070:	50bfffcc 	andi	r2,r10,65535
  801074:	10a0001c 	xori	r2,r2,32768
  801078:	10a00004 	addi	r2,r2,-32768
  80107c:	103fb416 	blt	r2,zero,800f50 <___vfprintf_internal_r+0x84>
  801080:	d8c19e17 	ldw	r3,1656(sp)
  801084:	d9819f17 	ldw	r6,1660(sp)
  801088:	dc407104 	addi	r17,sp,452
  80108c:	1a000717 	ldw	r8,28(r3)
  801090:	1a400917 	ldw	r9,36(r3)
  801094:	20bfff4c 	andi	r2,r4,65533
  801098:	d8c08804 	addi	r3,sp,544
  80109c:	01c10004 	movi	r7,1024
  8010a0:	800b883a 	mov	r5,r16
  8010a4:	8809883a 	mov	r4,r17
  8010a8:	d880740d 	sth	r2,464(sp)
  8010ac:	da80748d 	sth	r10,466(sp)
  8010b0:	da007815 	stw	r8,480(sp)
  8010b4:	da407a15 	stw	r9,488(sp)
  8010b8:	d8c07515 	stw	r3,468(sp)
  8010bc:	d9c07615 	stw	r7,472(sp)
  8010c0:	d8c07115 	stw	r3,452(sp)
  8010c4:	d9c07315 	stw	r7,460(sp)
  8010c8:	d8007715 	stw	zero,476(sp)
  8010cc:	0802b440 	call	802b44 <__vfprintf_internal>
  8010d0:	1021883a 	mov	r16,r2
  8010d4:	10000416 	blt	r2,zero,8010e8 <___vfprintf_internal_r+0x21c>
  8010d8:	8809883a 	mov	r4,r17
  8010dc:	080492c0 	call	80492c <fflush>
  8010e0:	10000126 	beq	r2,zero,8010e8 <___vfprintf_internal_r+0x21c>
  8010e4:	043fffc4 	movi	r16,-1
  8010e8:	d880740b 	ldhu	r2,464(sp)
  8010ec:	1080100c 	andi	r2,r2,64
  8010f0:	10000426 	beq	r2,zero,801104 <___vfprintf_internal_r+0x238>
  8010f4:	d9019e17 	ldw	r4,1656(sp)
  8010f8:	2080030b 	ldhu	r2,12(r4)
  8010fc:	10801014 	ori	r2,r2,64
  801100:	2080030d 	sth	r2,12(r4)
  801104:	8007883a 	mov	r3,r16
  801108:	1805883a 	mov	r2,r3
  80110c:	dfc1b517 	ldw	ra,1748(sp)
  801110:	df01b417 	ldw	fp,1744(sp)
  801114:	dc01b317 	ldw	r16,1740(sp)
  801118:	dc41b217 	ldw	r17,1736(sp)
  80111c:	dc81b117 	ldw	r18,1732(sp)
  801120:	dcc1b017 	ldw	r19,1728(sp)
  801124:	dd01af17 	ldw	r20,1724(sp)
  801128:	dd41ae17 	ldw	r21,1720(sp)
  80112c:	dd81ad17 	ldw	r22,1716(sp)
  801130:	ddc1ac17 	ldw	r23,1712(sp)
  801134:	dec1b604 	addi	sp,sp,1752
  801138:	f800283a 	ret
  80113c:	d9019e17 	ldw	r4,1656(sp)
  801140:	d9c00404 	addi	r7,sp,16
  801144:	39400204 	addi	r5,r7,8
  801148:	0800e740 	call	800e74 <__sprint>
  80114c:	10031e1e 	bne	r2,zero,801dc8 <___vfprintf_internal_r+0xefc>
  801150:	d8800404 	addi	r2,sp,16
  801154:	14800504 	addi	r18,r2,20
  801158:	003f9e06 	br	800fd4 <___vfprintf_internal_r+0x108>
  80115c:	d901a017 	ldw	r4,1664(sp)
  801160:	21000414 	ori	r4,r4,16
  801164:	d901a015 	stw	r4,1664(sp)
  801168:	d941a017 	ldw	r5,1664(sp)
  80116c:	2880080c 	andi	r2,r5,32
  801170:	10042226 	beq	r2,zero,8021fc <___vfprintf_internal_r+0x1330>
  801174:	d8819f17 	ldw	r2,1660(sp)
  801178:	00c00044 	movi	r3,1
  80117c:	14000017 	ldw	r16,0(r2)
  801180:	14400117 	ldw	r17,4(r2)
  801184:	11c00204 	addi	r7,r2,8
  801188:	d9c19f15 	stw	r7,1660(sp)
  80118c:	d8019c05 	stb	zero,1648(sp)
  801190:	dd01a715 	stw	r20,1692(sp)
  801194:	a0000416 	blt	r20,zero,8011a8 <___vfprintf_internal_r+0x2dc>
  801198:	d941a017 	ldw	r5,1664(sp)
  80119c:	00bfdfc4 	movi	r2,-129
  8011a0:	288a703a 	and	r5,r5,r2
  8011a4:	d941a015 	stw	r5,1664(sp)
  8011a8:	d9c00404 	addi	r7,sp,16
  8011ac:	8444b03a 	or	r2,r16,r17
  8011b0:	3cc06c04 	addi	r19,r7,432
  8011b4:	1000021e 	bne	r2,zero,8011c0 <___vfprintf_internal_r+0x2f4>
  8011b8:	d881a717 	ldw	r2,1692(sp)
  8011bc:	10036426 	beq	r2,zero,801f50 <___vfprintf_internal_r+0x1084>
  8011c0:	18c03fcc 	andi	r3,r3,255
  8011c4:	00800044 	movi	r2,1
  8011c8:	1880ec26 	beq	r3,r2,80157c <___vfprintf_internal_r+0x6b0>
  8011cc:	10c34f16 	blt	r2,r3,801f0c <___vfprintf_internal_r+0x1040>
  8011d0:	1800f626 	beq	r3,zero,8015ac <___vfprintf_internal_r+0x6e0>
  8011d4:	04c02074 	movhi	r19,129
  8011d8:	9cc0a404 	addi	r19,r19,656
  8011dc:	9809883a 	mov	r4,r19
  8011e0:	08070040 	call	807004 <strlen>
  8011e4:	102f883a 	mov	r23,r2
  8011e8:	d881a717 	ldw	r2,1692(sp)
  8011ec:	ddc1a815 	stw	r23,1696(sp)
  8011f0:	b880010e 	bge	r23,r2,8011f8 <___vfprintf_internal_r+0x32c>
  8011f4:	d881a815 	stw	r2,1696(sp)
  8011f8:	d8c19c03 	ldbu	r3,1648(sp)
  8011fc:	18023c26 	beq	r3,zero,801af0 <___vfprintf_internal_r+0xc24>
  801200:	d901a817 	ldw	r4,1696(sp)
  801204:	21000044 	addi	r4,r4,1
  801208:	d901a815 	stw	r4,1696(sp)
  80120c:	d881a017 	ldw	r2,1664(sp)
  801210:	1080210c 	andi	r2,r2,132
  801214:	d881ab15 	stw	r2,1708(sp)
  801218:	10002e1e 	bne	r2,zero,8012d4 <___vfprintf_internal_r+0x408>
  80121c:	d941a217 	ldw	r5,1672(sp)
  801220:	d901a817 	ldw	r4,1696(sp)
  801224:	2921c83a 	sub	r16,r5,r4
  801228:	04002a0e 	bge	zero,r16,8012d4 <___vfprintf_internal_r+0x408>
  80122c:	04400404 	movi	r17,16
  801230:	8c001a0e 	bge	r17,r16,80129c <___vfprintf_internal_r+0x3d0>
  801234:	882b883a 	mov	r21,r17
  801238:	050001c4 	movi	r20,7
  80123c:	00000206 	br	801248 <___vfprintf_internal_r+0x37c>
  801240:	843ffc04 	addi	r16,r16,-16
  801244:	ac00150e 	bge	r21,r16,80129c <___vfprintf_internal_r+0x3d0>
  801248:	d8800817 	ldw	r2,32(sp)
  80124c:	d8c00717 	ldw	r3,28(sp)
  801250:	01c02074 	movhi	r7,129
  801254:	39c04304 	addi	r7,r7,268
  801258:	10800404 	addi	r2,r2,16
  80125c:	18c00044 	addi	r3,r3,1
  801260:	91c00015 	stw	r7,0(r18)
  801264:	94400115 	stw	r17,4(r18)
  801268:	d8800815 	stw	r2,32(sp)
  80126c:	d8c00715 	stw	r3,28(sp)
  801270:	94800204 	addi	r18,r18,8
  801274:	a0fff20e 	bge	r20,r3,801240 <___vfprintf_internal_r+0x374>
  801278:	d9019e17 	ldw	r4,1656(sp)
  80127c:	d8800404 	addi	r2,sp,16
  801280:	11400204 	addi	r5,r2,8
  801284:	0800e740 	call	800e74 <__sprint>
  801288:	1002cf1e 	bne	r2,zero,801dc8 <___vfprintf_internal_r+0xefc>
  80128c:	d8c00404 	addi	r3,sp,16
  801290:	843ffc04 	addi	r16,r16,-16
  801294:	1c800504 	addi	r18,r3,20
  801298:	ac3feb16 	blt	r21,r16,801248 <___vfprintf_internal_r+0x37c>
  80129c:	d8800817 	ldw	r2,32(sp)
  8012a0:	d8c00717 	ldw	r3,28(sp)
  8012a4:	01002074 	movhi	r4,129
  8012a8:	21004304 	addi	r4,r4,268
  8012ac:	1405883a 	add	r2,r2,r16
  8012b0:	18c00044 	addi	r3,r3,1
  8012b4:	d8800815 	stw	r2,32(sp)
  8012b8:	008001c4 	movi	r2,7
  8012bc:	91000015 	stw	r4,0(r18)
  8012c0:	94000115 	stw	r16,4(r18)
  8012c4:	d8c00715 	stw	r3,28(sp)
  8012c8:	94800204 	addi	r18,r18,8
  8012cc:	10c37c16 	blt	r2,r3,8020c0 <___vfprintf_internal_r+0x11f4>
  8012d0:	d8c19c03 	ldbu	r3,1648(sp)
  8012d4:	18803fcc 	andi	r2,r3,255
  8012d8:	1080201c 	xori	r2,r2,128
  8012dc:	10bfe004 	addi	r2,r2,-128
  8012e0:	10020a26 	beq	r2,zero,801b0c <___vfprintf_internal_r+0xc40>
  8012e4:	d9000817 	ldw	r4,32(sp)
  8012e8:	d9400717 	ldw	r5,28(sp)
  8012ec:	d8819c04 	addi	r2,sp,1648
  8012f0:	90800015 	stw	r2,0(r18)
  8012f4:	21000044 	addi	r4,r4,1
  8012f8:	29400044 	addi	r5,r5,1
  8012fc:	00c00044 	movi	r3,1
  801300:	008001c4 	movi	r2,7
  801304:	90c00115 	stw	r3,4(r18)
  801308:	d9000815 	stw	r4,32(sp)
  80130c:	94800204 	addi	r18,r18,8
  801310:	d9400715 	stw	r5,28(sp)
  801314:	11431716 	blt	r2,r5,801f74 <___vfprintf_internal_r+0x10a8>
  801318:	d8c1ab17 	ldw	r3,1708(sp)
  80131c:	00802004 	movi	r2,128
  801320:	18821726 	beq	r3,r2,801b80 <___vfprintf_internal_r+0xcb4>
  801324:	d8c1a717 	ldw	r3,1692(sp)
  801328:	1de1c83a 	sub	r16,r3,r23
  80132c:	0400300e 	bge	zero,r16,8013f0 <___vfprintf_internal_r+0x524>
  801330:	04400404 	movi	r17,16
  801334:	8c001a0e 	bge	r17,r16,8013a0 <___vfprintf_internal_r+0x4d4>
  801338:	882b883a 	mov	r21,r17
  80133c:	050001c4 	movi	r20,7
  801340:	00000206 	br	80134c <___vfprintf_internal_r+0x480>
  801344:	843ffc04 	addi	r16,r16,-16
  801348:	ac00150e 	bge	r21,r16,8013a0 <___vfprintf_internal_r+0x4d4>
  80134c:	d8800817 	ldw	r2,32(sp)
  801350:	d8c00717 	ldw	r3,28(sp)
  801354:	01002074 	movhi	r4,129
  801358:	21004704 	addi	r4,r4,284
  80135c:	10800404 	addi	r2,r2,16
  801360:	18c00044 	addi	r3,r3,1
  801364:	91000015 	stw	r4,0(r18)
  801368:	94400115 	stw	r17,4(r18)
  80136c:	d8800815 	stw	r2,32(sp)
  801370:	d8c00715 	stw	r3,28(sp)
  801374:	94800204 	addi	r18,r18,8
  801378:	a0fff20e 	bge	r20,r3,801344 <___vfprintf_internal_r+0x478>
  80137c:	d9019e17 	ldw	r4,1656(sp)
  801380:	d9c00404 	addi	r7,sp,16
  801384:	39400204 	addi	r5,r7,8
  801388:	0800e740 	call	800e74 <__sprint>
  80138c:	10028e1e 	bne	r2,zero,801dc8 <___vfprintf_internal_r+0xefc>
  801390:	d8800404 	addi	r2,sp,16
  801394:	843ffc04 	addi	r16,r16,-16
  801398:	14800504 	addi	r18,r2,20
  80139c:	ac3feb16 	blt	r21,r16,80134c <___vfprintf_internal_r+0x480>
  8013a0:	d8800817 	ldw	r2,32(sp)
  8013a4:	d8c00717 	ldw	r3,28(sp)
  8013a8:	01002074 	movhi	r4,129
  8013ac:	21004704 	addi	r4,r4,284
  8013b0:	1405883a 	add	r2,r2,r16
  8013b4:	18c00044 	addi	r3,r3,1
  8013b8:	d8800815 	stw	r2,32(sp)
  8013bc:	008001c4 	movi	r2,7
  8013c0:	91000015 	stw	r4,0(r18)
  8013c4:	94000115 	stw	r16,4(r18)
  8013c8:	d8c00715 	stw	r3,28(sp)
  8013cc:	94800204 	addi	r18,r18,8
  8013d0:	10c0070e 	bge	r2,r3,8013f0 <___vfprintf_internal_r+0x524>
  8013d4:	d9019e17 	ldw	r4,1656(sp)
  8013d8:	d9c00404 	addi	r7,sp,16
  8013dc:	39400204 	addi	r5,r7,8
  8013e0:	0800e740 	call	800e74 <__sprint>
  8013e4:	1002781e 	bne	r2,zero,801dc8 <___vfprintf_internal_r+0xefc>
  8013e8:	d8800404 	addi	r2,sp,16
  8013ec:	14800504 	addi	r18,r2,20
  8013f0:	d8c1a017 	ldw	r3,1664(sp)
  8013f4:	1880400c 	andi	r2,r3,256
  8013f8:	1002161e 	bne	r2,zero,801c54 <___vfprintf_internal_r+0xd88>
  8013fc:	d8800817 	ldw	r2,32(sp)
  801400:	d8c00717 	ldw	r3,28(sp)
  801404:	94c00015 	stw	r19,0(r18)
  801408:	15c5883a 	add	r2,r2,r23
  80140c:	18c00044 	addi	r3,r3,1
  801410:	d8800815 	stw	r2,32(sp)
  801414:	008001c4 	movi	r2,7
  801418:	95c00115 	stw	r23,4(r18)
  80141c:	d8c00715 	stw	r3,28(sp)
  801420:	94800204 	addi	r18,r18,8
  801424:	10c25d16 	blt	r2,r3,801d9c <___vfprintf_internal_r+0xed0>
  801428:	d8c1a017 	ldw	r3,1664(sp)
  80142c:	1880010c 	andi	r2,r3,4
  801430:	10003126 	beq	r2,zero,8014f8 <___vfprintf_internal_r+0x62c>
  801434:	d941a217 	ldw	r5,1672(sp)
  801438:	d901a817 	ldw	r4,1696(sp)
  80143c:	2921c83a 	sub	r16,r5,r4
  801440:	04002d0e 	bge	zero,r16,8014f8 <___vfprintf_internal_r+0x62c>
  801444:	04400404 	movi	r17,16
  801448:	8c001a0e 	bge	r17,r16,8014b4 <___vfprintf_internal_r+0x5e8>
  80144c:	8829883a 	mov	r20,r17
  801450:	04c001c4 	movi	r19,7
  801454:	00000206 	br	801460 <___vfprintf_internal_r+0x594>
  801458:	843ffc04 	addi	r16,r16,-16
  80145c:	a400150e 	bge	r20,r16,8014b4 <___vfprintf_internal_r+0x5e8>
  801460:	d8800817 	ldw	r2,32(sp)
  801464:	d8c00717 	ldw	r3,28(sp)
  801468:	01c02074 	movhi	r7,129
  80146c:	39c04304 	addi	r7,r7,268
  801470:	10800404 	addi	r2,r2,16
  801474:	18c00044 	addi	r3,r3,1
  801478:	91c00015 	stw	r7,0(r18)
  80147c:	94400115 	stw	r17,4(r18)
  801480:	d8800815 	stw	r2,32(sp)
  801484:	d8c00715 	stw	r3,28(sp)
  801488:	94800204 	addi	r18,r18,8
  80148c:	98fff20e 	bge	r19,r3,801458 <___vfprintf_internal_r+0x58c>
  801490:	d9019e17 	ldw	r4,1656(sp)
  801494:	d8800404 	addi	r2,sp,16
  801498:	11400204 	addi	r5,r2,8
  80149c:	0800e740 	call	800e74 <__sprint>
  8014a0:	1002491e 	bne	r2,zero,801dc8 <___vfprintf_internal_r+0xefc>
  8014a4:	d8c00404 	addi	r3,sp,16
  8014a8:	843ffc04 	addi	r16,r16,-16
  8014ac:	1c800504 	addi	r18,r3,20
  8014b0:	a43feb16 	blt	r20,r16,801460 <___vfprintf_internal_r+0x594>
  8014b4:	d8800817 	ldw	r2,32(sp)
  8014b8:	d8c00717 	ldw	r3,28(sp)
  8014bc:	01002074 	movhi	r4,129
  8014c0:	21004304 	addi	r4,r4,268
  8014c4:	1405883a 	add	r2,r2,r16
  8014c8:	18c00044 	addi	r3,r3,1
  8014cc:	d8800815 	stw	r2,32(sp)
  8014d0:	008001c4 	movi	r2,7
  8014d4:	91000015 	stw	r4,0(r18)
  8014d8:	94000115 	stw	r16,4(r18)
  8014dc:	d8c00715 	stw	r3,28(sp)
  8014e0:	10c0050e 	bge	r2,r3,8014f8 <___vfprintf_internal_r+0x62c>
  8014e4:	d9019e17 	ldw	r4,1656(sp)
  8014e8:	d9c00404 	addi	r7,sp,16
  8014ec:	39400204 	addi	r5,r7,8
  8014f0:	0800e740 	call	800e74 <__sprint>
  8014f4:	1002341e 	bne	r2,zero,801dc8 <___vfprintf_internal_r+0xefc>
  8014f8:	d881a817 	ldw	r2,1696(sp)
  8014fc:	d8c1a217 	ldw	r3,1672(sp)
  801500:	10c0010e 	bge	r2,r3,801508 <___vfprintf_internal_r+0x63c>
  801504:	1805883a 	mov	r2,r3
  801508:	d901a117 	ldw	r4,1668(sp)
  80150c:	2089883a 	add	r4,r4,r2
  801510:	d8800817 	ldw	r2,32(sp)
  801514:	d901a115 	stw	r4,1668(sp)
  801518:	1002361e 	bne	r2,zero,801df4 <___vfprintf_internal_r+0xf28>
  80151c:	d8c1aa17 	ldw	r3,1704(sp)
  801520:	d8800404 	addi	r2,sp,16
  801524:	d8000715 	stw	zero,28(sp)
  801528:	14800504 	addi	r18,r2,20
  80152c:	183e8e26 	beq	r3,zero,800f68 <___vfprintf_internal_r+0x9c>
  801530:	1809883a 	mov	r4,r3
  801534:	08007280 	call	800728 <free>
  801538:	d801aa15 	stw	zero,1704(sp)
  80153c:	003e8a06 	br	800f68 <___vfprintf_internal_r+0x9c>
  801540:	8009883a 	mov	r4,r16
  801544:	880b883a 	mov	r5,r17
  801548:	01800284 	movi	r6,10
  80154c:	000f883a 	mov	r7,zero
  801550:	080791c0 	call	80791c <__umoddi3>
  801554:	11000c04 	addi	r4,r2,48
  801558:	9cffffc4 	addi	r19,r19,-1
  80155c:	99000005 	stb	r4,0(r19)
  801560:	880b883a 	mov	r5,r17
  801564:	8009883a 	mov	r4,r16
  801568:	01800284 	movi	r6,10
  80156c:	000f883a 	mov	r7,zero
  801570:	080732c0 	call	80732c <__udivdi3>
  801574:	1021883a 	mov	r16,r2
  801578:	1823883a 	mov	r17,r3
  80157c:	88800068 	cmpgeui	r2,r17,1
  801580:	103fef1e 	bne	r2,zero,801540 <___vfprintf_internal_r+0x674>
  801584:	8800021e 	bne	r17,zero,801590 <___vfprintf_internal_r+0x6c4>
  801588:	00800244 	movi	r2,9
  80158c:	143fec36 	bltu	r2,r16,801540 <___vfprintf_internal_r+0x674>
  801590:	9cffffc4 	addi	r19,r19,-1
  801594:	80800c04 	addi	r2,r16,48
  801598:	98800005 	stb	r2,0(r19)
  80159c:	d9400404 	addi	r5,sp,16
  8015a0:	2cc5c83a 	sub	r2,r5,r19
  8015a4:	15c06c04 	addi	r23,r2,432
  8015a8:	003f0f06 	br	8011e8 <___vfprintf_internal_r+0x31c>
  8015ac:	8008d0fa 	srli	r4,r16,3
  8015b0:	880a977a 	slli	r5,r17,29
  8015b4:	8806d0fa 	srli	r3,r17,3
  8015b8:	818001cc 	andi	r6,r16,7
  8015bc:	2904b03a 	or	r2,r5,r4
  8015c0:	9cffffc4 	addi	r19,r19,-1
  8015c4:	31800c04 	addi	r6,r6,48
  8015c8:	10c8b03a 	or	r4,r2,r3
  8015cc:	99800005 	stb	r6,0(r19)
  8015d0:	1021883a 	mov	r16,r2
  8015d4:	1823883a 	mov	r17,r3
  8015d8:	203ff41e 	bne	r4,zero,8015ac <___vfprintf_internal_r+0x6e0>
  8015dc:	d8c1a017 	ldw	r3,1664(sp)
  8015e0:	1880004c 	andi	r2,r3,1
  8015e4:	103fed26 	beq	r2,zero,80159c <___vfprintf_internal_r+0x6d0>
  8015e8:	00800c04 	movi	r2,48
  8015ec:	30bfeb26 	beq	r6,r2,80159c <___vfprintf_internal_r+0x6d0>
  8015f0:	9cffffc4 	addi	r19,r19,-1
  8015f4:	003fe806 	br	801598 <___vfprintf_internal_r+0x6cc>
  8015f8:	d881a017 	ldw	r2,1664(sp)
  8015fc:	10800414 	ori	r2,r2,16
  801600:	d881a015 	stw	r2,1664(sp)
  801604:	d8c1a017 	ldw	r3,1664(sp)
  801608:	1880080c 	andi	r2,r3,32
  80160c:	1002e626 	beq	r2,zero,8021a8 <___vfprintf_internal_r+0x12dc>
  801610:	d8819f17 	ldw	r2,1660(sp)
  801614:	0007883a 	mov	r3,zero
  801618:	14000017 	ldw	r16,0(r2)
  80161c:	14400117 	ldw	r17,4(r2)
  801620:	11000204 	addi	r4,r2,8
  801624:	d9019f15 	stw	r4,1660(sp)
  801628:	003ed806 	br	80118c <___vfprintf_internal_r+0x2c0>
  80162c:	d9c1a017 	ldw	r7,1664(sp)
  801630:	39c00414 	ori	r7,r7,16
  801634:	d9c1a015 	stw	r7,1664(sp)
  801638:	d8c1a017 	ldw	r3,1664(sp)
  80163c:	1880080c 	andi	r2,r3,32
  801640:	1002e326 	beq	r2,zero,8021d0 <___vfprintf_internal_r+0x1304>
  801644:	d8819f17 	ldw	r2,1660(sp)
  801648:	14400117 	ldw	r17,4(r2)
  80164c:	11000204 	addi	r4,r2,8
  801650:	14000017 	ldw	r16,0(r2)
  801654:	d9019f15 	stw	r4,1660(sp)
  801658:	88011716 	blt	r17,zero,801ab8 <___vfprintf_internal_r+0xbec>
  80165c:	00c00044 	movi	r3,1
  801660:	003ecb06 	br	801190 <___vfprintf_internal_r+0x2c4>
  801664:	d8819f17 	ldw	r2,1660(sp)
  801668:	d9c19f17 	ldw	r7,1660(sp)
  80166c:	10800017 	ldw	r2,0(r2)
  801670:	39c00104 	addi	r7,r7,4
  801674:	d9c19f15 	stw	r7,1660(sp)
  801678:	d881a215 	stw	r2,1672(sp)
  80167c:	10010c0e 	bge	r2,zero,801ab0 <___vfprintf_internal_r+0xbe4>
  801680:	0085c83a 	sub	r2,zero,r2
  801684:	d881a215 	stw	r2,1672(sp)
  801688:	d881a017 	ldw	r2,1664(sp)
  80168c:	b1000003 	ldbu	r4,0(r22)
  801690:	10800114 	ori	r2,r2,4
  801694:	d881a015 	stw	r2,1664(sp)
  801698:	003e5d06 	br	801010 <___vfprintf_internal_r+0x144>
  80169c:	e001c226 	beq	fp,zero,801da8 <___vfprintf_internal_r+0xedc>
  8016a0:	d9c00404 	addi	r7,sp,16
  8016a4:	3cc01504 	addi	r19,r7,84
  8016a8:	9f000005 	stb	fp,0(r19)
  8016ac:	05c00044 	movi	r23,1
  8016b0:	d8019c05 	stb	zero,1648(sp)
  8016b4:	003ecc06 	br	8011e8 <___vfprintf_internal_r+0x31c>
  8016b8:	d8819f17 	ldw	r2,1660(sp)
  8016bc:	14c00017 	ldw	r19,0(r2)
  8016c0:	11400104 	addi	r5,r2,4
  8016c4:	d8019c05 	stb	zero,1648(sp)
  8016c8:	d9419f15 	stw	r5,1660(sp)
  8016cc:	9803db26 	beq	r19,zero,80263c <___vfprintf_internal_r+0x1770>
  8016d0:	008014c4 	movi	r2,83
  8016d4:	e0800326 	beq	fp,r2,8016e4 <___vfprintf_internal_r+0x818>
  8016d8:	d9c1a017 	ldw	r7,1664(sp)
  8016dc:	3880040c 	andi	r2,r7,16
  8016e0:	10035826 	beq	r2,zero,802444 <___vfprintf_internal_r+0x1578>
  8016e4:	d9019904 	addi	r4,sp,1636
  8016e8:	000b883a 	mov	r5,zero
  8016ec:	01800204 	movi	r6,8
  8016f0:	dcc19b15 	stw	r19,1644(sp)
  8016f4:	0023883a 	mov	r17,zero
  8016f8:	002f883a 	mov	r23,zero
  8016fc:	08058000 	call	805800 <memset>
  801700:	a004c616 	blt	r20,zero,802a1c <___vfprintf_internal_r+0x1b50>
  801704:	057fffc4 	movi	r21,-1
  801708:	880490ba 	slli	r2,r17,2
  80170c:	d8c19b17 	ldw	r3,1644(sp)
  801710:	10c5883a 	add	r2,r2,r3
  801714:	11800017 	ldw	r6,0(r2)
  801718:	30000b26 	beq	r6,zero,801748 <___vfprintf_internal_r+0x87c>
  80171c:	d9019d17 	ldw	r4,1652(sp)
  801720:	d8800404 	addi	r2,sp,16
  801724:	11401504 	addi	r5,r2,84
  801728:	d9c19904 	addi	r7,sp,1636
  80172c:	0802bb00 	call	802bb0 <_wcrtomb_r>
  801730:	1541a526 	beq	r2,r21,801dc8 <___vfprintf_internal_r+0xefc>
  801734:	15c5883a 	add	r2,r2,r23
  801738:	a0800316 	blt	r20,r2,801748 <___vfprintf_internal_r+0x87c>
  80173c:	102f883a 	mov	r23,r2
  801740:	8c400044 	addi	r17,r17,1
  801744:	153ff01e 	bne	r2,r20,801708 <___vfprintf_internal_r+0x83c>
  801748:	b83ea726 	beq	r23,zero,8011e8 <___vfprintf_internal_r+0x31c>
  80174c:	d9019d17 	ldw	r4,1652(sp)
  801750:	b9400044 	addi	r5,r23,1
  801754:	080073c0 	call	80073c <_malloc_r>
  801758:	d881aa15 	stw	r2,1704(sp)
  80175c:	10019a26 	beq	r2,zero,801dc8 <___vfprintf_internal_r+0xefc>
  801760:	d9019904 	addi	r4,sp,1636
  801764:	000b883a 	mov	r5,zero
  801768:	01800204 	movi	r6,8
  80176c:	08058000 	call	805800 <memset>
  801770:	d9019d17 	ldw	r4,1652(sp)
  801774:	d941aa17 	ldw	r5,1704(sp)
  801778:	d8819904 	addi	r2,sp,1636
  80177c:	b80f883a 	mov	r7,r23
  801780:	d9819b04 	addi	r6,sp,1644
  801784:	d8800015 	stw	r2,0(sp)
  801788:	0802c380 	call	802c38 <_wcsrtombs_r>
  80178c:	15c18e1e 	bne	r2,r23,801dc8 <___vfprintf_internal_r+0xefc>
  801790:	d8c1aa17 	ldw	r3,1704(sp)
  801794:	1dc5883a 	add	r2,r3,r23
  801798:	1827883a 	mov	r19,r3
  80179c:	10000005 	stb	zero,0(r2)
  8017a0:	003e9106 	br	8011e8 <___vfprintf_internal_r+0x31c>
  8017a4:	d8c1a017 	ldw	r3,1664(sp)
  8017a8:	1880080c 	andi	r2,r3,32
  8017ac:	10030826 	beq	r2,zero,8023d0 <___vfprintf_internal_r+0x1504>
  8017b0:	d8819f17 	ldw	r2,1660(sp)
  8017b4:	d8c1a117 	ldw	r3,1668(sp)
  8017b8:	11400017 	ldw	r5,0(r2)
  8017bc:	1809d7fa 	srai	r4,r3,31
  8017c0:	11c00104 	addi	r7,r2,4
  8017c4:	d9c19f15 	stw	r7,1660(sp)
  8017c8:	29000115 	stw	r4,4(r5)
  8017cc:	28c00015 	stw	r3,0(r5)
  8017d0:	003de506 	br	800f68 <___vfprintf_internal_r+0x9c>
  8017d4:	b7000007 	ldb	fp,0(r22)
  8017d8:	00800a84 	movi	r2,42
  8017dc:	b5800044 	addi	r22,r22,1
  8017e0:	e084d026 	beq	fp,r2,802b24 <___vfprintf_internal_r+0x1c58>
  8017e4:	e0bff404 	addi	r2,fp,-48
  8017e8:	00c00244 	movi	r3,9
  8017ec:	0021883a 	mov	r16,zero
  8017f0:	18800a36 	bltu	r3,r2,80181c <___vfprintf_internal_r+0x950>
  8017f4:	1823883a 	mov	r17,r3
  8017f8:	8009883a 	mov	r4,r16
  8017fc:	01400284 	movi	r5,10
  801800:	08006ec0 	call	8006ec <__mulsi3>
  801804:	1705883a 	add	r2,r2,fp
  801808:	b7000007 	ldb	fp,0(r22)
  80180c:	143ff404 	addi	r16,r2,-48
  801810:	b5800044 	addi	r22,r22,1
  801814:	e0bff404 	addi	r2,fp,-48
  801818:	88bff72e 	bgeu	r17,r2,8017f8 <___vfprintf_internal_r+0x92c>
  80181c:	00bfffc4 	movi	r2,-1
  801820:	8029883a 	mov	r20,r16
  801824:	80bdfe0e 	bge	r16,r2,801020 <___vfprintf_internal_r+0x154>
  801828:	1029883a 	mov	r20,r2
  80182c:	003dfc06 	br	801020 <___vfprintf_internal_r+0x154>
  801830:	b1000003 	ldbu	r4,0(r22)
  801834:	00801b04 	movi	r2,108
  801838:	20c03fcc 	andi	r3,r4,255
  80183c:	18c0201c 	xori	r3,r3,128
  801840:	18ffe004 	addi	r3,r3,-128
  801844:	18835426 	beq	r3,r2,802598 <___vfprintf_internal_r+0x16cc>
  801848:	d941a017 	ldw	r5,1664(sp)
  80184c:	29400414 	ori	r5,r5,16
  801850:	d941a015 	stw	r5,1664(sp)
  801854:	003dee06 	br	801010 <___vfprintf_internal_r+0x144>
  801858:	b1000003 	ldbu	r4,0(r22)
  80185c:	00800ac4 	movi	r2,43
  801860:	d8819c05 	stb	r2,1648(sp)
  801864:	003dea06 	br	801010 <___vfprintf_internal_r+0x144>
  801868:	d9c1a017 	ldw	r7,1664(sp)
  80186c:	b1000003 	ldbu	r4,0(r22)
  801870:	39c00814 	ori	r7,r7,32
  801874:	d9c1a015 	stw	r7,1664(sp)
  801878:	003de506 	br	801010 <___vfprintf_internal_r+0x144>
  80187c:	d8819f17 	ldw	r2,1660(sp)
  801880:	01002074 	movhi	r4,129
  801884:	2100ab04 	addi	r4,r4,684
  801888:	0023883a 	mov	r17,zero
  80188c:	11c00104 	addi	r7,r2,4
  801890:	14000017 	ldw	r16,0(r2)
  801894:	d881a017 	ldw	r2,1664(sp)
  801898:	00c00084 	movi	r3,2
  80189c:	07001e04 	movi	fp,120
  8018a0:	10800094 	ori	r2,r2,2
  8018a4:	d9c19f15 	stw	r7,1660(sp)
  8018a8:	d881a015 	stw	r2,1664(sp)
  8018ac:	d901a915 	stw	r4,1700(sp)
  8018b0:	003e3606 	br	80118c <___vfprintf_internal_r+0x2c0>
  8018b4:	d941a017 	ldw	r5,1664(sp)
  8018b8:	01002074 	movhi	r4,129
  8018bc:	2100ab04 	addi	r4,r4,684
  8018c0:	d901a915 	stw	r4,1700(sp)
  8018c4:	2880080c 	andi	r2,r5,32
  8018c8:	10003326 	beq	r2,zero,801998 <___vfprintf_internal_r+0xacc>
  8018cc:	d8819f17 	ldw	r2,1660(sp)
  8018d0:	14000017 	ldw	r16,0(r2)
  8018d4:	14400117 	ldw	r17,4(r2)
  8018d8:	11c00204 	addi	r7,r2,8
  8018dc:	d9c19f15 	stw	r7,1660(sp)
  8018e0:	d8c1a017 	ldw	r3,1664(sp)
  8018e4:	1880004c 	andi	r2,r3,1
  8018e8:	00c00084 	movi	r3,2
  8018ec:	103e2726 	beq	r2,zero,80118c <___vfprintf_internal_r+0x2c0>
  8018f0:	8444b03a 	or	r2,r16,r17
  8018f4:	103e2526 	beq	r2,zero,80118c <___vfprintf_internal_r+0x2c0>
  8018f8:	d901a017 	ldw	r4,1664(sp)
  8018fc:	21000094 	ori	r4,r4,2
  801900:	d901a015 	stw	r4,1664(sp)
  801904:	003e2106 	br	80118c <___vfprintf_internal_r+0x2c0>
  801908:	d941a017 	ldw	r5,1664(sp)
  80190c:	b1000003 	ldbu	r4,0(r22)
  801910:	29400054 	ori	r5,r5,1
  801914:	d941a015 	stw	r5,1664(sp)
  801918:	003dbd06 	br	801010 <___vfprintf_internal_r+0x144>
  80191c:	d8800404 	addi	r2,sp,16
  801920:	14c01504 	addi	r19,r2,84
  801924:	008010c4 	movi	r2,67
  801928:	e0800326 	beq	fp,r2,801938 <___vfprintf_internal_r+0xa6c>
  80192c:	d8c1a017 	ldw	r3,1664(sp)
  801930:	1880040c 	andi	r2,r3,16
  801934:	1002b826 	beq	r2,zero,802418 <___vfprintf_internal_r+0x154c>
  801938:	d9019204 	addi	r4,sp,1608
  80193c:	000b883a 	mov	r5,zero
  801940:	01800204 	movi	r6,8
  801944:	08058000 	call	805800 <memset>
  801948:	d8c19f17 	ldw	r3,1660(sp)
  80194c:	d9019d17 	ldw	r4,1652(sp)
  801950:	980b883a 	mov	r5,r19
  801954:	19800017 	ldw	r6,0(r3)
  801958:	d9c19204 	addi	r7,sp,1608
  80195c:	0802bb00 	call	802bb0 <_wcrtomb_r>
  801960:	d9019f17 	ldw	r4,1660(sp)
  801964:	102f883a 	mov	r23,r2
  801968:	00bfffc4 	movi	r2,-1
  80196c:	21000104 	addi	r4,r4,4
  801970:	d9019f15 	stw	r4,1660(sp)
  801974:	b8811426 	beq	r23,r2,801dc8 <___vfprintf_internal_r+0xefc>
  801978:	d8019c05 	stb	zero,1648(sp)
  80197c:	003e1a06 	br	8011e8 <___vfprintf_internal_r+0x31c>
  801980:	d941a017 	ldw	r5,1664(sp)
  801984:	00c02074 	movhi	r3,129
  801988:	18c0b004 	addi	r3,r3,704
  80198c:	d8c1a915 	stw	r3,1700(sp)
  801990:	2880080c 	andi	r2,r5,32
  801994:	103fcd1e 	bne	r2,zero,8018cc <___vfprintf_internal_r+0xa00>
  801998:	d8c1a017 	ldw	r3,1664(sp)
  80199c:	1880040c 	andi	r2,r3,16
  8019a0:	10027926 	beq	r2,zero,802388 <___vfprintf_internal_r+0x14bc>
  8019a4:	d8819f17 	ldw	r2,1660(sp)
  8019a8:	0023883a 	mov	r17,zero
  8019ac:	14000017 	ldw	r16,0(r2)
  8019b0:	11000104 	addi	r4,r2,4
  8019b4:	d9019f15 	stw	r4,1660(sp)
  8019b8:	003fc906 	br	8018e0 <___vfprintf_internal_r+0xa14>
  8019bc:	d881a017 	ldw	r2,1664(sp)
  8019c0:	b1000003 	ldbu	r4,0(r22)
  8019c4:	10801014 	ori	r2,r2,64
  8019c8:	d881a015 	stw	r2,1664(sp)
  8019cc:	003d9006 	br	801010 <___vfprintf_internal_r+0x144>
  8019d0:	00bfffc4 	movi	r2,-1
  8019d4:	a082f626 	beq	r20,r2,8025b0 <___vfprintf_internal_r+0x16e4>
  8019d8:	008019c4 	movi	r2,103
  8019dc:	e0829626 	beq	fp,r2,802438 <___vfprintf_internal_r+0x156c>
  8019e0:	008011c4 	movi	r2,71
  8019e4:	e0829426 	beq	fp,r2,802438 <___vfprintf_internal_r+0x156c>
  8019e8:	d9019f17 	ldw	r4,1660(sp)
  8019ec:	20800017 	ldw	r2,0(r4)
  8019f0:	20c00117 	ldw	r3,4(r4)
  8019f4:	21400204 	addi	r5,r4,8
  8019f8:	d881a415 	stw	r2,1680(sp)
  8019fc:	d8c1a515 	stw	r3,1684(sp)
  801a00:	d9419f15 	stw	r5,1660(sp)
  801a04:	d901a417 	ldw	r4,1680(sp)
  801a08:	d941a517 	ldw	r5,1684(sp)
  801a0c:	0806d580 	call	806d58 <isinf>
  801a10:	1002d926 	beq	r2,zero,802578 <___vfprintf_internal_r+0x16ac>
  801a14:	d901a417 	ldw	r4,1680(sp)
  801a18:	d941a517 	ldw	r5,1684(sp)
  801a1c:	000d883a 	mov	r6,zero
  801a20:	000f883a 	mov	r7,zero
  801a24:	0808bec0 	call	808bec <__ltdf2>
  801a28:	10002c16 	blt	r2,zero,801adc <___vfprintf_internal_r+0xc10>
  801a2c:	04c02074 	movhi	r19,129
  801a30:	9cc0b504 	addi	r19,r19,724
  801a34:	05c000c4 	movi	r23,3
  801a38:	003deb06 	br	8011e8 <___vfprintf_internal_r+0x31c>
  801a3c:	d9c1a017 	ldw	r7,1664(sp)
  801a40:	b1000003 	ldbu	r4,0(r22)
  801a44:	39c00214 	ori	r7,r7,8
  801a48:	d9c1a015 	stw	r7,1664(sp)
  801a4c:	003d7006 	br	801010 <___vfprintf_internal_r+0x144>
  801a50:	d8819c07 	ldb	r2,1648(sp)
  801a54:	1000161e 	bne	r2,zero,801ab0 <___vfprintf_internal_r+0xbe4>
  801a58:	b1000003 	ldbu	r4,0(r22)
  801a5c:	00800804 	movi	r2,32
  801a60:	d8819c05 	stb	r2,1648(sp)
  801a64:	003d6a06 	br	801010 <___vfprintf_internal_r+0x144>
  801a68:	0021883a 	mov	r16,zero
  801a6c:	04400244 	movi	r17,9
  801a70:	8009883a 	mov	r4,r16
  801a74:	01400284 	movi	r5,10
  801a78:	08006ec0 	call	8006ec <__mulsi3>
  801a7c:	1705883a 	add	r2,r2,fp
  801a80:	b7000007 	ldb	fp,0(r22)
  801a84:	143ff404 	addi	r16,r2,-48
  801a88:	b5800044 	addi	r22,r22,1
  801a8c:	e0bff404 	addi	r2,fp,-48
  801a90:	88bff72e 	bgeu	r17,r2,801a70 <___vfprintf_internal_r+0xba4>
  801a94:	dc01a215 	stw	r16,1672(sp)
  801a98:	003d6106 	br	801020 <___vfprintf_internal_r+0x154>
  801a9c:	d941a017 	ldw	r5,1664(sp)
  801aa0:	b1000003 	ldbu	r4,0(r22)
  801aa4:	29402014 	ori	r5,r5,128
  801aa8:	d941a015 	stw	r5,1664(sp)
  801aac:	003d5806 	br	801010 <___vfprintf_internal_r+0x144>
  801ab0:	b1000003 	ldbu	r4,0(r22)
  801ab4:	003d5606 	br	801010 <___vfprintf_internal_r+0x144>
  801ab8:	880b883a 	mov	r5,r17
  801abc:	8009883a 	mov	r4,r16
  801ac0:	080730c0 	call	80730c <__negdi2>
  801ac4:	1021883a 	mov	r16,r2
  801ac8:	1823883a 	mov	r17,r3
  801acc:	00800b44 	movi	r2,45
  801ad0:	00c00044 	movi	r3,1
  801ad4:	d8819c05 	stb	r2,1648(sp)
  801ad8:	003dad06 	br	801190 <___vfprintf_internal_r+0x2c4>
  801adc:	00800b44 	movi	r2,45
  801ae0:	04c02074 	movhi	r19,129
  801ae4:	9cc0b504 	addi	r19,r19,724
  801ae8:	d8819c05 	stb	r2,1648(sp)
  801aec:	003fd106 	br	801a34 <___vfprintf_internal_r+0xb68>
  801af0:	d941a017 	ldw	r5,1664(sp)
  801af4:	2880008c 	andi	r2,r5,2
  801af8:	103dc426 	beq	r2,zero,80120c <___vfprintf_internal_r+0x340>
  801afc:	d9c1a817 	ldw	r7,1696(sp)
  801b00:	39c00084 	addi	r7,r7,2
  801b04:	d9c1a815 	stw	r7,1696(sp)
  801b08:	003dc006 	br	80120c <___vfprintf_internal_r+0x340>
  801b0c:	d941a017 	ldw	r5,1664(sp)
  801b10:	2880008c 	andi	r2,r5,2
  801b14:	103e0026 	beq	r2,zero,801318 <___vfprintf_internal_r+0x44c>
  801b18:	d9000817 	ldw	r4,32(sp)
  801b1c:	d9400717 	ldw	r5,28(sp)
  801b20:	00800c04 	movi	r2,48
  801b24:	d8807005 	stb	r2,448(sp)
  801b28:	df007045 	stb	fp,449(sp)
  801b2c:	00800084 	movi	r2,2
  801b30:	d9c00404 	addi	r7,sp,16
  801b34:	90800115 	stw	r2,4(r18)
  801b38:	21000084 	addi	r4,r4,2
  801b3c:	29400044 	addi	r5,r5,1
  801b40:	38c06c04 	addi	r3,r7,432
  801b44:	008001c4 	movi	r2,7
  801b48:	90c00015 	stw	r3,0(r18)
  801b4c:	d9000815 	stw	r4,32(sp)
  801b50:	94800204 	addi	r18,r18,8
  801b54:	d9400715 	stw	r5,28(sp)
  801b58:	117def0e 	bge	r2,r5,801318 <___vfprintf_internal_r+0x44c>
  801b5c:	d9019e17 	ldw	r4,1656(sp)
  801b60:	39400204 	addi	r5,r7,8
  801b64:	0800e740 	call	800e74 <__sprint>
  801b68:	1000971e 	bne	r2,zero,801dc8 <___vfprintf_internal_r+0xefc>
  801b6c:	d8c1ab17 	ldw	r3,1708(sp)
  801b70:	d8800404 	addi	r2,sp,16
  801b74:	14800504 	addi	r18,r2,20
  801b78:	00802004 	movi	r2,128
  801b7c:	18bde91e 	bne	r3,r2,801324 <___vfprintf_internal_r+0x458>
  801b80:	d941a217 	ldw	r5,1672(sp)
  801b84:	d901a817 	ldw	r4,1696(sp)
  801b88:	2921c83a 	sub	r16,r5,r4
  801b8c:	043de50e 	bge	zero,r16,801324 <___vfprintf_internal_r+0x458>
  801b90:	04400404 	movi	r17,16
  801b94:	8c001a0e 	bge	r17,r16,801c00 <___vfprintf_internal_r+0xd34>
  801b98:	882b883a 	mov	r21,r17
  801b9c:	050001c4 	movi	r20,7
  801ba0:	00000206 	br	801bac <___vfprintf_internal_r+0xce0>
  801ba4:	843ffc04 	addi	r16,r16,-16
  801ba8:	ac00150e 	bge	r21,r16,801c00 <___vfprintf_internal_r+0xd34>
  801bac:	d8800817 	ldw	r2,32(sp)
  801bb0:	d8c00717 	ldw	r3,28(sp)
  801bb4:	01c02074 	movhi	r7,129
  801bb8:	39c04704 	addi	r7,r7,284
  801bbc:	10800404 	addi	r2,r2,16
  801bc0:	18c00044 	addi	r3,r3,1
  801bc4:	91c00015 	stw	r7,0(r18)
  801bc8:	94400115 	stw	r17,4(r18)
  801bcc:	d8800815 	stw	r2,32(sp)
  801bd0:	d8c00715 	stw	r3,28(sp)
  801bd4:	94800204 	addi	r18,r18,8
  801bd8:	a0fff20e 	bge	r20,r3,801ba4 <___vfprintf_internal_r+0xcd8>
  801bdc:	d9019e17 	ldw	r4,1656(sp)
  801be0:	d8800404 	addi	r2,sp,16
  801be4:	11400204 	addi	r5,r2,8
  801be8:	0800e740 	call	800e74 <__sprint>
  801bec:	1000761e 	bne	r2,zero,801dc8 <___vfprintf_internal_r+0xefc>
  801bf0:	d8c00404 	addi	r3,sp,16
  801bf4:	843ffc04 	addi	r16,r16,-16
  801bf8:	1c800504 	addi	r18,r3,20
  801bfc:	ac3feb16 	blt	r21,r16,801bac <___vfprintf_internal_r+0xce0>
  801c00:	d8800817 	ldw	r2,32(sp)
  801c04:	d8c00717 	ldw	r3,28(sp)
  801c08:	01002074 	movhi	r4,129
  801c0c:	21004704 	addi	r4,r4,284
  801c10:	1405883a 	add	r2,r2,r16
  801c14:	18c00044 	addi	r3,r3,1
  801c18:	d8800815 	stw	r2,32(sp)
  801c1c:	008001c4 	movi	r2,7
  801c20:	91000015 	stw	r4,0(r18)
  801c24:	94000115 	stw	r16,4(r18)
  801c28:	d8c00715 	stw	r3,28(sp)
  801c2c:	94800204 	addi	r18,r18,8
  801c30:	10fdbc0e 	bge	r2,r3,801324 <___vfprintf_internal_r+0x458>
  801c34:	d9019e17 	ldw	r4,1656(sp)
  801c38:	d9c00404 	addi	r7,sp,16
  801c3c:	39400204 	addi	r5,r7,8
  801c40:	0800e740 	call	800e74 <__sprint>
  801c44:	1000601e 	bne	r2,zero,801dc8 <___vfprintf_internal_r+0xefc>
  801c48:	d8800404 	addi	r2,sp,16
  801c4c:	14800504 	addi	r18,r2,20
  801c50:	003db406 	br	801324 <___vfprintf_internal_r+0x458>
  801c54:	00801944 	movi	r2,101
  801c58:	17006c0e 	bge	r2,fp,801e0c <___vfprintf_internal_r+0xf40>
  801c5c:	d901a417 	ldw	r4,1680(sp)
  801c60:	d941a517 	ldw	r5,1684(sp)
  801c64:	000d883a 	mov	r6,zero
  801c68:	000f883a 	mov	r7,zero
  801c6c:	08089bc0 	call	8089bc <__eqdf2>
  801c70:	1000c81e 	bne	r2,zero,801f94 <___vfprintf_internal_r+0x10c8>
  801c74:	d8800817 	ldw	r2,32(sp)
  801c78:	d9000717 	ldw	r4,28(sp)
  801c7c:	04400044 	movi	r17,1
  801c80:	10800044 	addi	r2,r2,1
  801c84:	21000044 	addi	r4,r4,1
  801c88:	00c02074 	movhi	r3,129
  801c8c:	18c0b604 	addi	r3,r3,728
  801c90:	04c001c4 	movi	r19,7
  801c94:	90c00015 	stw	r3,0(r18)
  801c98:	94400115 	stw	r17,4(r18)
  801c9c:	d8800815 	stw	r2,32(sp)
  801ca0:	d9000715 	stw	r4,28(sp)
  801ca4:	94800204 	addi	r18,r18,8
  801ca8:	9901d316 	blt	r19,r4,8023f8 <___vfprintf_internal_r+0x152c>
  801cac:	dc019617 	ldw	r16,1624(sp)
  801cb0:	d8819517 	ldw	r2,1620(sp)
  801cb4:	14000316 	blt	r2,r16,801cc4 <___vfprintf_internal_r+0xdf8>
  801cb8:	d941a017 	ldw	r5,1664(sp)
  801cbc:	2880004c 	andi	r2,r5,1
  801cc0:	103dd926 	beq	r2,zero,801428 <___vfprintf_internal_r+0x55c>
  801cc4:	d8800817 	ldw	r2,32(sp)
  801cc8:	d8c00717 	ldw	r3,28(sp)
  801ccc:	d9c1a317 	ldw	r7,1676(sp)
  801cd0:	10800044 	addi	r2,r2,1
  801cd4:	18c00044 	addi	r3,r3,1
  801cd8:	94400115 	stw	r17,4(r18)
  801cdc:	91c00015 	stw	r7,0(r18)
  801ce0:	d8800815 	stw	r2,32(sp)
  801ce4:	d8c00715 	stw	r3,28(sp)
  801ce8:	94800204 	addi	r18,r18,8
  801cec:	98c1e016 	blt	r19,r3,802470 <___vfprintf_internal_r+0x15a4>
  801cf0:	843fffc4 	addi	r16,r16,-1
  801cf4:	043dcc0e 	bge	zero,r16,801428 <___vfprintf_internal_r+0x55c>
  801cf8:	04400404 	movi	r17,16
  801cfc:	8c001a0e 	bge	r17,r16,801d68 <___vfprintf_internal_r+0xe9c>
  801d00:	9829883a 	mov	r20,r19
  801d04:	8827883a 	mov	r19,r17
  801d08:	00000206 	br	801d14 <___vfprintf_internal_r+0xe48>
  801d0c:	843ffc04 	addi	r16,r16,-16
  801d10:	9c00150e 	bge	r19,r16,801d68 <___vfprintf_internal_r+0xe9c>
  801d14:	d8800817 	ldw	r2,32(sp)
  801d18:	d8c00717 	ldw	r3,28(sp)
  801d1c:	01002074 	movhi	r4,129
  801d20:	21004704 	addi	r4,r4,284
  801d24:	10800404 	addi	r2,r2,16
  801d28:	18c00044 	addi	r3,r3,1
  801d2c:	91000015 	stw	r4,0(r18)
  801d30:	94400115 	stw	r17,4(r18)
  801d34:	d8800815 	stw	r2,32(sp)
  801d38:	d8c00715 	stw	r3,28(sp)
  801d3c:	94800204 	addi	r18,r18,8
  801d40:	a0fff20e 	bge	r20,r3,801d0c <___vfprintf_internal_r+0xe40>
  801d44:	d9019e17 	ldw	r4,1656(sp)
  801d48:	d9c00404 	addi	r7,sp,16
  801d4c:	39400204 	addi	r5,r7,8
  801d50:	0800e740 	call	800e74 <__sprint>
  801d54:	10001c1e 	bne	r2,zero,801dc8 <___vfprintf_internal_r+0xefc>
  801d58:	d8800404 	addi	r2,sp,16
  801d5c:	843ffc04 	addi	r16,r16,-16
  801d60:	14800504 	addi	r18,r2,20
  801d64:	9c3feb16 	blt	r19,r16,801d14 <___vfprintf_internal_r+0xe48>
  801d68:	d8800817 	ldw	r2,32(sp)
  801d6c:	d8c00717 	ldw	r3,28(sp)
  801d70:	01002074 	movhi	r4,129
  801d74:	21004704 	addi	r4,r4,284
  801d78:	1405883a 	add	r2,r2,r16
  801d7c:	18c00044 	addi	r3,r3,1
  801d80:	d8800815 	stw	r2,32(sp)
  801d84:	008001c4 	movi	r2,7
  801d88:	91000015 	stw	r4,0(r18)
  801d8c:	94000115 	stw	r16,4(r18)
  801d90:	d8c00715 	stw	r3,28(sp)
  801d94:	94800204 	addi	r18,r18,8
  801d98:	10fda30e 	bge	r2,r3,801428 <___vfprintf_internal_r+0x55c>
  801d9c:	d9019e17 	ldw	r4,1656(sp)
  801da0:	d9c00404 	addi	r7,sp,16
  801da4:	00005306 	br	801ef4 <___vfprintf_internal_r+0x1028>
  801da8:	d8800817 	ldw	r2,32(sp)
  801dac:	10000526 	beq	r2,zero,801dc4 <___vfprintf_internal_r+0xef8>
  801db0:	d9000404 	addi	r4,sp,16
  801db4:	21400204 	addi	r5,r4,8
  801db8:	d9019e17 	ldw	r4,1656(sp)
  801dbc:	0800e740 	call	800e74 <__sprint>
  801dc0:	1000011e 	bne	r2,zero,801dc8 <___vfprintf_internal_r+0xefc>
  801dc4:	d8000715 	stw	zero,28(sp)
  801dc8:	d941aa17 	ldw	r5,1704(sp)
  801dcc:	28000226 	beq	r5,zero,801dd8 <___vfprintf_internal_r+0xf0c>
  801dd0:	2809883a 	mov	r4,r5
  801dd4:	08007280 	call	800728 <free>
  801dd8:	d9c19e17 	ldw	r7,1656(sp)
  801ddc:	00ffffc4 	movi	r3,-1
  801de0:	3880030b 	ldhu	r2,12(r7)
  801de4:	1080100c 	andi	r2,r2,64
  801de8:	103cc71e 	bne	r2,zero,801108 <___vfprintf_internal_r+0x23c>
  801dec:	d8c1a117 	ldw	r3,1668(sp)
  801df0:	003cc506 	br	801108 <___vfprintf_internal_r+0x23c>
  801df4:	d9019e17 	ldw	r4,1656(sp)
  801df8:	d9c00404 	addi	r7,sp,16
  801dfc:	39400204 	addi	r5,r7,8
  801e00:	0800e740 	call	800e74 <__sprint>
  801e04:	103dc526 	beq	r2,zero,80151c <___vfprintf_internal_r+0x650>
  801e08:	003fef06 	br	801dc8 <___vfprintf_internal_r+0xefc>
  801e0c:	dc019617 	ldw	r16,1624(sp)
  801e10:	01000044 	movi	r4,1
  801e14:	24000316 	blt	r4,r16,801e24 <___vfprintf_internal_r+0xf58>
  801e18:	d941a017 	ldw	r5,1664(sp)
  801e1c:	2904703a 	and	r2,r5,r4
  801e20:	10010026 	beq	r2,zero,802224 <___vfprintf_internal_r+0x1358>
  801e24:	98800003 	ldbu	r2,0(r19)
  801e28:	d9000817 	ldw	r4,32(sp)
  801e2c:	d9400717 	ldw	r5,28(sp)
  801e30:	00c00b84 	movi	r3,46
  801e34:	d9c00404 	addi	r7,sp,16
  801e38:	d8807005 	stb	r2,448(sp)
  801e3c:	d8c07045 	stb	r3,449(sp)
  801e40:	21000084 	addi	r4,r4,2
  801e44:	29400044 	addi	r5,r5,1
  801e48:	38c06c04 	addi	r3,r7,432
  801e4c:	00800084 	movi	r2,2
  801e50:	050001c4 	movi	r20,7
  801e54:	90c00015 	stw	r3,0(r18)
  801e58:	90800115 	stw	r2,4(r18)
  801e5c:	d9000815 	stw	r4,32(sp)
  801e60:	9cc00044 	addi	r19,r19,1
  801e64:	94800204 	addi	r18,r18,8
  801e68:	d9400715 	stw	r5,28(sp)
  801e6c:	04400404 	movi	r17,16
  801e70:	a140ff16 	blt	r20,r5,802270 <___vfprintf_internal_r+0x13a4>
  801e74:	d901a417 	ldw	r4,1680(sp)
  801e78:	d941a517 	ldw	r5,1684(sp)
  801e7c:	000d883a 	mov	r6,zero
  801e80:	000f883a 	mov	r7,zero
  801e84:	0808a480 	call	808a48 <__nedf2>
  801e88:	10009626 	beq	r2,zero,8020e4 <___vfprintf_internal_r+0x1218>
  801e8c:	d8c00817 	ldw	r3,32(sp)
  801e90:	d9000717 	ldw	r4,28(sp)
  801e94:	80bfffc4 	addi	r2,r16,-1
  801e98:	1c07883a 	add	r3,r3,r16
  801e9c:	18ffffc4 	addi	r3,r3,-1
  801ea0:	21000044 	addi	r4,r4,1
  801ea4:	94c00015 	stw	r19,0(r18)
  801ea8:	90800115 	stw	r2,4(r18)
  801eac:	d8c00815 	stw	r3,32(sp)
  801eb0:	94800204 	addi	r18,r18,8
  801eb4:	d9000715 	stw	r4,28(sp)
  801eb8:	a100e516 	blt	r20,r4,802250 <___vfprintf_internal_r+0x1384>
  801ebc:	d8800817 	ldw	r2,32(sp)
  801ec0:	d941a617 	ldw	r5,1688(sp)
  801ec4:	d8c00717 	ldw	r3,28(sp)
  801ec8:	d9c00404 	addi	r7,sp,16
  801ecc:	1145883a 	add	r2,r2,r5
  801ed0:	18c00044 	addi	r3,r3,1
  801ed4:	d8800815 	stw	r2,32(sp)
  801ed8:	008001c4 	movi	r2,7
  801edc:	91c00015 	stw	r7,0(r18)
  801ee0:	91400115 	stw	r5,4(r18)
  801ee4:	d8c00715 	stw	r3,28(sp)
  801ee8:	94800204 	addi	r18,r18,8
  801eec:	10fd4e0e 	bge	r2,r3,801428 <___vfprintf_internal_r+0x55c>
  801ef0:	d9019e17 	ldw	r4,1656(sp)
  801ef4:	39400204 	addi	r5,r7,8
  801ef8:	0800e740 	call	800e74 <__sprint>
  801efc:	103fb21e 	bne	r2,zero,801dc8 <___vfprintf_internal_r+0xefc>
  801f00:	d8800404 	addi	r2,sp,16
  801f04:	14800504 	addi	r18,r2,20
  801f08:	003d4706 	br	801428 <___vfprintf_internal_r+0x55c>
  801f0c:	00800084 	movi	r2,2
  801f10:	18bcb01e 	bne	r3,r2,8011d4 <___vfprintf_internal_r+0x308>
  801f14:	d9c1a917 	ldw	r7,1700(sp)
  801f18:	800ad13a 	srli	r5,r16,4
  801f1c:	880c973a 	slli	r6,r17,28
  801f20:	810003cc 	andi	r4,r16,15
  801f24:	21c9883a 	add	r4,r4,r7
  801f28:	8806d13a 	srli	r3,r17,4
  801f2c:	3144b03a 	or	r2,r6,r5
  801f30:	21400003 	ldbu	r5,0(r4)
  801f34:	9cffffc4 	addi	r19,r19,-1
  801f38:	10c8b03a 	or	r4,r2,r3
  801f3c:	1021883a 	mov	r16,r2
  801f40:	1823883a 	mov	r17,r3
  801f44:	99400005 	stb	r5,0(r19)
  801f48:	203ff21e 	bne	r4,zero,801f14 <___vfprintf_internal_r+0x1048>
  801f4c:	003d9306 	br	80159c <___vfprintf_internal_r+0x6d0>
  801f50:	18803fcc 	andi	r2,r3,255
  801f54:	103d911e 	bne	r2,zero,80159c <___vfprintf_internal_r+0x6d0>
  801f58:	d8c1a017 	ldw	r3,1664(sp)
  801f5c:	1880004c 	andi	r2,r3,1
  801f60:	103d8e26 	beq	r2,zero,80159c <___vfprintf_internal_r+0x6d0>
  801f64:	d9000404 	addi	r4,sp,16
  801f68:	24c06bc4 	addi	r19,r4,431
  801f6c:	00800c04 	movi	r2,48
  801f70:	003d8906 	br	801598 <___vfprintf_internal_r+0x6cc>
  801f74:	d9019e17 	ldw	r4,1656(sp)
  801f78:	d8c00404 	addi	r3,sp,16
  801f7c:	19400204 	addi	r5,r3,8
  801f80:	0800e740 	call	800e74 <__sprint>
  801f84:	103f901e 	bne	r2,zero,801dc8 <___vfprintf_internal_r+0xefc>
  801f88:	d9000404 	addi	r4,sp,16
  801f8c:	24800504 	addi	r18,r4,20
  801f90:	003ce106 	br	801318 <___vfprintf_internal_r+0x44c>
  801f94:	d9819517 	ldw	r6,1620(sp)
  801f98:	01813e0e 	bge	zero,r6,802494 <___vfprintf_internal_r+0x15c8>
  801f9c:	dc019617 	ldw	r16,1624(sp)
  801fa0:	3400bb16 	blt	r6,r16,802290 <___vfprintf_internal_r+0x13c4>
  801fa4:	d8800817 	ldw	r2,32(sp)
  801fa8:	d8c00717 	ldw	r3,28(sp)
  801fac:	050001c4 	movi	r20,7
  801fb0:	1405883a 	add	r2,r2,r16
  801fb4:	18c00044 	addi	r3,r3,1
  801fb8:	94c00015 	stw	r19,0(r18)
  801fbc:	94000115 	stw	r16,4(r18)
  801fc0:	d8800815 	stw	r2,32(sp)
  801fc4:	d8c00715 	stw	r3,28(sp)
  801fc8:	94800204 	addi	r18,r18,8
  801fcc:	a0c1b116 	blt	r20,r3,802694 <___vfprintf_internal_r+0x17c8>
  801fd0:	3421c83a 	sub	r16,r6,r16
  801fd4:	0400280e 	bge	zero,r16,802078 <___vfprintf_internal_r+0x11ac>
  801fd8:	04400404 	movi	r17,16
  801fdc:	8c00190e 	bge	r17,r16,802044 <___vfprintf_internal_r+0x1178>
  801fe0:	8827883a 	mov	r19,r17
  801fe4:	00000206 	br	801ff0 <___vfprintf_internal_r+0x1124>
  801fe8:	843ffc04 	addi	r16,r16,-16
  801fec:	9c00150e 	bge	r19,r16,802044 <___vfprintf_internal_r+0x1178>
  801ff0:	00c02074 	movhi	r3,129
  801ff4:	18c04704 	addi	r3,r3,284
  801ff8:	90c00015 	stw	r3,0(r18)
  801ffc:	d8800817 	ldw	r2,32(sp)
  802000:	d8c00717 	ldw	r3,28(sp)
  802004:	94400115 	stw	r17,4(r18)
  802008:	10800404 	addi	r2,r2,16
  80200c:	18c00044 	addi	r3,r3,1
  802010:	d8800815 	stw	r2,32(sp)
  802014:	d8c00715 	stw	r3,28(sp)
  802018:	94800204 	addi	r18,r18,8
  80201c:	a0fff20e 	bge	r20,r3,801fe8 <___vfprintf_internal_r+0x111c>
  802020:	d9019e17 	ldw	r4,1656(sp)
  802024:	d9c00404 	addi	r7,sp,16
  802028:	39400204 	addi	r5,r7,8
  80202c:	0800e740 	call	800e74 <__sprint>
  802030:	103f651e 	bne	r2,zero,801dc8 <___vfprintf_internal_r+0xefc>
  802034:	d8800404 	addi	r2,sp,16
  802038:	843ffc04 	addi	r16,r16,-16
  80203c:	14800504 	addi	r18,r2,20
  802040:	9c3feb16 	blt	r19,r16,801ff0 <___vfprintf_internal_r+0x1124>
  802044:	d8800817 	ldw	r2,32(sp)
  802048:	d8c00717 	ldw	r3,28(sp)
  80204c:	01002074 	movhi	r4,129
  802050:	21004704 	addi	r4,r4,284
  802054:	1405883a 	add	r2,r2,r16
  802058:	18c00044 	addi	r3,r3,1
  80205c:	d8800815 	stw	r2,32(sp)
  802060:	008001c4 	movi	r2,7
  802064:	91000015 	stw	r4,0(r18)
  802068:	94000115 	stw	r16,4(r18)
  80206c:	d8c00715 	stw	r3,28(sp)
  802070:	94800204 	addi	r18,r18,8
  802074:	10c1f316 	blt	r2,r3,802844 <___vfprintf_internal_r+0x1978>
  802078:	d8c1a017 	ldw	r3,1664(sp)
  80207c:	1880004c 	andi	r2,r3,1
  802080:	103ce926 	beq	r2,zero,801428 <___vfprintf_internal_r+0x55c>
  802084:	d9000817 	ldw	r4,32(sp)
  802088:	d9400717 	ldw	r5,28(sp)
  80208c:	00800044 	movi	r2,1
  802090:	90800115 	stw	r2,4(r18)
  802094:	21000044 	addi	r4,r4,1
  802098:	29400044 	addi	r5,r5,1
  80209c:	00c02074 	movhi	r3,129
  8020a0:	18c0b704 	addi	r3,r3,732
  8020a4:	008001c4 	movi	r2,7
  8020a8:	90c00015 	stw	r3,0(r18)
  8020ac:	d9000815 	stw	r4,32(sp)
  8020b0:	94800204 	addi	r18,r18,8
  8020b4:	d9400715 	stw	r5,28(sp)
  8020b8:	117cdb0e 	bge	r2,r5,801428 <___vfprintf_internal_r+0x55c>
  8020bc:	003f3706 	br	801d9c <___vfprintf_internal_r+0xed0>
  8020c0:	d9019e17 	ldw	r4,1656(sp)
  8020c4:	d9c00404 	addi	r7,sp,16
  8020c8:	39400204 	addi	r5,r7,8
  8020cc:	0800e740 	call	800e74 <__sprint>
  8020d0:	103f3d1e 	bne	r2,zero,801dc8 <___vfprintf_internal_r+0xefc>
  8020d4:	d8c19c03 	ldbu	r3,1648(sp)
  8020d8:	d8800404 	addi	r2,sp,16
  8020dc:	14800504 	addi	r18,r2,20
  8020e0:	003c7c06 	br	8012d4 <___vfprintf_internal_r+0x408>
  8020e4:	843fffc4 	addi	r16,r16,-1
  8020e8:	043f740e 	bge	zero,r16,801ebc <___vfprintf_internal_r+0xff0>
  8020ec:	8c00190e 	bge	r17,r16,802154 <___vfprintf_internal_r+0x1288>
  8020f0:	a027883a 	mov	r19,r20
  8020f4:	00000206 	br	802100 <___vfprintf_internal_r+0x1234>
  8020f8:	843ffc04 	addi	r16,r16,-16
  8020fc:	8c00150e 	bge	r17,r16,802154 <___vfprintf_internal_r+0x1288>
  802100:	d8800817 	ldw	r2,32(sp)
  802104:	d8c00717 	ldw	r3,28(sp)
  802108:	01402074 	movhi	r5,129
  80210c:	29404704 	addi	r5,r5,284
  802110:	10800404 	addi	r2,r2,16
  802114:	18c00044 	addi	r3,r3,1
  802118:	91400015 	stw	r5,0(r18)
  80211c:	94400115 	stw	r17,4(r18)
  802120:	d8800815 	stw	r2,32(sp)
  802124:	d8c00715 	stw	r3,28(sp)
  802128:	94800204 	addi	r18,r18,8
  80212c:	98fff20e 	bge	r19,r3,8020f8 <___vfprintf_internal_r+0x122c>
  802130:	d9019e17 	ldw	r4,1656(sp)
  802134:	d9c00404 	addi	r7,sp,16
  802138:	39400204 	addi	r5,r7,8
  80213c:	0800e740 	call	800e74 <__sprint>
  802140:	103f211e 	bne	r2,zero,801dc8 <___vfprintf_internal_r+0xefc>
  802144:	d8800404 	addi	r2,sp,16
  802148:	843ffc04 	addi	r16,r16,-16
  80214c:	14800504 	addi	r18,r2,20
  802150:	8c3feb16 	blt	r17,r16,802100 <___vfprintf_internal_r+0x1234>
  802154:	d8800817 	ldw	r2,32(sp)
  802158:	d8c00717 	ldw	r3,28(sp)
  80215c:	01002074 	movhi	r4,129
  802160:	21004704 	addi	r4,r4,284
  802164:	1405883a 	add	r2,r2,r16
  802168:	18c00044 	addi	r3,r3,1
  80216c:	d8800815 	stw	r2,32(sp)
  802170:	008001c4 	movi	r2,7
  802174:	91000015 	stw	r4,0(r18)
  802178:	94000115 	stw	r16,4(r18)
  80217c:	d8c00715 	stw	r3,28(sp)
  802180:	94800204 	addi	r18,r18,8
  802184:	10ff4d0e 	bge	r2,r3,801ebc <___vfprintf_internal_r+0xff0>
  802188:	d9019e17 	ldw	r4,1656(sp)
  80218c:	d9c00404 	addi	r7,sp,16
  802190:	39400204 	addi	r5,r7,8
  802194:	0800e740 	call	800e74 <__sprint>
  802198:	103f0b1e 	bne	r2,zero,801dc8 <___vfprintf_internal_r+0xefc>
  80219c:	d8800404 	addi	r2,sp,16
  8021a0:	14800504 	addi	r18,r2,20
  8021a4:	003f4506 	br	801ebc <___vfprintf_internal_r+0xff0>
  8021a8:	d941a017 	ldw	r5,1664(sp)
  8021ac:	2880040c 	andi	r2,r5,16
  8021b0:	10006426 	beq	r2,zero,802344 <___vfprintf_internal_r+0x1478>
  8021b4:	d8819f17 	ldw	r2,1660(sp)
  8021b8:	0023883a 	mov	r17,zero
  8021bc:	14000017 	ldw	r16,0(r2)
  8021c0:	11c00104 	addi	r7,r2,4
  8021c4:	d9c19f15 	stw	r7,1660(sp)
  8021c8:	0007883a 	mov	r3,zero
  8021cc:	003bef06 	br	80118c <___vfprintf_internal_r+0x2c0>
  8021d0:	d941a017 	ldw	r5,1664(sp)
  8021d4:	2880040c 	andi	r2,r5,16
  8021d8:	10006326 	beq	r2,zero,802368 <___vfprintf_internal_r+0x149c>
  8021dc:	d8819f17 	ldw	r2,1660(sp)
  8021e0:	10c00017 	ldw	r3,0(r2)
  8021e4:	11c00104 	addi	r7,r2,4
  8021e8:	d9c19f15 	stw	r7,1660(sp)
  8021ec:	1823d7fa 	srai	r17,r3,31
  8021f0:	1821883a 	mov	r16,r3
  8021f4:	883d190e 	bge	r17,zero,80165c <___vfprintf_internal_r+0x790>
  8021f8:	003e2f06 	br	801ab8 <___vfprintf_internal_r+0xbec>
  8021fc:	d8c1a017 	ldw	r3,1664(sp)
  802200:	1880040c 	andi	r2,r3,16
  802204:	10006926 	beq	r2,zero,8023ac <___vfprintf_internal_r+0x14e0>
  802208:	d8819f17 	ldw	r2,1660(sp)
  80220c:	0023883a 	mov	r17,zero
  802210:	14000017 	ldw	r16,0(r2)
  802214:	11000104 	addi	r4,r2,4
  802218:	d9019f15 	stw	r4,1660(sp)
  80221c:	00c00044 	movi	r3,1
  802220:	003bda06 	br	80118c <___vfprintf_internal_r+0x2c0>
  802224:	d8800817 	ldw	r2,32(sp)
  802228:	d8c00717 	ldw	r3,28(sp)
  80222c:	94c00015 	stw	r19,0(r18)
  802230:	10800044 	addi	r2,r2,1
  802234:	18c00044 	addi	r3,r3,1
  802238:	d8800815 	stw	r2,32(sp)
  80223c:	008001c4 	movi	r2,7
  802240:	91000115 	stw	r4,4(r18)
  802244:	d8c00715 	stw	r3,28(sp)
  802248:	94800204 	addi	r18,r18,8
  80224c:	10ff1b0e 	bge	r2,r3,801ebc <___vfprintf_internal_r+0xff0>
  802250:	d9019e17 	ldw	r4,1656(sp)
  802254:	d8c00404 	addi	r3,sp,16
  802258:	19400204 	addi	r5,r3,8
  80225c:	0800e740 	call	800e74 <__sprint>
  802260:	103ed91e 	bne	r2,zero,801dc8 <___vfprintf_internal_r+0xefc>
  802264:	d9000404 	addi	r4,sp,16
  802268:	24800504 	addi	r18,r4,20
  80226c:	003f1306 	br	801ebc <___vfprintf_internal_r+0xff0>
  802270:	d9019e17 	ldw	r4,1656(sp)
  802274:	39400204 	addi	r5,r7,8
  802278:	0800e740 	call	800e74 <__sprint>
  80227c:	103ed21e 	bne	r2,zero,801dc8 <___vfprintf_internal_r+0xefc>
  802280:	dc019617 	ldw	r16,1624(sp)
  802284:	dc45883a 	add	r2,sp,r17
  802288:	14800504 	addi	r18,r2,20
  80228c:	003ef906 	br	801e74 <___vfprintf_internal_r+0xfa8>
  802290:	d8800817 	ldw	r2,32(sp)
  802294:	d8c00717 	ldw	r3,28(sp)
  802298:	040001c4 	movi	r16,7
  80229c:	1185883a 	add	r2,r2,r6
  8022a0:	18c00044 	addi	r3,r3,1
  8022a4:	94c00015 	stw	r19,0(r18)
  8022a8:	91800115 	stw	r6,4(r18)
  8022ac:	d8800815 	stw	r2,32(sp)
  8022b0:	d8c00715 	stw	r3,28(sp)
  8022b4:	94800204 	addi	r18,r18,8
  8022b8:	80c0ed16 	blt	r16,r3,802670 <___vfprintf_internal_r+0x17a4>
  8022bc:	d9000817 	ldw	r4,32(sp)
  8022c0:	d9400717 	ldw	r5,28(sp)
  8022c4:	00802074 	movhi	r2,129
  8022c8:	1080b704 	addi	r2,r2,732
  8022cc:	21000044 	addi	r4,r4,1
  8022d0:	29400044 	addi	r5,r5,1
  8022d4:	00c00044 	movi	r3,1
  8022d8:	90800015 	stw	r2,0(r18)
  8022dc:	90c00115 	stw	r3,4(r18)
  8022e0:	d9000815 	stw	r4,32(sp)
  8022e4:	99a7883a 	add	r19,r19,r6
  8022e8:	94800204 	addi	r18,r18,8
  8022ec:	d9400715 	stw	r5,28(sp)
  8022f0:	8140d616 	blt	r16,r5,80264c <___vfprintf_internal_r+0x1780>
  8022f4:	d8819617 	ldw	r2,1624(sp)
  8022f8:	d8c00817 	ldw	r3,32(sp)
  8022fc:	d9000717 	ldw	r4,28(sp)
  802300:	1185c83a 	sub	r2,r2,r6
  802304:	1887883a 	add	r3,r3,r2
  802308:	21000044 	addi	r4,r4,1
  80230c:	94c00015 	stw	r19,0(r18)
  802310:	90800115 	stw	r2,4(r18)
  802314:	d8c00815 	stw	r3,32(sp)
  802318:	d9000715 	stw	r4,28(sp)
  80231c:	94800204 	addi	r18,r18,8
  802320:	813c410e 	bge	r16,r4,801428 <___vfprintf_internal_r+0x55c>
  802324:	d9019e17 	ldw	r4,1656(sp)
  802328:	d8c00404 	addi	r3,sp,16
  80232c:	19400204 	addi	r5,r3,8
  802330:	0800e740 	call	800e74 <__sprint>
  802334:	103ea41e 	bne	r2,zero,801dc8 <___vfprintf_internal_r+0xefc>
  802338:	d9000404 	addi	r4,sp,16
  80233c:	24800504 	addi	r18,r4,20
  802340:	003c3906 	br	801428 <___vfprintf_internal_r+0x55c>
  802344:	d8c1a017 	ldw	r3,1664(sp)
  802348:	1880100c 	andi	r2,r3,64
  80234c:	1000af26 	beq	r2,zero,80260c <___vfprintf_internal_r+0x1740>
  802350:	d8819f17 	ldw	r2,1660(sp)
  802354:	0023883a 	mov	r17,zero
  802358:	1400000b 	ldhu	r16,0(r2)
  80235c:	11000104 	addi	r4,r2,4
  802360:	d9019f15 	stw	r4,1660(sp)
  802364:	003f9806 	br	8021c8 <___vfprintf_internal_r+0x12fc>
  802368:	d8c1a017 	ldw	r3,1664(sp)
  80236c:	1880100c 	andi	r2,r3,64
  802370:	10009b26 	beq	r2,zero,8025e0 <___vfprintf_internal_r+0x1714>
  802374:	d8819f17 	ldw	r2,1660(sp)
  802378:	10c0000f 	ldh	r3,0(r2)
  80237c:	11000104 	addi	r4,r2,4
  802380:	d9019f15 	stw	r4,1660(sp)
  802384:	003f9906 	br	8021ec <___vfprintf_internal_r+0x1320>
  802388:	d941a017 	ldw	r5,1664(sp)
  80238c:	2880100c 	andi	r2,r5,64
  802390:	1000a426 	beq	r2,zero,802624 <___vfprintf_internal_r+0x1758>
  802394:	d8819f17 	ldw	r2,1660(sp)
  802398:	0023883a 	mov	r17,zero
  80239c:	1400000b 	ldhu	r16,0(r2)
  8023a0:	11c00104 	addi	r7,r2,4
  8023a4:	d9c19f15 	stw	r7,1660(sp)
  8023a8:	003d4d06 	br	8018e0 <___vfprintf_internal_r+0xa14>
  8023ac:	d941a017 	ldw	r5,1664(sp)
  8023b0:	2880100c 	andi	r2,r5,64
  8023b4:	10008f26 	beq	r2,zero,8025f4 <___vfprintf_internal_r+0x1728>
  8023b8:	d8819f17 	ldw	r2,1660(sp)
  8023bc:	0023883a 	mov	r17,zero
  8023c0:	1400000b 	ldhu	r16,0(r2)
  8023c4:	11c00104 	addi	r7,r2,4
  8023c8:	d9c19f15 	stw	r7,1660(sp)
  8023cc:	003f9306 	br	80221c <___vfprintf_internal_r+0x1350>
  8023d0:	d8c1a017 	ldw	r3,1664(sp)
  8023d4:	1880040c 	andi	r2,r3,16
  8023d8:	10007726 	beq	r2,zero,8025b8 <___vfprintf_internal_r+0x16ec>
  8023dc:	d8819f17 	ldw	r2,1660(sp)
  8023e0:	d941a117 	ldw	r5,1668(sp)
  8023e4:	10c00017 	ldw	r3,0(r2)
  8023e8:	11000104 	addi	r4,r2,4
  8023ec:	d9019f15 	stw	r4,1660(sp)
  8023f0:	19400015 	stw	r5,0(r3)
  8023f4:	003adc06 	br	800f68 <___vfprintf_internal_r+0x9c>
  8023f8:	d9019e17 	ldw	r4,1656(sp)
  8023fc:	d8c00404 	addi	r3,sp,16
  802400:	19400204 	addi	r5,r3,8
  802404:	0800e740 	call	800e74 <__sprint>
  802408:	103e6f1e 	bne	r2,zero,801dc8 <___vfprintf_internal_r+0xefc>
  80240c:	d9000404 	addi	r4,sp,16
  802410:	24800504 	addi	r18,r4,20
  802414:	003e2506 	br	801cac <___vfprintf_internal_r+0xde0>
  802418:	d8819f17 	ldw	r2,1660(sp)
  80241c:	05c00044 	movi	r23,1
  802420:	10c00017 	ldw	r3,0(r2)
  802424:	11400104 	addi	r5,r2,4
  802428:	d9419f15 	stw	r5,1660(sp)
  80242c:	98c00005 	stb	r3,0(r19)
  802430:	d8019c05 	stb	zero,1648(sp)
  802434:	003b6c06 	br	8011e8 <___vfprintf_internal_r+0x31c>
  802438:	a03d6b1e 	bne	r20,zero,8019e8 <___vfprintf_internal_r+0xb1c>
  80243c:	05000044 	movi	r20,1
  802440:	003d6906 	br	8019e8 <___vfprintf_internal_r+0xb1c>
  802444:	a03b6516 	blt	r20,zero,8011dc <___vfprintf_internal_r+0x310>
  802448:	9809883a 	mov	r4,r19
  80244c:	000b883a 	mov	r5,zero
  802450:	a00d883a 	mov	r6,r20
  802454:	08055700 	call	805570 <memchr>
  802458:	a02f883a 	mov	r23,r20
  80245c:	103b6226 	beq	r2,zero,8011e8 <___vfprintf_internal_r+0x31c>
  802460:	14efc83a 	sub	r23,r2,r19
  802464:	a5fb600e 	bge	r20,r23,8011e8 <___vfprintf_internal_r+0x31c>
  802468:	a02f883a 	mov	r23,r20
  80246c:	003b5e06 	br	8011e8 <___vfprintf_internal_r+0x31c>
  802470:	d9019e17 	ldw	r4,1656(sp)
  802474:	d8800404 	addi	r2,sp,16
  802478:	11400204 	addi	r5,r2,8
  80247c:	0800e740 	call	800e74 <__sprint>
  802480:	103e511e 	bne	r2,zero,801dc8 <___vfprintf_internal_r+0xefc>
  802484:	dc019617 	ldw	r16,1624(sp)
  802488:	d8c00404 	addi	r3,sp,16
  80248c:	1c800504 	addi	r18,r3,20
  802490:	003e1706 	br	801cf0 <___vfprintf_internal_r+0xe24>
  802494:	d8800817 	ldw	r2,32(sp)
  802498:	d9000717 	ldw	r4,28(sp)
  80249c:	04000044 	movi	r16,1
  8024a0:	10800044 	addi	r2,r2,1
  8024a4:	21000044 	addi	r4,r4,1
  8024a8:	00c02074 	movhi	r3,129
  8024ac:	18c0b604 	addi	r3,r3,728
  8024b0:	050001c4 	movi	r20,7
  8024b4:	90c00015 	stw	r3,0(r18)
  8024b8:	94000115 	stw	r16,4(r18)
  8024bc:	d8800815 	stw	r2,32(sp)
  8024c0:	d9000715 	stw	r4,28(sp)
  8024c4:	94800204 	addi	r18,r18,8
  8024c8:	a100ed16 	blt	r20,r4,802880 <___vfprintf_internal_r+0x19b4>
  8024cc:	3000021e 	bne	r6,zero,8024d8 <___vfprintf_internal_r+0x160c>
  8024d0:	d8819617 	ldw	r2,1624(sp)
  8024d4:	103bd426 	beq	r2,zero,801428 <___vfprintf_internal_r+0x55c>
  8024d8:	d8800817 	ldw	r2,32(sp)
  8024dc:	d8c00717 	ldw	r3,28(sp)
  8024e0:	d941a317 	ldw	r5,1676(sp)
  8024e4:	10800044 	addi	r2,r2,1
  8024e8:	18c00044 	addi	r3,r3,1
  8024ec:	94000115 	stw	r16,4(r18)
  8024f0:	91400015 	stw	r5,0(r18)
  8024f4:	d8800815 	stw	r2,32(sp)
  8024f8:	d8c00715 	stw	r3,28(sp)
  8024fc:	94800204 	addi	r18,r18,8
  802500:	a0c13316 	blt	r20,r3,8029d0 <___vfprintf_internal_r+0x1b04>
  802504:	01a1c83a 	sub	r16,zero,r6
  802508:	0400f30e 	bge	zero,r16,8028d8 <___vfprintf_internal_r+0x1a0c>
  80250c:	04400404 	movi	r17,16
  802510:	8c00e40e 	bge	r17,r16,8028a4 <___vfprintf_internal_r+0x19d8>
  802514:	a02b883a 	mov	r21,r20
  802518:	8829883a 	mov	r20,r17
  80251c:	00000206 	br	802528 <___vfprintf_internal_r+0x165c>
  802520:	843ffc04 	addi	r16,r16,-16
  802524:	a400df0e 	bge	r20,r16,8028a4 <___vfprintf_internal_r+0x19d8>
  802528:	00c02074 	movhi	r3,129
  80252c:	18c04704 	addi	r3,r3,284
  802530:	90c00015 	stw	r3,0(r18)
  802534:	d8800817 	ldw	r2,32(sp)
  802538:	d8c00717 	ldw	r3,28(sp)
  80253c:	94400115 	stw	r17,4(r18)
  802540:	10800404 	addi	r2,r2,16
  802544:	18c00044 	addi	r3,r3,1
  802548:	d8800815 	stw	r2,32(sp)
  80254c:	d8c00715 	stw	r3,28(sp)
  802550:	94800204 	addi	r18,r18,8
  802554:	a8fff20e 	bge	r21,r3,802520 <___vfprintf_internal_r+0x1654>
  802558:	d9019e17 	ldw	r4,1656(sp)
  80255c:	d9c00404 	addi	r7,sp,16
  802560:	39400204 	addi	r5,r7,8
  802564:	0800e740 	call	800e74 <__sprint>
  802568:	103e171e 	bne	r2,zero,801dc8 <___vfprintf_internal_r+0xefc>
  80256c:	d8800404 	addi	r2,sp,16
  802570:	14800504 	addi	r18,r2,20
  802574:	003fea06 	br	802520 <___vfprintf_internal_r+0x1654>
  802578:	d901a417 	ldw	r4,1680(sp)
  80257c:	d941a517 	ldw	r5,1684(sp)
  802580:	0806d9c0 	call	806d9c <isnan>
  802584:	10004d26 	beq	r2,zero,8026bc <___vfprintf_internal_r+0x17f0>
  802588:	04c02074 	movhi	r19,129
  80258c:	9cc0b804 	addi	r19,r19,736
  802590:	05c000c4 	movi	r23,3
  802594:	003b1406 	br	8011e8 <___vfprintf_internal_r+0x31c>
  802598:	d8c1a017 	ldw	r3,1664(sp)
  80259c:	b5800044 	addi	r22,r22,1
  8025a0:	b1000003 	ldbu	r4,0(r22)
  8025a4:	18c00814 	ori	r3,r3,32
  8025a8:	d8c1a015 	stw	r3,1664(sp)
  8025ac:	003a9806 	br	801010 <___vfprintf_internal_r+0x144>
  8025b0:	05000184 	movi	r20,6
  8025b4:	003d0c06 	br	8019e8 <___vfprintf_internal_r+0xb1c>
  8025b8:	d9c1a017 	ldw	r7,1664(sp)
  8025bc:	3880100c 	andi	r2,r7,64
  8025c0:	1000a826 	beq	r2,zero,802864 <___vfprintf_internal_r+0x1998>
  8025c4:	d8819f17 	ldw	r2,1660(sp)
  8025c8:	d901a117 	ldw	r4,1668(sp)
  8025cc:	10c00017 	ldw	r3,0(r2)
  8025d0:	10800104 	addi	r2,r2,4
  8025d4:	d8819f15 	stw	r2,1660(sp)
  8025d8:	1900000d 	sth	r4,0(r3)
  8025dc:	003a6206 	br	800f68 <___vfprintf_internal_r+0x9c>
  8025e0:	d8819f17 	ldw	r2,1660(sp)
  8025e4:	10c00017 	ldw	r3,0(r2)
  8025e8:	11400104 	addi	r5,r2,4
  8025ec:	d9419f15 	stw	r5,1660(sp)
  8025f0:	003efe06 	br	8021ec <___vfprintf_internal_r+0x1320>
  8025f4:	d8819f17 	ldw	r2,1660(sp)
  8025f8:	0023883a 	mov	r17,zero
  8025fc:	14000017 	ldw	r16,0(r2)
  802600:	10800104 	addi	r2,r2,4
  802604:	d8819f15 	stw	r2,1660(sp)
  802608:	003f0406 	br	80221c <___vfprintf_internal_r+0x1350>
  80260c:	d8819f17 	ldw	r2,1660(sp)
  802610:	0023883a 	mov	r17,zero
  802614:	14000017 	ldw	r16,0(r2)
  802618:	11400104 	addi	r5,r2,4
  80261c:	d9419f15 	stw	r5,1660(sp)
  802620:	003ee906 	br	8021c8 <___vfprintf_internal_r+0x12fc>
  802624:	d8819f17 	ldw	r2,1660(sp)
  802628:	0023883a 	mov	r17,zero
  80262c:	14000017 	ldw	r16,0(r2)
  802630:	10800104 	addi	r2,r2,4
  802634:	d8819f15 	stw	r2,1660(sp)
  802638:	003ca906 	br	8018e0 <___vfprintf_internal_r+0xa14>
  80263c:	04c02074 	movhi	r19,129
  802640:	9cc0b904 	addi	r19,r19,740
  802644:	05c00184 	movi	r23,6
  802648:	003ae706 	br	8011e8 <___vfprintf_internal_r+0x31c>
  80264c:	d9019e17 	ldw	r4,1656(sp)
  802650:	d9c00404 	addi	r7,sp,16
  802654:	39400204 	addi	r5,r7,8
  802658:	0800e740 	call	800e74 <__sprint>
  80265c:	103dda1e 	bne	r2,zero,801dc8 <___vfprintf_internal_r+0xefc>
  802660:	d9819517 	ldw	r6,1620(sp)
  802664:	d8800404 	addi	r2,sp,16
  802668:	14800504 	addi	r18,r2,20
  80266c:	003f2106 	br	8022f4 <___vfprintf_internal_r+0x1428>
  802670:	d9019e17 	ldw	r4,1656(sp)
  802674:	d8c00404 	addi	r3,sp,16
  802678:	19400204 	addi	r5,r3,8
  80267c:	0800e740 	call	800e74 <__sprint>
  802680:	103dd11e 	bne	r2,zero,801dc8 <___vfprintf_internal_r+0xefc>
  802684:	d9819517 	ldw	r6,1620(sp)
  802688:	d9000404 	addi	r4,sp,16
  80268c:	24800504 	addi	r18,r4,20
  802690:	003f0a06 	br	8022bc <___vfprintf_internal_r+0x13f0>
  802694:	d9019e17 	ldw	r4,1656(sp)
  802698:	d9c00404 	addi	r7,sp,16
  80269c:	39400204 	addi	r5,r7,8
  8026a0:	0800e740 	call	800e74 <__sprint>
  8026a4:	103dc81e 	bne	r2,zero,801dc8 <___vfprintf_internal_r+0xefc>
  8026a8:	d9819517 	ldw	r6,1620(sp)
  8026ac:	dc019617 	ldw	r16,1624(sp)
  8026b0:	d8800404 	addi	r2,sp,16
  8026b4:	14800504 	addi	r18,r2,20
  8026b8:	003e4506 	br	801fd0 <___vfprintf_internal_r+0x1104>
  8026bc:	d881a417 	ldw	r2,1680(sp)
  8026c0:	d8c1a017 	ldw	r3,1664(sp)
  8026c4:	d901a517 	ldw	r4,1684(sp)
  8026c8:	1021883a 	mov	r16,r2
  8026cc:	18c04014 	ori	r3,r3,256
  8026d0:	00801984 	movi	r2,102
  8026d4:	d8c1a015 	stw	r3,1664(sp)
  8026d8:	2023883a 	mov	r17,r4
  8026dc:	a02f883a 	mov	r23,r20
  8026e0:	d9819404 	addi	r6,sp,1616
  8026e4:	01c000c4 	movi	r7,3
  8026e8:	e0800526 	beq	fp,r2,802700 <___vfprintf_internal_r+0x1834>
  8026ec:	00801944 	movi	r2,101
  8026f0:	e0808626 	beq	fp,r2,80290c <___vfprintf_internal_r+0x1a40>
  8026f4:	00801144 	movi	r2,69
  8026f8:	e0808426 	beq	fp,r2,80290c <___vfprintf_internal_r+0x1a40>
  8026fc:	01c00084 	movi	r7,2
  802700:	8800e316 	blt	r17,zero,802a90 <___vfprintf_internal_r+0x1bc4>
  802704:	30000005 	stb	zero,0(r6)
  802708:	d9019d17 	ldw	r4,1652(sp)
  80270c:	d8819704 	addi	r2,sp,1628
  802710:	d8800215 	stw	r2,8(sp)
  802714:	d8c19804 	addi	r3,sp,1632
  802718:	d8819504 	addi	r2,sp,1620
  80271c:	800b883a 	mov	r5,r16
  802720:	880d883a 	mov	r6,r17
  802724:	d8c00315 	stw	r3,12(sp)
  802728:	ddc00015 	stw	r23,0(sp)
  80272c:	d8800115 	stw	r2,4(sp)
  802730:	08035400 	call	803540 <_dtoa_r>
  802734:	102b883a 	mov	r21,r2
  802738:	008019c4 	movi	r2,103
  80273c:	e0808d26 	beq	fp,r2,802974 <___vfprintf_internal_r+0x1aa8>
  802740:	008011c4 	movi	r2,71
  802744:	e0808b26 	beq	fp,r2,802974 <___vfprintf_internal_r+0x1aa8>
  802748:	00801984 	movi	r2,102
  80274c:	ade7883a 	add	r19,r21,r23
  802750:	e080be26 	beq	fp,r2,802a4c <___vfprintf_internal_r+0x1b80>
  802754:	000d883a 	mov	r6,zero
  802758:	000f883a 	mov	r7,zero
  80275c:	880b883a 	mov	r5,r17
  802760:	8009883a 	mov	r4,r16
  802764:	08089bc0 	call	8089bc <__eqdf2>
  802768:	1000a21e 	bne	r2,zero,8029f4 <___vfprintf_internal_r+0x1b28>
  80276c:	9805883a 	mov	r2,r19
  802770:	dcc19815 	stw	r19,1632(sp)
  802774:	14c0052e 	bgeu	r2,r19,80278c <___vfprintf_internal_r+0x18c0>
  802778:	00c00c04 	movi	r3,48
  80277c:	10c00005 	stb	r3,0(r2)
  802780:	10800044 	addi	r2,r2,1
  802784:	d8819815 	stw	r2,1632(sp)
  802788:	14fffc36 	bltu	r2,r19,80277c <___vfprintf_internal_r+0x18b0>
  80278c:	1545c83a 	sub	r2,r2,r21
  802790:	00c019c4 	movi	r3,103
  802794:	d8819615 	stw	r2,1624(sp)
  802798:	a827883a 	mov	r19,r21
  80279c:	e0c06c26 	beq	fp,r3,802950 <___vfprintf_internal_r+0x1a84>
  8027a0:	008011c4 	movi	r2,71
  8027a4:	e0806a26 	beq	fp,r2,802950 <___vfprintf_internal_r+0x1a84>
  8027a8:	d9819517 	ldw	r6,1620(sp)
  8027ac:	00801944 	movi	r2,101
  8027b0:	17005916 	blt	r2,fp,802918 <___vfprintf_internal_r+0x1a4c>
  8027b4:	31bfffc4 	addi	r6,r6,-1
  8027b8:	d9819515 	stw	r6,1620(sp)
  8027bc:	df000405 	stb	fp,16(sp)
  8027c0:	3023883a 	mov	r17,r6
  8027c4:	dd000444 	addi	r20,sp,17
  8027c8:	3000cb16 	blt	r6,zero,802af8 <___vfprintf_internal_r+0x1c2c>
  8027cc:	00800ac4 	movi	r2,43
  8027d0:	a0800005 	stb	r2,0(r20)
  8027d4:	d9000404 	addi	r4,sp,16
  8027d8:	00800244 	movi	r2,9
  8027dc:	dd000484 	addi	r20,sp,18
  8027e0:	24018e04 	addi	r16,r4,1592
  8027e4:	1440680e 	bge	r2,r17,802988 <___vfprintf_internal_r+0x1abc>
  8027e8:	102b883a 	mov	r21,r2
  8027ec:	8809883a 	mov	r4,r17
  8027f0:	01400284 	movi	r5,10
  8027f4:	08006800 	call	800680 <__modsi3>
  8027f8:	10800c04 	addi	r2,r2,48
  8027fc:	843fffc4 	addi	r16,r16,-1
  802800:	8809883a 	mov	r4,r17
  802804:	01400284 	movi	r5,10
  802808:	80800005 	stb	r2,0(r16)
  80280c:	08006300 	call	800630 <__divsi3>
  802810:	1023883a 	mov	r17,r2
  802814:	a8bff516 	blt	r21,r2,8027ec <___vfprintf_internal_r+0x1920>
  802818:	843fffc4 	addi	r16,r16,-1
  80281c:	10800c04 	addi	r2,r2,48
  802820:	d9c00404 	addi	r7,sp,16
  802824:	39418e04 	addi	r5,r7,1592
  802828:	80800005 	stb	r2,0(r16)
  80282c:	81405c2e 	bgeu	r16,r5,8029a0 <___vfprintf_internal_r+0x1ad4>
  802830:	80800003 	ldbu	r2,0(r16)
  802834:	84000044 	addi	r16,r16,1
  802838:	a0800005 	stb	r2,0(r20)
  80283c:	a5000044 	addi	r20,r20,1
  802840:	003ffa06 	br	80282c <___vfprintf_internal_r+0x1960>
  802844:	d9019e17 	ldw	r4,1656(sp)
  802848:	d9c00404 	addi	r7,sp,16
  80284c:	39400204 	addi	r5,r7,8
  802850:	0800e740 	call	800e74 <__sprint>
  802854:	103d5c1e 	bne	r2,zero,801dc8 <___vfprintf_internal_r+0xefc>
  802858:	d8800404 	addi	r2,sp,16
  80285c:	14800504 	addi	r18,r2,20
  802860:	003e0506 	br	802078 <___vfprintf_internal_r+0x11ac>
  802864:	d8819f17 	ldw	r2,1660(sp)
  802868:	d9c1a117 	ldw	r7,1668(sp)
  80286c:	10c00017 	ldw	r3,0(r2)
  802870:	11400104 	addi	r5,r2,4
  802874:	d9419f15 	stw	r5,1660(sp)
  802878:	19c00015 	stw	r7,0(r3)
  80287c:	0039ba06 	br	800f68 <___vfprintf_internal_r+0x9c>
  802880:	d9019e17 	ldw	r4,1656(sp)
  802884:	d8c00404 	addi	r3,sp,16
  802888:	19400204 	addi	r5,r3,8
  80288c:	0800e740 	call	800e74 <__sprint>
  802890:	103d4d1e 	bne	r2,zero,801dc8 <___vfprintf_internal_r+0xefc>
  802894:	d9819517 	ldw	r6,1620(sp)
  802898:	d9000404 	addi	r4,sp,16
  80289c:	24800504 	addi	r18,r4,20
  8028a0:	003f0a06 	br	8024cc <___vfprintf_internal_r+0x1600>
  8028a4:	d8800817 	ldw	r2,32(sp)
  8028a8:	d8c00717 	ldw	r3,28(sp)
  8028ac:	01002074 	movhi	r4,129
  8028b0:	21004704 	addi	r4,r4,284
  8028b4:	1405883a 	add	r2,r2,r16
  8028b8:	18c00044 	addi	r3,r3,1
  8028bc:	d8800815 	stw	r2,32(sp)
  8028c0:	008001c4 	movi	r2,7
  8028c4:	91000015 	stw	r4,0(r18)
  8028c8:	94000115 	stw	r16,4(r18)
  8028cc:	d8c00715 	stw	r3,28(sp)
  8028d0:	94800204 	addi	r18,r18,8
  8028d4:	10c04916 	blt	r2,r3,8029fc <___vfprintf_internal_r+0x1b30>
  8028d8:	d9019617 	ldw	r4,1624(sp)
  8028dc:	d8800817 	ldw	r2,32(sp)
  8028e0:	d8c00717 	ldw	r3,28(sp)
  8028e4:	94c00015 	stw	r19,0(r18)
  8028e8:	1105883a 	add	r2,r2,r4
  8028ec:	18c00044 	addi	r3,r3,1
  8028f0:	d8800815 	stw	r2,32(sp)
  8028f4:	008001c4 	movi	r2,7
  8028f8:	91000115 	stw	r4,4(r18)
  8028fc:	d8c00715 	stw	r3,28(sp)
  802900:	94800204 	addi	r18,r18,8
  802904:	10fac80e 	bge	r2,r3,801428 <___vfprintf_internal_r+0x55c>
  802908:	003e8606 	br	802324 <___vfprintf_internal_r+0x1458>
  80290c:	a5c00044 	addi	r23,r20,1
  802910:	01c00084 	movi	r7,2
  802914:	003f7a06 	br	802700 <___vfprintf_internal_r+0x1834>
  802918:	00801984 	movi	r2,102
  80291c:	e0806d26 	beq	fp,r2,802ad4 <___vfprintf_internal_r+0x1c08>
  802920:	d8819617 	ldw	r2,1624(sp)
  802924:	30806416 	blt	r6,r2,802ab8 <___vfprintf_internal_r+0x1bec>
  802928:	d9c1a017 	ldw	r7,1664(sp)
  80292c:	302f883a 	mov	r23,r6
  802930:	3880004c 	andi	r2,r7,1
  802934:	10000126 	beq	r2,zero,80293c <___vfprintf_internal_r+0x1a70>
  802938:	35c00044 	addi	r23,r6,1
  80293c:	d8819407 	ldb	r2,1616(sp)
  802940:	103a2926 	beq	r2,zero,8011e8 <___vfprintf_internal_r+0x31c>
  802944:	00800b44 	movi	r2,45
  802948:	d8819c05 	stb	r2,1648(sp)
  80294c:	003a2606 	br	8011e8 <___vfprintf_internal_r+0x31c>
  802950:	d9819517 	ldw	r6,1620(sp)
  802954:	00bfff04 	movi	r2,-4
  802958:	1180010e 	bge	r2,r6,802960 <___vfprintf_internal_r+0x1a94>
  80295c:	a1805b0e 	bge	r20,r6,802acc <___vfprintf_internal_r+0x1c00>
  802960:	00801944 	movi	r2,101
  802964:	e0c00126 	beq	fp,r3,80296c <___vfprintf_internal_r+0x1aa0>
  802968:	00801144 	movi	r2,69
  80296c:	1039883a 	mov	fp,r2
  802970:	003f8e06 	br	8027ac <___vfprintf_internal_r+0x18e0>
  802974:	d8c1a017 	ldw	r3,1664(sp)
  802978:	1880004c 	andi	r2,r3,1
  80297c:	103f721e 	bne	r2,zero,802748 <___vfprintf_internal_r+0x187c>
  802980:	d8819817 	ldw	r2,1632(sp)
  802984:	003f8106 	br	80278c <___vfprintf_internal_r+0x18c0>
  802988:	00800c04 	movi	r2,48
  80298c:	a0800005 	stb	r2,0(r20)
  802990:	88c00c04 	addi	r3,r17,48
  802994:	a5000044 	addi	r20,r20,1
  802998:	a0c00005 	stb	r3,0(r20)
  80299c:	a5000044 	addi	r20,r20,1
  8029a0:	d8c19617 	ldw	r3,1624(sp)
  8029a4:	d8800404 	addi	r2,sp,16
  8029a8:	a085c83a 	sub	r2,r20,r2
  8029ac:	d881a615 	stw	r2,1688(sp)
  8029b0:	10ef883a 	add	r23,r2,r3
  8029b4:	00800044 	movi	r2,1
  8029b8:	10c00316 	blt	r2,r3,8029c8 <___vfprintf_internal_r+0x1afc>
  8029bc:	d8c1a017 	ldw	r3,1664(sp)
  8029c0:	1884703a 	and	r2,r3,r2
  8029c4:	103fdd26 	beq	r2,zero,80293c <___vfprintf_internal_r+0x1a70>
  8029c8:	bdc00044 	addi	r23,r23,1
  8029cc:	003fdb06 	br	80293c <___vfprintf_internal_r+0x1a70>
  8029d0:	d9019e17 	ldw	r4,1656(sp)
  8029d4:	d9c00404 	addi	r7,sp,16
  8029d8:	39400204 	addi	r5,r7,8
  8029dc:	0800e740 	call	800e74 <__sprint>
  8029e0:	103cf91e 	bne	r2,zero,801dc8 <___vfprintf_internal_r+0xefc>
  8029e4:	d9819517 	ldw	r6,1620(sp)
  8029e8:	d8800404 	addi	r2,sp,16
  8029ec:	14800504 	addi	r18,r2,20
  8029f0:	003ec406 	br	802504 <___vfprintf_internal_r+0x1638>
  8029f4:	d8819817 	ldw	r2,1632(sp)
  8029f8:	003f5e06 	br	802774 <___vfprintf_internal_r+0x18a8>
  8029fc:	d9019e17 	ldw	r4,1656(sp)
  802a00:	d9c00404 	addi	r7,sp,16
  802a04:	39400204 	addi	r5,r7,8
  802a08:	0800e740 	call	800e74 <__sprint>
  802a0c:	103cee1e 	bne	r2,zero,801dc8 <___vfprintf_internal_r+0xefc>
  802a10:	d8800404 	addi	r2,sp,16
  802a14:	14800504 	addi	r18,r2,20
  802a18:	003faf06 	br	8028d8 <___vfprintf_internal_r+0x1a0c>
  802a1c:	d9019d17 	ldw	r4,1652(sp)
  802a20:	d8819904 	addi	r2,sp,1636
  802a24:	000b883a 	mov	r5,zero
  802a28:	d9819b04 	addi	r6,sp,1644
  802a2c:	000f883a 	mov	r7,zero
  802a30:	d8800015 	stw	r2,0(sp)
  802a34:	0802c380 	call	802c38 <_wcsrtombs_r>
  802a38:	102f883a 	mov	r23,r2
  802a3c:	00bfffc4 	movi	r2,-1
  802a40:	b8bce126 	beq	r23,r2,801dc8 <___vfprintf_internal_r+0xefc>
  802a44:	dcc19b15 	stw	r19,1644(sp)
  802a48:	003b3f06 	br	801748 <___vfprintf_internal_r+0x87c>
  802a4c:	a8c00007 	ldb	r3,0(r21)
  802a50:	00800c04 	movi	r2,48
  802a54:	18800326 	beq	r3,r2,802a64 <___vfprintf_internal_r+0x1b98>
  802a58:	d8819517 	ldw	r2,1620(sp)
  802a5c:	98a7883a 	add	r19,r19,r2
  802a60:	003f3c06 	br	802754 <___vfprintf_internal_r+0x1888>
  802a64:	000d883a 	mov	r6,zero
  802a68:	000f883a 	mov	r7,zero
  802a6c:	8009883a 	mov	r4,r16
  802a70:	880b883a 	mov	r5,r17
  802a74:	0808a480 	call	808a48 <__nedf2>
  802a78:	103ff726 	beq	r2,zero,802a58 <___vfprintf_internal_r+0x1b8c>
  802a7c:	00800044 	movi	r2,1
  802a80:	15c5c83a 	sub	r2,r2,r23
  802a84:	98a7883a 	add	r19,r19,r2
  802a88:	d8819515 	stw	r2,1620(sp)
  802a8c:	003f3106 	br	802754 <___vfprintf_internal_r+0x1888>
  802a90:	0005883a 	mov	r2,zero
  802a94:	00e00034 	movhi	r3,32768
  802a98:	18c00004 	addi	r3,r3,0
  802a9c:	1408f03a 	xor	r4,r2,r16
  802aa0:	88caf03a 	xor	r5,r17,r3
  802aa4:	00800b44 	movi	r2,45
  802aa8:	2021883a 	mov	r16,r4
  802aac:	2823883a 	mov	r17,r5
  802ab0:	30800005 	stb	r2,0(r6)
  802ab4:	003f1406 	br	802708 <___vfprintf_internal_r+0x183c>
  802ab8:	15c00044 	addi	r23,r2,1
  802abc:	01bf9f16 	blt	zero,r6,80293c <___vfprintf_internal_r+0x1a70>
  802ac0:	1185c83a 	sub	r2,r2,r6
  802ac4:	15c00084 	addi	r23,r2,2
  802ac8:	003f9c06 	br	80293c <___vfprintf_internal_r+0x1a70>
  802acc:	1839883a 	mov	fp,r3
  802ad0:	003f3606 	br	8027ac <___vfprintf_internal_r+0x18e0>
  802ad4:	01800c0e 	bge	zero,r6,802b08 <___vfprintf_internal_r+0x1c3c>
  802ad8:	302f883a 	mov	r23,r6
  802adc:	a000031e 	bne	r20,zero,802aec <___vfprintf_internal_r+0x1c20>
  802ae0:	d901a017 	ldw	r4,1664(sp)
  802ae4:	2080004c 	andi	r2,r4,1
  802ae8:	103f9426 	beq	r2,zero,80293c <___vfprintf_internal_r+0x1a70>
  802aec:	a185883a 	add	r2,r20,r6
  802af0:	15c00044 	addi	r23,r2,1
  802af4:	003f9106 	br	80293c <___vfprintf_internal_r+0x1a70>
  802af8:	00800b44 	movi	r2,45
  802afc:	01a3c83a 	sub	r17,zero,r6
  802b00:	a0800005 	stb	r2,0(r20)
  802b04:	003f3306 	br	8027d4 <___vfprintf_internal_r+0x1908>
  802b08:	a000041e 	bne	r20,zero,802b1c <___vfprintf_internal_r+0x1c50>
  802b0c:	d941a017 	ldw	r5,1664(sp)
  802b10:	05c00044 	movi	r23,1
  802b14:	2880004c 	andi	r2,r5,1
  802b18:	103f8826 	beq	r2,zero,80293c <___vfprintf_internal_r+0x1a70>
  802b1c:	a5c00084 	addi	r23,r20,2
  802b20:	003f8606 	br	80293c <___vfprintf_internal_r+0x1a70>
  802b24:	d8819f17 	ldw	r2,1660(sp)
  802b28:	15000017 	ldw	r20,0(r2)
  802b2c:	10c00104 	addi	r3,r2,4
  802b30:	d8c19f15 	stw	r3,1660(sp)
  802b34:	a03bde0e 	bge	r20,zero,801ab0 <___vfprintf_internal_r+0xbe4>
  802b38:	b1000003 	ldbu	r4,0(r22)
  802b3c:	053fffc4 	movi	r20,-1
  802b40:	00393306 	br	801010 <___vfprintf_internal_r+0x144>

00802b44 <__vfprintf_internal>:
  802b44:	d0e00a17 	ldw	r3,-32728(gp)
  802b48:	defffc04 	addi	sp,sp,-16
  802b4c:	dc000215 	stw	r16,8(sp)
  802b50:	dc400115 	stw	r17,4(sp)
  802b54:	dc800015 	stw	r18,0(sp)
  802b58:	dfc00315 	stw	ra,12(sp)
  802b5c:	18800e17 	ldw	r2,56(r3)
  802b60:	2023883a 	mov	r17,r4
  802b64:	2825883a 	mov	r18,r5
  802b68:	1809883a 	mov	r4,r3
  802b6c:	3021883a 	mov	r16,r6
  802b70:	10000c26 	beq	r2,zero,802ba4 <__vfprintf_internal+0x60>
  802b74:	1809883a 	mov	r4,r3
  802b78:	880b883a 	mov	r5,r17
  802b7c:	900d883a 	mov	r6,r18
  802b80:	800f883a 	mov	r7,r16
  802b84:	02002034 	movhi	r8,128
  802b88:	4203b304 	addi	r8,r8,3788
  802b8c:	dfc00317 	ldw	ra,12(sp)
  802b90:	dc000217 	ldw	r16,8(sp)
  802b94:	dc400117 	ldw	r17,4(sp)
  802b98:	dc800017 	ldw	r18,0(sp)
  802b9c:	dec00404 	addi	sp,sp,16
  802ba0:	4000683a 	jmp	r8
  802ba4:	0804a900 	call	804a90 <__sinit>
  802ba8:	d0e00a17 	ldw	r3,-32728(gp)
  802bac:	003ff106 	br	802b74 <__vfprintf_internal+0x30>

00802bb0 <_wcrtomb_r>:
  802bb0:	defffa04 	addi	sp,sp,-24
  802bb4:	dc000415 	stw	r16,16(sp)
  802bb8:	dc400315 	stw	r17,12(sp)
  802bbc:	dfc00515 	stw	ra,20(sp)
  802bc0:	2023883a 	mov	r17,r4
  802bc4:	3821883a 	mov	r16,r7
  802bc8:	28000b26 	beq	r5,zero,802bf8 <_wcrtomb_r+0x48>
  802bcc:	0802db40 	call	802db4 <_wctomb_r>
  802bd0:	1007883a 	mov	r3,r2
  802bd4:	1009883a 	mov	r4,r2
  802bd8:	00bfffc4 	movi	r2,-1
  802bdc:	18800926 	beq	r3,r2,802c04 <_wcrtomb_r+0x54>
  802be0:	2005883a 	mov	r2,r4
  802be4:	dfc00517 	ldw	ra,20(sp)
  802be8:	dc000417 	ldw	r16,16(sp)
  802bec:	dc400317 	ldw	r17,12(sp)
  802bf0:	dec00604 	addi	sp,sp,24
  802bf4:	f800283a 	ret
  802bf8:	d80b883a 	mov	r5,sp
  802bfc:	000d883a 	mov	r6,zero
  802c00:	003ff206 	br	802bcc <_wcrtomb_r+0x1c>
  802c04:	80000015 	stw	zero,0(r16)
  802c08:	00802284 	movi	r2,138
  802c0c:	88800015 	stw	r2,0(r17)
  802c10:	003ff306 	br	802be0 <_wcrtomb_r+0x30>

00802c14 <wcrtomb>:
  802c14:	2013883a 	mov	r9,r4
  802c18:	d1200a17 	ldw	r4,-32728(gp)
  802c1c:	2807883a 	mov	r3,r5
  802c20:	300f883a 	mov	r7,r6
  802c24:	480b883a 	mov	r5,r9
  802c28:	180d883a 	mov	r6,r3
  802c2c:	02002034 	movhi	r8,128
  802c30:	420aec04 	addi	r8,r8,11184
  802c34:	4000683a 	jmp	r8

00802c38 <_wcsrtombs_r>:
  802c38:	defff204 	addi	sp,sp,-56
  802c3c:	dc000b15 	stw	r16,44(sp)
  802c40:	dc800915 	stw	r18,36(sp)
  802c44:	dd000715 	stw	r20,28(sp)
  802c48:	ddc00415 	stw	r23,16(sp)
  802c4c:	dfc00d15 	stw	ra,52(sp)
  802c50:	df000c15 	stw	fp,48(sp)
  802c54:	dc400a15 	stw	r17,40(sp)
  802c58:	dcc00815 	stw	r19,32(sp)
  802c5c:	dd400615 	stw	r21,24(sp)
  802c60:	dd800515 	stw	r22,20(sp)
  802c64:	2821883a 	mov	r16,r5
  802c68:	d9000315 	stw	r4,12(sp)
  802c6c:	302f883a 	mov	r23,r6
  802c70:	3825883a 	mov	r18,r7
  802c74:	dd000e17 	ldw	r20,56(sp)
  802c78:	28002f26 	beq	r5,zero,802d38 <_wcsrtombs_r+0x100>
  802c7c:	002b883a 	mov	r21,zero
  802c80:	bc400017 	ldw	r17,0(r23)
  802c84:	04801f2e 	bgeu	zero,r18,802d04 <_wcsrtombs_r+0xcc>
  802c88:	8039003a 	cmpeq	fp,r16,zero
  802c8c:	89800017 	ldw	r6,0(r17)
  802c90:	d9000317 	ldw	r4,12(sp)
  802c94:	d80b883a 	mov	r5,sp
  802c98:	a00f883a 	mov	r7,r20
  802c9c:	a5800017 	ldw	r22,0(r20)
  802ca0:	a4c00117 	ldw	r19,4(r20)
  802ca4:	0802bb00 	call	802bb0 <_wcrtomb_r>
  802ca8:	100b883a 	mov	r5,r2
  802cac:	00bfffc4 	movi	r2,-1
  802cb0:	28802626 	beq	r5,r2,802d4c <_wcsrtombs_r+0x114>
  802cb4:	9145c83a 	sub	r2,r18,r5
  802cb8:	15402136 	bltu	r2,r21,802d40 <_wcsrtombs_r+0x108>
  802cbc:	2c80202e 	bgeu	r5,r18,802d40 <_wcsrtombs_r+0x108>
  802cc0:	a96b883a 	add	r21,r21,r5
  802cc4:	e0000b1e 	bne	fp,zero,802cf4 <_wcsrtombs_r+0xbc>
  802cc8:	0009883a 	mov	r4,zero
  802ccc:	0140060e 	bge	zero,r5,802ce8 <_wcsrtombs_r+0xb0>
  802cd0:	d905883a 	add	r2,sp,r4
  802cd4:	10c00003 	ldbu	r3,0(r2)
  802cd8:	21000044 	addi	r4,r4,1
  802cdc:	80c00005 	stb	r3,0(r16)
  802ce0:	84000044 	addi	r16,r16,1
  802ce4:	217ffa16 	blt	r4,r5,802cd0 <_wcsrtombs_r+0x98>
  802ce8:	b8800017 	ldw	r2,0(r23)
  802cec:	10800104 	addi	r2,r2,4
  802cf0:	b8800015 	stw	r2,0(r23)
  802cf4:	88800017 	ldw	r2,0(r17)
  802cf8:	8c400104 	addi	r17,r17,4
  802cfc:	10001926 	beq	r2,zero,802d64 <_wcsrtombs_r+0x12c>
  802d00:	acbfe236 	bltu	r21,r18,802c8c <_wcsrtombs_r+0x54>
  802d04:	a805883a 	mov	r2,r21
  802d08:	dfc00d17 	ldw	ra,52(sp)
  802d0c:	df000c17 	ldw	fp,48(sp)
  802d10:	dc000b17 	ldw	r16,44(sp)
  802d14:	dc400a17 	ldw	r17,40(sp)
  802d18:	dc800917 	ldw	r18,36(sp)
  802d1c:	dcc00817 	ldw	r19,32(sp)
  802d20:	dd000717 	ldw	r20,28(sp)
  802d24:	dd400617 	ldw	r21,24(sp)
  802d28:	dd800517 	ldw	r22,20(sp)
  802d2c:	ddc00417 	ldw	r23,16(sp)
  802d30:	dec00e04 	addi	sp,sp,56
  802d34:	f800283a 	ret
  802d38:	04bfffc4 	movi	r18,-1
  802d3c:	003fcf06 	br	802c7c <_wcsrtombs_r+0x44>
  802d40:	a4c00115 	stw	r19,4(r20)
  802d44:	a5800015 	stw	r22,0(r20)
  802d48:	003fee06 	br	802d04 <_wcsrtombs_r+0xcc>
  802d4c:	d8c00317 	ldw	r3,12(sp)
  802d50:	00802284 	movi	r2,138
  802d54:	18800015 	stw	r2,0(r3)
  802d58:	2805883a 	mov	r2,r5
  802d5c:	a0000015 	stw	zero,0(r20)
  802d60:	003fe906 	br	802d08 <_wcsrtombs_r+0xd0>
  802d64:	e000011e 	bne	fp,zero,802d6c <_wcsrtombs_r+0x134>
  802d68:	b8000015 	stw	zero,0(r23)
  802d6c:	a8bfffc4 	addi	r2,r21,-1
  802d70:	a0000015 	stw	zero,0(r20)
  802d74:	003fe406 	br	802d08 <_wcsrtombs_r+0xd0>

00802d78 <wcsrtombs>:
  802d78:	d0e00a17 	ldw	r3,-32728(gp)
  802d7c:	defffe04 	addi	sp,sp,-8
  802d80:	2013883a 	mov	r9,r4
  802d84:	2817883a 	mov	r11,r5
  802d88:	301b883a 	mov	r13,r6
  802d8c:	d9c00015 	stw	r7,0(sp)
  802d90:	1809883a 	mov	r4,r3
  802d94:	480b883a 	mov	r5,r9
  802d98:	580d883a 	mov	r6,r11
  802d9c:	680f883a 	mov	r7,r13
  802da0:	dfc00115 	stw	ra,4(sp)
  802da4:	0802c380 	call	802c38 <_wcsrtombs_r>
  802da8:	dfc00117 	ldw	ra,4(sp)
  802dac:	dec00204 	addi	sp,sp,8
  802db0:	f800283a 	ret

00802db4 <_wctomb_r>:
  802db4:	defffb04 	addi	sp,sp,-20
  802db8:	01002074 	movhi	r4,129
  802dbc:	21037304 	addi	r4,r4,3532
  802dc0:	dc000315 	stw	r16,12(sp)
  802dc4:	dc400215 	stw	r17,8(sp)
  802dc8:	dc800115 	stw	r18,4(sp)
  802dcc:	dcc00015 	stw	r19,0(sp)
  802dd0:	2821883a 	mov	r16,r5
  802dd4:	dfc00415 	stw	ra,16(sp)
  802dd8:	3023883a 	mov	r17,r6
  802ddc:	3827883a 	mov	r19,r7
  802de0:	04800044 	movi	r18,1
  802de4:	08070040 	call	807004 <strlen>
  802de8:	8006c03a 	cmpne	r3,r16,zero
  802dec:	90800c36 	bltu	r18,r2,802e20 <_wctomb_r+0x6c>
  802df0:	0011883a 	mov	r8,zero
  802df4:	18000226 	beq	r3,zero,802e00 <_wctomb_r+0x4c>
  802df8:	84400005 	stb	r17,0(r16)
  802dfc:	02000044 	movi	r8,1
  802e00:	4005883a 	mov	r2,r8
  802e04:	dfc00417 	ldw	ra,16(sp)
  802e08:	dc000317 	ldw	r16,12(sp)
  802e0c:	dc400217 	ldw	r17,8(sp)
  802e10:	dc800117 	ldw	r18,4(sp)
  802e14:	dcc00017 	ldw	r19,0(sp)
  802e18:	dec00504 	addi	sp,sp,20
  802e1c:	f800283a 	ret
  802e20:	01002074 	movhi	r4,129
  802e24:	21037304 	addi	r4,r4,3532
  802e28:	01402074 	movhi	r5,129
  802e2c:	2940bb04 	addi	r5,r5,748
  802e30:	0806f4c0 	call	806f4c <strcmp>
  802e34:	10003a1e 	bne	r2,zero,802f20 <_wctomb_r+0x16c>
  802e38:	0011883a 	mov	r8,zero
  802e3c:	803ff026 	beq	r16,zero,802e00 <_wctomb_r+0x4c>
  802e40:	00801fc4 	movi	r2,127
  802e44:	9011883a 	mov	r8,r18
  802e48:	1440630e 	bge	r2,r17,802fd8 <_wctomb_r+0x224>
  802e4c:	88ffe004 	addi	r3,r17,-128
  802e50:	0081dfc4 	movi	r2,1919
  802e54:	027fe004 	movi	r9,-128
  802e58:	10c0b42e 	bgeu	r2,r3,80312c <_wctomb_r+0x378>
  802e5c:	88fe0004 	addi	r3,r17,-2048
  802e60:	00bdffd4 	movui	r2,63487
  802e64:	10c05e2e 	bgeu	r2,r3,802fe0 <_wctomb_r+0x22c>
  802e68:	00bffff4 	movhi	r2,65535
  802e6c:	10800004 	addi	r2,r2,0
  802e70:	8885883a 	add	r2,r17,r2
  802e74:	00c007f4 	movhi	r3,31
  802e78:	18ffffc4 	addi	r3,r3,-1
  802e7c:	1880b52e 	bgeu	r3,r2,803154 <_wctomb_r+0x3a0>
  802e80:	00bff834 	movhi	r2,65504
  802e84:	10800004 	addi	r2,r2,0
  802e88:	8885883a 	add	r2,r17,r2
  802e8c:	00c0f834 	movhi	r3,992
  802e90:	18ffffc4 	addi	r3,r3,-1
  802e94:	1880c32e 	bgeu	r3,r2,8031a4 <_wctomb_r+0x3f0>
  802e98:	00810034 	movhi	r2,1024
  802e9c:	10bfffc4 	addi	r2,r2,-1
  802ea0:	023fffc4 	movi	r8,-1
  802ea4:	147fd60e 	bge	r2,r17,802e00 <_wctomb_r+0x4c>
  802ea8:	88d0002c 	andhi	r3,r17,16384
  802eac:	1807d7ba 	srai	r3,r3,30
  802eb0:	890fc02c 	andhi	r4,r17,16128
  802eb4:	2009d63a 	srai	r4,r4,24
  802eb8:	89403f2c 	andhi	r5,r17,252
  802ebc:	00bfff04 	movi	r2,-4
  802ec0:	280bd4ba 	srai	r5,r5,18
  802ec4:	880cd33a 	srli	r6,r17,12
  802ec8:	1886b03a 	or	r3,r3,r2
  802ecc:	89c3f00c 	andi	r7,r17,4032
  802ed0:	80c00005 	stb	r3,0(r16)
  802ed4:	2248b03a 	or	r4,r4,r9
  802ed8:	84000044 	addi	r16,r16,1
  802edc:	380fd1ba 	srai	r7,r7,6
  802ee0:	81000005 	stb	r4,0(r16)
  802ee4:	2a4ab03a 	or	r5,r5,r9
  802ee8:	84000044 	addi	r16,r16,1
  802eec:	31800fcc 	andi	r6,r6,63
  802ef0:	81400005 	stb	r5,0(r16)
  802ef4:	324cb03a 	or	r6,r6,r9
  802ef8:	84000044 	addi	r16,r16,1
  802efc:	88800fcc 	andi	r2,r17,63
  802f00:	81800005 	stb	r6,0(r16)
  802f04:	1244b03a 	or	r2,r2,r9
  802f08:	84000044 	addi	r16,r16,1
  802f0c:	3a4eb03a 	or	r7,r7,r9
  802f10:	02000184 	movi	r8,6
  802f14:	80800045 	stb	r2,1(r16)
  802f18:	81c00005 	stb	r7,0(r16)
  802f1c:	003fb806 	br	802e00 <_wctomb_r+0x4c>
  802f20:	01002074 	movhi	r4,129
  802f24:	21037304 	addi	r4,r4,3532
  802f28:	01402074 	movhi	r5,129
  802f2c:	2940bd04 	addi	r5,r5,756
  802f30:	0806f4c0 	call	806f4c <strcmp>
  802f34:	10003f1e 	bne	r2,zero,803034 <_wctomb_r+0x280>
  802f38:	8006c03a 	cmpne	r3,r16,zero
  802f3c:	8809d23a 	srai	r4,r17,8
  802f40:	0011883a 	mov	r8,zero
  802f44:	183fae26 	beq	r3,zero,802e00 <_wctomb_r+0x4c>
  802f48:	20803fcc 	andi	r2,r4,255
  802f4c:	103fa826 	beq	r2,zero,802df0 <_wctomb_r+0x3c>
  802f50:	20801fc4 	addi	r2,r4,127
  802f54:	10803fcc 	andi	r2,r2,255
  802f58:	00c00784 	movi	r3,30
  802f5c:	1880042e 	bgeu	r3,r2,802f70 <_wctomb_r+0x1bc>
  802f60:	20800804 	addi	r2,r4,32
  802f64:	10803fcc 	andi	r2,r2,255
  802f68:	00c003c4 	movi	r3,15
  802f6c:	18804436 	bltu	r3,r2,803080 <_wctomb_r+0x2cc>
  802f70:	88bff004 	addi	r2,r17,-64
  802f74:	10803fcc 	andi	r2,r2,255
  802f78:	00c00f84 	movi	r3,62
  802f7c:	1880042e 	bgeu	r3,r2,802f90 <_wctomb_r+0x1dc>
  802f80:	88bfe004 	addi	r2,r17,-128
  802f84:	10803fcc 	andi	r2,r2,255
  802f88:	00c01f04 	movi	r3,124
  802f8c:	18803c36 	bltu	r3,r2,803080 <_wctomb_r+0x2cc>
  802f90:	02000084 	movi	r8,2
  802f94:	84400045 	stb	r17,1(r16)
  802f98:	81000005 	stb	r4,0(r16)
  802f9c:	003f9806 	br	802e00 <_wctomb_r+0x4c>
  802fa0:	98800017 	ldw	r2,0(r19)
  802fa4:	10000b26 	beq	r2,zero,802fd4 <_wctomb_r+0x220>
  802fa8:	98000015 	stw	zero,0(r19)
  802fac:	008006c4 	movi	r2,27
  802fb0:	80800005 	stb	r2,0(r16)
  802fb4:	84000044 	addi	r16,r16,1
  802fb8:	00800a04 	movi	r2,40
  802fbc:	80800005 	stb	r2,0(r16)
  802fc0:	84000044 	addi	r16,r16,1
  802fc4:	00801084 	movi	r2,66
  802fc8:	80800005 	stb	r2,0(r16)
  802fcc:	010000c4 	movi	r4,3
  802fd0:	84000044 	addi	r16,r16,1
  802fd4:	22000044 	addi	r8,r4,1
  802fd8:	84400005 	stb	r17,0(r16)
  802fdc:	003f8806 	br	802e00 <_wctomb_r+0x4c>
  802fe0:	00bffff4 	movhi	r2,65535
  802fe4:	108a0004 	addi	r2,r2,10240
  802fe8:	8885883a 	add	r2,r17,r2
  802fec:	00c1ffc4 	movi	r3,2047
  802ff0:	023fffc4 	movi	r8,-1
  802ff4:	18bf822e 	bgeu	r3,r2,802e00 <_wctomb_r+0x4c>
  802ff8:	88fc000c 	andi	r3,r17,61440
  802ffc:	1807d33a 	srai	r3,r3,12
  803000:	8943f00c 	andi	r5,r17,4032
  803004:	280bd1ba 	srai	r5,r5,6
  803008:	00bff804 	movi	r2,-32
  80300c:	1886b03a 	or	r3,r3,r2
  803010:	89000fcc 	andi	r4,r17,63
  803014:	80c00005 	stb	r3,0(r16)
  803018:	2248b03a 	or	r4,r4,r9
  80301c:	84000044 	addi	r16,r16,1
  803020:	2a4ab03a 	or	r5,r5,r9
  803024:	020000c4 	movi	r8,3
  803028:	81000045 	stb	r4,1(r16)
  80302c:	81400005 	stb	r5,0(r16)
  803030:	003f7306 	br	802e00 <_wctomb_r+0x4c>
  803034:	01002074 	movhi	r4,129
  803038:	21037304 	addi	r4,r4,3532
  80303c:	01402074 	movhi	r5,129
  803040:	2940bf04 	addi	r5,r5,764
  803044:	0806f4c0 	call	806f4c <strcmp>
  803048:	1000131e 	bne	r2,zero,803098 <_wctomb_r+0x2e4>
  80304c:	8006c03a 	cmpne	r3,r16,zero
  803050:	880bd23a 	srai	r5,r17,8
  803054:	0011883a 	mov	r8,zero
  803058:	183f6926 	beq	r3,zero,802e00 <_wctomb_r+0x4c>
  80305c:	28803fcc 	andi	r2,r5,255
  803060:	103f6326 	beq	r2,zero,802df0 <_wctomb_r+0x3c>
  803064:	01802804 	movi	r6,160
  803068:	3080052e 	bgeu	r6,r2,803080 <_wctomb_r+0x2cc>
  80306c:	00c03fc4 	movi	r3,255
  803070:	10c00326 	beq	r2,r3,803080 <_wctomb_r+0x2cc>
  803074:	88803fcc 	andi	r2,r17,255
  803078:	3080012e 	bgeu	r6,r2,803080 <_wctomb_r+0x2cc>
  80307c:	10c0021e 	bne	r2,r3,803088 <_wctomb_r+0x2d4>
  803080:	023fffc4 	movi	r8,-1
  803084:	003f5e06 	br	802e00 <_wctomb_r+0x4c>
  803088:	02000084 	movi	r8,2
  80308c:	84400045 	stb	r17,1(r16)
  803090:	81400005 	stb	r5,0(r16)
  803094:	003f5a06 	br	802e00 <_wctomb_r+0x4c>
  803098:	01002074 	movhi	r4,129
  80309c:	21037304 	addi	r4,r4,3532
  8030a0:	01402074 	movhi	r5,129
  8030a4:	2940c104 	addi	r5,r5,772
  8030a8:	0806f4c0 	call	806f4c <strcmp>
  8030ac:	8006c03a 	cmpne	r3,r16,zero
  8030b0:	103f4f1e 	bne	r2,zero,802df0 <_wctomb_r+0x3c>
  8030b4:	8807d23a 	srai	r3,r17,8
  8030b8:	0009883a 	mov	r4,zero
  8030bc:	9011883a 	mov	r8,r18
  8030c0:	803f4f26 	beq	r16,zero,802e00 <_wctomb_r+0x4c>
  8030c4:	18803fcc 	andi	r2,r3,255
  8030c8:	103fb526 	beq	r2,zero,802fa0 <_wctomb_r+0x1ec>
  8030cc:	18bff7c4 	addi	r2,r3,-33
  8030d0:	10803fcc 	andi	r2,r2,255
  8030d4:	01401744 	movi	r5,93
  8030d8:	28bfe936 	bltu	r5,r2,803080 <_wctomb_r+0x2cc>
  8030dc:	88bff7c4 	addi	r2,r17,-33
  8030e0:	10803fcc 	andi	r2,r2,255
  8030e4:	28bfe636 	bltu	r5,r2,803080 <_wctomb_r+0x2cc>
  8030e8:	98800017 	ldw	r2,0(r19)
  8030ec:	10000b1e 	bne	r2,zero,80311c <_wctomb_r+0x368>
  8030f0:	9c800015 	stw	r18,0(r19)
  8030f4:	008006c4 	movi	r2,27
  8030f8:	80800005 	stb	r2,0(r16)
  8030fc:	84000044 	addi	r16,r16,1
  803100:	00800904 	movi	r2,36
  803104:	80800005 	stb	r2,0(r16)
  803108:	84000044 	addi	r16,r16,1
  80310c:	00801084 	movi	r2,66
  803110:	80800005 	stb	r2,0(r16)
  803114:	010000c4 	movi	r4,3
  803118:	84000044 	addi	r16,r16,1
  80311c:	22000084 	addi	r8,r4,2
  803120:	84400045 	stb	r17,1(r16)
  803124:	80c00005 	stb	r3,0(r16)
  803128:	003f3506 	br	802e00 <_wctomb_r+0x4c>
  80312c:	8901f00c 	andi	r4,r17,1984
  803130:	2009d1ba 	srai	r4,r4,6
  803134:	88c00fcc 	andi	r3,r17,63
  803138:	00bff004 	movi	r2,-64
  80313c:	2088b03a 	or	r4,r4,r2
  803140:	1a46b03a 	or	r3,r3,r9
  803144:	02000084 	movi	r8,2
  803148:	80c00045 	stb	r3,1(r16)
  80314c:	81000005 	stb	r4,0(r16)
  803150:	003f2b06 	br	802e00 <_wctomb_r+0x4c>
  803154:	88c0072c 	andhi	r3,r17,28
  803158:	1807d4ba 	srai	r3,r3,18
  80315c:	8808d33a 	srli	r4,r17,12
  803160:	8943f00c 	andi	r5,r17,4032
  803164:	00bffc04 	movi	r2,-16
  803168:	280bd1ba 	srai	r5,r5,6
  80316c:	1886b03a 	or	r3,r3,r2
  803170:	21000fcc 	andi	r4,r4,63
  803174:	80c00005 	stb	r3,0(r16)
  803178:	2248b03a 	or	r4,r4,r9
  80317c:	84000044 	addi	r16,r16,1
  803180:	88800fcc 	andi	r2,r17,63
  803184:	81000005 	stb	r4,0(r16)
  803188:	1244b03a 	or	r2,r2,r9
  80318c:	84000044 	addi	r16,r16,1
  803190:	2a4ab03a 	or	r5,r5,r9
  803194:	02000104 	movi	r8,4
  803198:	80800045 	stb	r2,1(r16)
  80319c:	81400005 	stb	r5,0(r16)
  8031a0:	003f1706 	br	802e00 <_wctomb_r+0x4c>
  8031a4:	88c0c02c 	andhi	r3,r17,768
  8031a8:	1807d63a 	srai	r3,r3,24
  8031ac:	89003f2c 	andhi	r4,r17,252
  8031b0:	2009d4ba 	srai	r4,r4,18
  8031b4:	880ad33a 	srli	r5,r17,12
  8031b8:	00bffe04 	movi	r2,-8
  8031bc:	8983f00c 	andi	r6,r17,4032
  8031c0:	1886b03a 	or	r3,r3,r2
  8031c4:	300dd1ba 	srai	r6,r6,6
  8031c8:	80c00005 	stb	r3,0(r16)
  8031cc:	2248b03a 	or	r4,r4,r9
  8031d0:	84000044 	addi	r16,r16,1
  8031d4:	29400fcc 	andi	r5,r5,63
  8031d8:	81000005 	stb	r4,0(r16)
  8031dc:	2a4ab03a 	or	r5,r5,r9
  8031e0:	84000044 	addi	r16,r16,1
  8031e4:	88800fcc 	andi	r2,r17,63
  8031e8:	81400005 	stb	r5,0(r16)
  8031ec:	1244b03a 	or	r2,r2,r9
  8031f0:	84000044 	addi	r16,r16,1
  8031f4:	324cb03a 	or	r6,r6,r9
  8031f8:	02000144 	movi	r8,5
  8031fc:	80800045 	stb	r2,1(r16)
  803200:	81800005 	stb	r6,0(r16)
  803204:	003efe06 	br	802e00 <_wctomb_r+0x4c>

00803208 <__swsetup>:
  803208:	d0e00a17 	ldw	r3,-32728(gp)
  80320c:	defffe04 	addi	sp,sp,-8
  803210:	dc000015 	stw	r16,0(sp)
  803214:	dfc00115 	stw	ra,4(sp)
  803218:	18800e17 	ldw	r2,56(r3)
  80321c:	2021883a 	mov	r16,r4
  803220:	10003526 	beq	r2,zero,8032f8 <__swsetup+0xf0>
  803224:	8180030b 	ldhu	r6,12(r16)
  803228:	30ffffcc 	andi	r3,r6,65535
  80322c:	1880020c 	andi	r2,r3,8
  803230:	1000251e 	bne	r2,zero,8032c8 <__swsetup+0xc0>
  803234:	1880040c 	andi	r2,r3,16
  803238:	013fffc4 	movi	r4,-1
  80323c:	10001d26 	beq	r2,zero,8032b4 <__swsetup+0xac>
  803240:	1880010c 	andi	r2,r3,4
  803244:	10002f26 	beq	r2,zero,803304 <__swsetup+0xfc>
  803248:	81400c17 	ldw	r5,48(r16)
  80324c:	28000626 	beq	r5,zero,803268 <__swsetup+0x60>
  803250:	80801004 	addi	r2,r16,64
  803254:	28800326 	beq	r5,r2,803264 <__swsetup+0x5c>
  803258:	d1200a17 	ldw	r4,-32728(gp)
  80325c:	0804c500 	call	804c50 <_free_r>
  803260:	8180030b 	ldhu	r6,12(r16)
  803264:	80000c15 	stw	zero,48(r16)
  803268:	00bff6c4 	movi	r2,-37
  80326c:	3084703a 	and	r2,r6,r2
  803270:	80c00417 	ldw	r3,16(r16)
  803274:	100d883a 	mov	r6,r2
  803278:	8080030d 	sth	r2,12(r16)
  80327c:	30800214 	ori	r2,r6,8
  803280:	80000115 	stw	zero,4(r16)
  803284:	80c00015 	stw	r3,0(r16)
  803288:	8080030d 	sth	r2,12(r16)
  80328c:	18001026 	beq	r3,zero,8032d0 <__swsetup+0xc8>
  803290:	80c0030b 	ldhu	r3,12(r16)
  803294:	1880004c 	andi	r2,r3,1
  803298:	1000121e 	bne	r2,zero,8032e4 <__swsetup+0xdc>
  80329c:	1880008c 	andi	r2,r3,2
  8032a0:	0007883a 	mov	r3,zero
  8032a4:	1000011e 	bne	r2,zero,8032ac <__swsetup+0xa4>
  8032a8:	80c00517 	ldw	r3,20(r16)
  8032ac:	80c00215 	stw	r3,8(r16)
  8032b0:	0009883a 	mov	r4,zero
  8032b4:	2005883a 	mov	r2,r4
  8032b8:	dfc00117 	ldw	ra,4(sp)
  8032bc:	dc000017 	ldw	r16,0(sp)
  8032c0:	dec00204 	addi	sp,sp,8
  8032c4:	f800283a 	ret
  8032c8:	80c00417 	ldw	r3,16(r16)
  8032cc:	183ff01e 	bne	r3,zero,803290 <__swsetup+0x88>
  8032d0:	8009883a 	mov	r4,r16
  8032d4:	08054280 	call	805428 <__smakebuf>
  8032d8:	80c0030b 	ldhu	r3,12(r16)
  8032dc:	1880004c 	andi	r2,r3,1
  8032e0:	103fee26 	beq	r2,zero,80329c <__swsetup+0x94>
  8032e4:	80800517 	ldw	r2,20(r16)
  8032e8:	80000215 	stw	zero,8(r16)
  8032ec:	0085c83a 	sub	r2,zero,r2
  8032f0:	80800615 	stw	r2,24(r16)
  8032f4:	003fee06 	br	8032b0 <__swsetup+0xa8>
  8032f8:	1809883a 	mov	r4,r3
  8032fc:	0804a900 	call	804a90 <__sinit>
  803300:	003fc806 	br	803224 <__swsetup+0x1c>
  803304:	80c00417 	ldw	r3,16(r16)
  803308:	30800214 	ori	r2,r6,8
  80330c:	8080030d 	sth	r2,12(r16)
  803310:	003fde06 	br	80328c <__swsetup+0x84>

00803314 <quorem>:
  803314:	defff104 	addi	sp,sp,-60
  803318:	dfc00e15 	stw	ra,56(sp)
  80331c:	df000d15 	stw	fp,52(sp)
  803320:	dc000c15 	stw	r16,48(sp)
  803324:	dc400b15 	stw	r17,44(sp)
  803328:	dc800a15 	stw	r18,40(sp)
  80332c:	dcc00915 	stw	r19,36(sp)
  803330:	dd000815 	stw	r20,32(sp)
  803334:	dd400715 	stw	r21,28(sp)
  803338:	dd800615 	stw	r22,24(sp)
  80333c:	ddc00515 	stw	r23,20(sp)
  803340:	2dc00417 	ldw	r23,16(r5)
  803344:	20800417 	ldw	r2,16(r4)
  803348:	d9000015 	stw	r4,0(sp)
  80334c:	d9400115 	stw	r5,4(sp)
  803350:	0007883a 	mov	r3,zero
  803354:	15c04216 	blt	r2,r23,803460 <quorem+0x14c>
  803358:	bdffffc4 	addi	r23,r23,-1
  80335c:	b80490ba 	slli	r2,r23,2
  803360:	20c00504 	addi	r3,r4,20
  803364:	2c800504 	addi	r18,r5,20
  803368:	10eb883a 	add	r21,r2,r3
  80336c:	14ad883a 	add	r22,r2,r18
  803370:	b1400017 	ldw	r5,0(r22)
  803374:	a8800017 	ldw	r2,0(r21)
  803378:	d8c00215 	stw	r3,8(sp)
  80337c:	29400044 	addi	r5,r5,1
  803380:	1009883a 	mov	r4,r2
  803384:	d8800415 	stw	r2,16(sp)
  803388:	dc800315 	stw	r18,12(sp)
  80338c:	08006cc0 	call	8006cc <__udivsi3>
  803390:	1039883a 	mov	fp,r2
  803394:	dc400217 	ldw	r17,8(sp)
  803398:	10003e1e 	bne	r2,zero,803494 <quorem+0x180>
  80339c:	d9400117 	ldw	r5,4(sp)
  8033a0:	d9000017 	ldw	r4,0(sp)
  8033a4:	080619c0 	call	80619c <__mcmp>
  8033a8:	10002c16 	blt	r2,zero,80345c <quorem+0x148>
  8033ac:	dc800317 	ldw	r18,12(sp)
  8033b0:	dc400217 	ldw	r17,8(sp)
  8033b4:	e7000044 	addi	fp,fp,1
  8033b8:	0027883a 	mov	r19,zero
  8033bc:	0029883a 	mov	r20,zero
  8033c0:	91000017 	ldw	r4,0(r18)
  8033c4:	88c00017 	ldw	r3,0(r17)
  8033c8:	94800104 	addi	r18,r18,4
  8033cc:	20bfffcc 	andi	r2,r4,65535
  8033d0:	1521883a 	add	r16,r2,r20
  8033d4:	817fffcc 	andi	r5,r16,65535
  8033d8:	18bfffcc 	andi	r2,r3,65535
  8033dc:	2008d43a 	srli	r4,r4,16
  8033e0:	800cd43a 	srli	r6,r16,16
  8033e4:	1145c83a 	sub	r2,r2,r5
  8033e8:	14cf883a 	add	r7,r2,r19
  8033ec:	1806d43a 	srli	r3,r3,16
  8033f0:	218b883a 	add	r5,r4,r6
  8033f4:	3827d43a 	srai	r19,r7,16
  8033f8:	28bfffcc 	andi	r2,r5,65535
  8033fc:	1887c83a 	sub	r3,r3,r2
  803400:	1cc7883a 	add	r3,r3,r19
  803404:	88c0008d 	sth	r3,2(r17)
  803408:	89c0000d 	sth	r7,0(r17)
  80340c:	2828d43a 	srli	r20,r5,16
  803410:	8c400104 	addi	r17,r17,4
  803414:	1827d43a 	srai	r19,r3,16
  803418:	b4bfe92e 	bgeu	r22,r18,8033c0 <quorem+0xac>
  80341c:	d8c00217 	ldw	r3,8(sp)
  803420:	b80490ba 	slli	r2,r23,2
  803424:	10eb883a 	add	r21,r2,r3
  803428:	a8c00017 	ldw	r3,0(r21)
  80342c:	18000b1e 	bne	r3,zero,80345c <quorem+0x148>
  803430:	d8800217 	ldw	r2,8(sp)
  803434:	ad7fff04 	addi	r21,r21,-4
  803438:	1540062e 	bgeu	r2,r21,803454 <quorem+0x140>
  80343c:	a8800017 	ldw	r2,0(r21)
  803440:	1000041e 	bne	r2,zero,803454 <quorem+0x140>
  803444:	d8c00217 	ldw	r3,8(sp)
  803448:	ad7fff04 	addi	r21,r21,-4
  80344c:	bdffffc4 	addi	r23,r23,-1
  803450:	1d7ffa36 	bltu	r3,r21,80343c <quorem+0x128>
  803454:	d8800017 	ldw	r2,0(sp)
  803458:	15c00415 	stw	r23,16(r2)
  80345c:	e007883a 	mov	r3,fp
  803460:	1805883a 	mov	r2,r3
  803464:	dfc00e17 	ldw	ra,56(sp)
  803468:	df000d17 	ldw	fp,52(sp)
  80346c:	dc000c17 	ldw	r16,48(sp)
  803470:	dc400b17 	ldw	r17,44(sp)
  803474:	dc800a17 	ldw	r18,40(sp)
  803478:	dcc00917 	ldw	r19,36(sp)
  80347c:	dd000817 	ldw	r20,32(sp)
  803480:	dd400717 	ldw	r21,28(sp)
  803484:	dd800617 	ldw	r22,24(sp)
  803488:	ddc00517 	ldw	r23,20(sp)
  80348c:	dec00f04 	addi	sp,sp,60
  803490:	f800283a 	ret
  803494:	0027883a 	mov	r19,zero
  803498:	0029883a 	mov	r20,zero
  80349c:	94000017 	ldw	r16,0(r18)
  8034a0:	e00b883a 	mov	r5,fp
  8034a4:	94800104 	addi	r18,r18,4
  8034a8:	813fffcc 	andi	r4,r16,65535
  8034ac:	08006ec0 	call	8006ec <__mulsi3>
  8034b0:	8008d43a 	srli	r4,r16,16
  8034b4:	e00b883a 	mov	r5,fp
  8034b8:	1521883a 	add	r16,r2,r20
  8034bc:	08006ec0 	call	8006ec <__mulsi3>
  8034c0:	89000017 	ldw	r4,0(r17)
  8034c4:	817fffcc 	andi	r5,r16,65535
  8034c8:	800cd43a 	srli	r6,r16,16
  8034cc:	20ffffcc 	andi	r3,r4,65535
  8034d0:	1947c83a 	sub	r3,r3,r5
  8034d4:	1ccf883a 	add	r7,r3,r19
  8034d8:	2008d43a 	srli	r4,r4,16
  8034dc:	118b883a 	add	r5,r2,r6
  8034e0:	3827d43a 	srai	r19,r7,16
  8034e4:	28bfffcc 	andi	r2,r5,65535
  8034e8:	2089c83a 	sub	r4,r4,r2
  8034ec:	24c7883a 	add	r3,r4,r19
  8034f0:	88c0008d 	sth	r3,2(r17)
  8034f4:	89c0000d 	sth	r7,0(r17)
  8034f8:	2828d43a 	srli	r20,r5,16
  8034fc:	8c400104 	addi	r17,r17,4
  803500:	1827d43a 	srai	r19,r3,16
  803504:	b4bfe52e 	bgeu	r22,r18,80349c <quorem+0x188>
  803508:	d8c00417 	ldw	r3,16(sp)
  80350c:	183fa31e 	bne	r3,zero,80339c <quorem+0x88>
  803510:	d8800217 	ldw	r2,8(sp)
  803514:	ad7fff04 	addi	r21,r21,-4
  803518:	1540062e 	bgeu	r2,r21,803534 <quorem+0x220>
  80351c:	a8800017 	ldw	r2,0(r21)
  803520:	1000041e 	bne	r2,zero,803534 <quorem+0x220>
  803524:	d8c00217 	ldw	r3,8(sp)
  803528:	ad7fff04 	addi	r21,r21,-4
  80352c:	bdffffc4 	addi	r23,r23,-1
  803530:	1d7ffa36 	bltu	r3,r21,80351c <quorem+0x208>
  803534:	d8800017 	ldw	r2,0(sp)
  803538:	15c00415 	stw	r23,16(r2)
  80353c:	003f9706 	br	80339c <quorem+0x88>

00803540 <_dtoa_r>:
  803540:	deffdd04 	addi	sp,sp,-140
  803544:	df002115 	stw	fp,132(sp)
  803548:	dc002015 	stw	r16,128(sp)
  80354c:	dc801e15 	stw	r18,120(sp)
  803550:	dcc01d15 	stw	r19,116(sp)
  803554:	dfc02215 	stw	ra,136(sp)
  803558:	dc401f15 	stw	r17,124(sp)
  80355c:	dd001c15 	stw	r20,112(sp)
  803560:	dd401b15 	stw	r21,108(sp)
  803564:	dd801a15 	stw	r22,104(sp)
  803568:	ddc01915 	stw	r23,100(sp)
  80356c:	22001017 	ldw	r8,64(r4)
  803570:	2039883a 	mov	fp,r4
  803574:	2825883a 	mov	r18,r5
  803578:	d9c00315 	stw	r7,12(sp)
  80357c:	3027883a 	mov	r19,r6
  803580:	dc002517 	ldw	r16,148(sp)
  803584:	d8001515 	stw	zero,84(sp)
  803588:	4000241e 	bne	r8,zero,80361c <_dtoa_r+0xdc>
  80358c:	98002d16 	blt	r19,zero,803644 <_dtoa_r+0x104>
  803590:	98dffc2c 	andhi	r3,r19,32752
  803594:	009ffc34 	movhi	r2,32752
  803598:	10800004 	addi	r2,r2,0
  80359c:	80000015 	stw	zero,0(r16)
  8035a0:	18803126 	beq	r3,r2,803668 <_dtoa_r+0x128>
  8035a4:	000d883a 	mov	r6,zero
  8035a8:	000f883a 	mov	r7,zero
  8035ac:	9009883a 	mov	r4,r18
  8035b0:	980b883a 	mov	r5,r19
  8035b4:	08089bc0 	call	8089bc <__eqdf2>
  8035b8:	10003c1e 	bne	r2,zero,8036ac <_dtoa_r+0x16c>
  8035bc:	d8c02417 	ldw	r3,144(sp)
  8035c0:	00800044 	movi	r2,1
  8035c4:	01002074 	movhi	r4,129
  8035c8:	2100b604 	addi	r4,r4,728
  8035cc:	18800015 	stw	r2,0(r3)
  8035d0:	d8802617 	ldw	r2,152(sp)
  8035d4:	d9001715 	stw	r4,92(sp)
  8035d8:	10000326 	beq	r2,zero,8035e8 <_dtoa_r+0xa8>
  8035dc:	d8c02617 	ldw	r3,152(sp)
  8035e0:	20800044 	addi	r2,r4,1
  8035e4:	18800015 	stw	r2,0(r3)
  8035e8:	d8801717 	ldw	r2,92(sp)
  8035ec:	dfc02217 	ldw	ra,136(sp)
  8035f0:	df002117 	ldw	fp,132(sp)
  8035f4:	dc002017 	ldw	r16,128(sp)
  8035f8:	dc401f17 	ldw	r17,124(sp)
  8035fc:	dc801e17 	ldw	r18,120(sp)
  803600:	dcc01d17 	ldw	r19,116(sp)
  803604:	dd001c17 	ldw	r20,112(sp)
  803608:	dd401b17 	ldw	r21,108(sp)
  80360c:	dd801a17 	ldw	r22,104(sp)
  803610:	ddc01917 	ldw	r23,100(sp)
  803614:	dec02304 	addi	sp,sp,140
  803618:	f800283a 	ret
  80361c:	20801117 	ldw	r2,68(r4)
  803620:	400b883a 	mov	r5,r8
  803624:	40800115 	stw	r2,4(r8)
  803628:	20c01117 	ldw	r3,68(r4)
  80362c:	00800044 	movi	r2,1
  803630:	10c4983a 	sll	r2,r2,r3
  803634:	40800215 	stw	r2,8(r8)
  803638:	080594c0 	call	80594c <_Bfree>
  80363c:	e0001015 	stw	zero,64(fp)
  803640:	983fd30e 	bge	r19,zero,803590 <_dtoa_r+0x50>
  803644:	00a00034 	movhi	r2,32768
  803648:	10bfffc4 	addi	r2,r2,-1
  80364c:	14e6703a 	and	r19,r2,r19
  803650:	00c00044 	movi	r3,1
  803654:	80c00015 	stw	r3,0(r16)
  803658:	009ffc34 	movhi	r2,32752
  80365c:	10800004 	addi	r2,r2,0
  803660:	98dffc2c 	andhi	r3,r19,32752
  803664:	18bfcf1e 	bne	r3,r2,8035a4 <_dtoa_r+0x64>
  803668:	d8c02417 	ldw	r3,144(sp)
  80366c:	0089c3c4 	movi	r2,9999
  803670:	18800015 	stw	r2,0(r3)
  803674:	9000a226 	beq	r18,zero,803900 <_dtoa_r+0x3c0>
  803678:	00802074 	movhi	r2,129
  80367c:	1080b804 	addi	r2,r2,736
  803680:	d8801715 	stw	r2,92(sp)
  803684:	d8c02617 	ldw	r3,152(sp)
  803688:	183fd726 	beq	r3,zero,8035e8 <_dtoa_r+0xa8>
  80368c:	d9001717 	ldw	r4,92(sp)
  803690:	208000c7 	ldb	r2,3(r4)
  803694:	20c00204 	addi	r3,r4,8
  803698:	1000011e 	bne	r2,zero,8036a0 <_dtoa_r+0x160>
  80369c:	20c000c4 	addi	r3,r4,3
  8036a0:	d8802617 	ldw	r2,152(sp)
  8036a4:	10c00015 	stw	r3,0(r2)
  8036a8:	003fcf06 	br	8035e8 <_dtoa_r+0xa8>
  8036ac:	d8800104 	addi	r2,sp,4
  8036b0:	e009883a 	mov	r4,fp
  8036b4:	900b883a 	mov	r5,r18
  8036b8:	980d883a 	mov	r6,r19
  8036bc:	d9c00204 	addi	r7,sp,8
  8036c0:	d8800015 	stw	r2,0(sp)
  8036c4:	08065300 	call	806530 <_d2b>
  8036c8:	d8801415 	stw	r2,80(sp)
  8036cc:	9804d53a 	srli	r2,r19,20
  8036d0:	1581ffcc 	andi	r22,r2,2047
  8036d4:	b000921e 	bne	r22,zero,803920 <_dtoa_r+0x3e0>
  8036d8:	ddc00117 	ldw	r23,4(sp)
  8036dc:	d8800217 	ldw	r2,8(sp)
  8036e0:	00c00804 	movi	r3,32
  8036e4:	b885883a 	add	r2,r23,r2
  8036e8:	15810c84 	addi	r22,r2,1074
  8036ec:	1d81ba0e 	bge	r3,r22,803dd8 <_dtoa_r+0x898>
  8036f0:	00c01004 	movi	r3,64
  8036f4:	1d87c83a 	sub	r3,r3,r22
  8036f8:	10810484 	addi	r2,r2,1042
  8036fc:	98c6983a 	sll	r3,r19,r3
  803700:	9084d83a 	srl	r2,r18,r2
  803704:	18a0b03a 	or	r16,r3,r2
  803708:	8009883a 	mov	r4,r16
  80370c:	0808c780 	call	808c78 <__floatsidf>
  803710:	1011883a 	mov	r8,r2
  803714:	1813883a 	mov	r9,r3
  803718:	8003bc16 	blt	r16,zero,80460c <_dtoa_r+0x10cc>
  80371c:	00bf8434 	movhi	r2,65040
  803720:	10800004 	addi	r2,r2,0
  803724:	1247883a 	add	r3,r2,r9
  803728:	01000044 	movi	r4,1
  80372c:	da000f15 	stw	r8,60(sp)
  803730:	d8c01015 	stw	r3,64(sp)
  803734:	b5bef344 	addi	r22,r22,-1075
  803738:	d9001315 	stw	r4,76(sp)
  80373c:	d9401017 	ldw	r5,64(sp)
  803740:	d9000f17 	ldw	r4,60(sp)
  803744:	0005883a 	mov	r2,zero
  803748:	00cffe34 	movhi	r3,16376
  80374c:	18c00004 	addi	r3,r3,0
  803750:	180f883a 	mov	r7,r3
  803754:	100d883a 	mov	r6,r2
  803758:	08082f40 	call	8082f4 <__subdf3>
  80375c:	0218dbf4 	movhi	r8,25455
  803760:	4210d844 	addi	r8,r8,17249
  803764:	024ff4f4 	movhi	r9,16339
  803768:	4a61e9c4 	addi	r9,r9,-30809
  80376c:	480f883a 	mov	r7,r9
  803770:	400d883a 	mov	r6,r8
  803774:	180b883a 	mov	r5,r3
  803778:	1009883a 	mov	r4,r2
  80377c:	080836c0 	call	80836c <__muldf3>
  803780:	0222d874 	movhi	r8,35681
  803784:	42322cc4 	addi	r8,r8,-14157
  803788:	024ff1f4 	movhi	r9,16327
  80378c:	4a628a04 	addi	r9,r9,-30168
  803790:	480f883a 	mov	r7,r9
  803794:	400d883a 	mov	r6,r8
  803798:	180b883a 	mov	r5,r3
  80379c:	1009883a 	mov	r4,r2
  8037a0:	08082880 	call	808288 <__adddf3>
  8037a4:	b009883a 	mov	r4,r22
  8037a8:	1021883a 	mov	r16,r2
  8037ac:	1823883a 	mov	r17,r3
  8037b0:	0808c780 	call	808c78 <__floatsidf>
  8037b4:	021427f4 	movhi	r8,20639
  8037b8:	421e7ec4 	addi	r8,r8,31227
  8037bc:	024ff4f4 	movhi	r9,16339
  8037c0:	4a5104c4 	addi	r9,r9,17427
  8037c4:	480f883a 	mov	r7,r9
  8037c8:	400d883a 	mov	r6,r8
  8037cc:	180b883a 	mov	r5,r3
  8037d0:	1009883a 	mov	r4,r2
  8037d4:	080836c0 	call	80836c <__muldf3>
  8037d8:	180f883a 	mov	r7,r3
  8037dc:	880b883a 	mov	r5,r17
  8037e0:	100d883a 	mov	r6,r2
  8037e4:	8009883a 	mov	r4,r16
  8037e8:	08082880 	call	808288 <__adddf3>
  8037ec:	1009883a 	mov	r4,r2
  8037f0:	180b883a 	mov	r5,r3
  8037f4:	1021883a 	mov	r16,r2
  8037f8:	1823883a 	mov	r17,r3
  8037fc:	0808d480 	call	808d48 <__fixdfsi>
  803800:	000d883a 	mov	r6,zero
  803804:	000f883a 	mov	r7,zero
  803808:	8009883a 	mov	r4,r16
  80380c:	880b883a 	mov	r5,r17
  803810:	d8800915 	stw	r2,36(sp)
  803814:	0808bec0 	call	808bec <__ltdf2>
  803818:	1002ea16 	blt	r2,zero,8043c4 <_dtoa_r+0xe84>
  80381c:	d9000917 	ldw	r4,36(sp)
  803820:	00c00044 	movi	r3,1
  803824:	00800584 	movi	r2,22
  803828:	d8c00b15 	stw	r3,44(sp)
  80382c:	11001036 	bltu	r2,r4,803870 <_dtoa_r+0x330>
  803830:	200490fa 	slli	r2,r4,3
  803834:	00c02074 	movhi	r3,129
  803838:	18c0f004 	addi	r3,r3,960
  80383c:	900d883a 	mov	r6,r18
  803840:	10c5883a 	add	r2,r2,r3
  803844:	12000017 	ldw	r8,0(r2)
  803848:	12400117 	ldw	r9,4(r2)
  80384c:	980f883a 	mov	r7,r19
  803850:	4009883a 	mov	r4,r8
  803854:	480b883a 	mov	r5,r9
  803858:	0808ad40 	call	808ad4 <__gtdf2>
  80385c:	0080030e 	bge	zero,r2,80386c <_dtoa_r+0x32c>
  803860:	d8800917 	ldw	r2,36(sp)
  803864:	10bfffc4 	addi	r2,r2,-1
  803868:	d8800915 	stw	r2,36(sp)
  80386c:	d8000b15 	stw	zero,44(sp)
  803870:	bd85c83a 	sub	r2,r23,r22
  803874:	147fffc4 	addi	r17,r2,-1
  803878:	8802ce16 	blt	r17,zero,8043b4 <_dtoa_r+0xe74>
  80387c:	dc400d15 	stw	r17,52(sp)
  803880:	d8000415 	stw	zero,16(sp)
  803884:	d8c00917 	ldw	r3,36(sp)
  803888:	1802c216 	blt	r3,zero,804394 <_dtoa_r+0xe54>
  80388c:	d9000d17 	ldw	r4,52(sp)
  803890:	d8000515 	stw	zero,20(sp)
  803894:	d8c00e15 	stw	r3,56(sp)
  803898:	20c9883a 	add	r4,r4,r3
  80389c:	d9000d15 	stw	r4,52(sp)
  8038a0:	d8c00317 	ldw	r3,12(sp)
  8038a4:	00800244 	movi	r2,9
  8038a8:	10c0012e 	bgeu	r2,r3,8038b0 <_dtoa_r+0x370>
  8038ac:	d8000315 	stw	zero,12(sp)
  8038b0:	d9000317 	ldw	r4,12(sp)
  8038b4:	00800144 	movi	r2,5
  8038b8:	04000044 	movi	r16,1
  8038bc:	1100030e 	bge	r2,r4,8038cc <_dtoa_r+0x38c>
  8038c0:	213fff04 	addi	r4,r4,-4
  8038c4:	d9000315 	stw	r4,12(sp)
  8038c8:	0021883a 	mov	r16,zero
  8038cc:	00ffffc4 	movi	r3,-1
  8038d0:	d8c00615 	stw	r3,24(sp)
  8038d4:	d8c00815 	stw	r3,32(sp)
  8038d8:	d8c00317 	ldw	r3,12(sp)
  8038dc:	01000044 	movi	r4,1
  8038e0:	d9000c15 	stw	r4,48(sp)
  8038e4:	10c02136 	bltu	r2,r3,80396c <_dtoa_r+0x42c>
  8038e8:	180490ba 	slli	r2,r3,2
  8038ec:	00c02074 	movhi	r3,129
  8038f0:	18c0c604 	addi	r3,r3,792
  8038f4:	10c5883a 	add	r2,r2,r3
  8038f8:	11000017 	ldw	r4,0(r2)
  8038fc:	2000683a 	jmp	r4
  803900:	00800434 	movhi	r2,16
  803904:	10bfffc4 	addi	r2,r2,-1
  803908:	01002074 	movhi	r4,129
  80390c:	2100c304 	addi	r4,r4,780
  803910:	9884703a 	and	r2,r19,r2
  803914:	d9001715 	stw	r4,92(sp)
  803918:	103f5a26 	beq	r2,zero,803684 <_dtoa_r+0x144>
  80391c:	003f5606 	br	803678 <_dtoa_r+0x138>
  803920:	00800434 	movhi	r2,16
  803924:	10bfffc4 	addi	r2,r2,-1
  803928:	ddc00117 	ldw	r23,4(sp)
  80392c:	14c6703a 	and	r3,r2,r19
  803930:	190ffc34 	orhi	r4,r3,16368
  803934:	b5bf0044 	addi	r22,r22,-1023
  803938:	dc800f15 	stw	r18,60(sp)
  80393c:	d9001015 	stw	r4,64(sp)
  803940:	d8001315 	stw	zero,76(sp)
  803944:	003f7d06 	br	80373c <_dtoa_r+0x1fc>
  803948:	d8000c15 	stw	zero,48(sp)
  80394c:	d8c02317 	ldw	r3,140(sp)
  803950:	d9000917 	ldw	r4,36(sp)
  803954:	1905883a 	add	r2,r3,r4
  803958:	15800044 	addi	r22,r2,1
  80395c:	d8800815 	stw	r2,32(sp)
  803960:	dd800615 	stw	r22,24(sp)
  803964:	05800116 	blt	zero,r22,80396c <_dtoa_r+0x42c>
  803968:	05800044 	movi	r22,1
  80396c:	00800604 	movi	r2,24
  803970:	e0001115 	stw	zero,68(fp)
  803974:	04400104 	movi	r17,4
  803978:	b0800636 	bltu	r22,r2,803994 <_dtoa_r+0x454>
  80397c:	0007883a 	mov	r3,zero
  803980:	8c63883a 	add	r17,r17,r17
  803984:	18c00044 	addi	r3,r3,1
  803988:	88800504 	addi	r2,r17,20
  80398c:	b0bffc2e 	bgeu	r22,r2,803980 <_dtoa_r+0x440>
  803990:	e0c01115 	stw	r3,68(fp)
  803994:	e1401117 	ldw	r5,68(fp)
  803998:	e009883a 	mov	r4,fp
  80399c:	080589c0 	call	80589c <_Balloc>
  8039a0:	d8c00617 	ldw	r3,24(sp)
  8039a4:	d8801815 	stw	r2,96(sp)
  8039a8:	e0801015 	stw	r2,64(fp)
  8039ac:	d8801715 	stw	r2,92(sp)
  8039b0:	00800384 	movi	r2,14
  8039b4:	10c0a836 	bltu	r2,r3,803c58 <_dtoa_r+0x718>
  8039b8:	8000a726 	beq	r16,zero,803c58 <_dtoa_r+0x718>
  8039bc:	d8c00917 	ldw	r3,36(sp)
  8039c0:	d9000617 	ldw	r4,24(sp)
  8039c4:	dc800f15 	stw	r18,60(sp)
  8039c8:	dcc01015 	stw	r19,64(sp)
  8039cc:	d8c00a15 	stw	r3,40(sp)
  8039d0:	d9000715 	stw	r4,28(sp)
  8039d4:	05800084 	movi	r22,2
  8039d8:	00c1230e 	bge	zero,r3,803e68 <_dtoa_r+0x928>
  8039dc:	188003cc 	andi	r2,r3,15
  8039e0:	1823d13a 	srai	r17,r3,4
  8039e4:	100490fa 	slli	r2,r2,3
  8039e8:	00c02074 	movhi	r3,129
  8039ec:	18c0f004 	addi	r3,r3,960
  8039f0:	10c5883a 	add	r2,r2,r3
  8039f4:	88c0040c 	andi	r3,r17,16
  8039f8:	15000017 	ldw	r20,0(r2)
  8039fc:	15400117 	ldw	r21,4(r2)
  803a00:	18000d26 	beq	r3,zero,803a38 <_dtoa_r+0x4f8>
  803a04:	01802074 	movhi	r6,129
  803a08:	3180e604 	addi	r6,r6,920
  803a0c:	30c00917 	ldw	r3,36(r6)
  803a10:	30800817 	ldw	r2,32(r6)
  803a14:	980b883a 	mov	r5,r19
  803a18:	9009883a 	mov	r4,r18
  803a1c:	180f883a 	mov	r7,r3
  803a20:	100d883a 	mov	r6,r2
  803a24:	080876c0 	call	80876c <__divdf3>
  803a28:	8c4003cc 	andi	r17,r17,15
  803a2c:	058000c4 	movi	r22,3
  803a30:	1025883a 	mov	r18,r2
  803a34:	1827883a 	mov	r19,r3
  803a38:	88001126 	beq	r17,zero,803a80 <_dtoa_r+0x540>
  803a3c:	04002074 	movhi	r16,129
  803a40:	8400e604 	addi	r16,r16,920
  803a44:	8880004c 	andi	r2,r17,1
  803a48:	10000a26 	beq	r2,zero,803a74 <_dtoa_r+0x534>
  803a4c:	80800017 	ldw	r2,0(r16)
  803a50:	80c00117 	ldw	r3,4(r16)
  803a54:	a80b883a 	mov	r5,r21
  803a58:	a009883a 	mov	r4,r20
  803a5c:	180f883a 	mov	r7,r3
  803a60:	100d883a 	mov	r6,r2
  803a64:	080836c0 	call	80836c <__muldf3>
  803a68:	b5800044 	addi	r22,r22,1
  803a6c:	1029883a 	mov	r20,r2
  803a70:	182b883a 	mov	r21,r3
  803a74:	8823d07a 	srai	r17,r17,1
  803a78:	84000204 	addi	r16,r16,8
  803a7c:	883ff11e 	bne	r17,zero,803a44 <_dtoa_r+0x504>
  803a80:	980b883a 	mov	r5,r19
  803a84:	9009883a 	mov	r4,r18
  803a88:	a80f883a 	mov	r7,r21
  803a8c:	a00d883a 	mov	r6,r20
  803a90:	080876c0 	call	80876c <__divdf3>
  803a94:	1025883a 	mov	r18,r2
  803a98:	1827883a 	mov	r19,r3
  803a9c:	d8c00b17 	ldw	r3,44(sp)
  803aa0:	18000926 	beq	r3,zero,803ac8 <_dtoa_r+0x588>
  803aa4:	0005883a 	mov	r2,zero
  803aa8:	00cffc34 	movhi	r3,16368
  803aac:	18c00004 	addi	r3,r3,0
  803ab0:	180f883a 	mov	r7,r3
  803ab4:	9009883a 	mov	r4,r18
  803ab8:	980b883a 	mov	r5,r19
  803abc:	100d883a 	mov	r6,r2
  803ac0:	0808bec0 	call	808bec <__ltdf2>
  803ac4:	10037816 	blt	r2,zero,8048a8 <_dtoa_r+0x1368>
  803ac8:	b009883a 	mov	r4,r22
  803acc:	0808c780 	call	808c78 <__floatsidf>
  803ad0:	180b883a 	mov	r5,r3
  803ad4:	1009883a 	mov	r4,r2
  803ad8:	900d883a 	mov	r6,r18
  803adc:	980f883a 	mov	r7,r19
  803ae0:	080836c0 	call	80836c <__muldf3>
  803ae4:	0011883a 	mov	r8,zero
  803ae8:	02500734 	movhi	r9,16412
  803aec:	4a400004 	addi	r9,r9,0
  803af0:	180b883a 	mov	r5,r3
  803af4:	480f883a 	mov	r7,r9
  803af8:	1009883a 	mov	r4,r2
  803afc:	400d883a 	mov	r6,r8
  803b00:	08082880 	call	808288 <__adddf3>
  803b04:	d8801115 	stw	r2,68(sp)
  803b08:	00bf3034 	movhi	r2,64704
  803b0c:	10800004 	addi	r2,r2,0
  803b10:	18a9883a 	add	r20,r3,r2
  803b14:	d8800617 	ldw	r2,24(sp)
  803b18:	dd001215 	stw	r20,72(sp)
  803b1c:	10024e1e 	bne	r2,zero,804458 <_dtoa_r+0xf18>
  803b20:	00d00534 	movhi	r3,16404
  803b24:	18c00004 	addi	r3,r3,0
  803b28:	980b883a 	mov	r5,r19
  803b2c:	180f883a 	mov	r7,r3
  803b30:	9009883a 	mov	r4,r18
  803b34:	100d883a 	mov	r6,r2
  803b38:	08082f40 	call	8082f4 <__subdf3>
  803b3c:	d9801117 	ldw	r6,68(sp)
  803b40:	a00f883a 	mov	r7,r20
  803b44:	1009883a 	mov	r4,r2
  803b48:	180b883a 	mov	r5,r3
  803b4c:	1021883a 	mov	r16,r2
  803b50:	1823883a 	mov	r17,r3
  803b54:	d8001615 	stw	zero,88(sp)
  803b58:	002f883a 	mov	r23,zero
  803b5c:	0808ad40 	call	808ad4 <__gtdf2>
  803b60:	0080260e 	bge	zero,r2,803bfc <_dtoa_r+0x6bc>
  803b64:	d8800917 	ldw	r2,36(sp)
  803b68:	d8c01817 	ldw	r3,96(sp)
  803b6c:	d9001817 	ldw	r4,96(sp)
  803b70:	10800044 	addi	r2,r2,1
  803b74:	18c00044 	addi	r3,r3,1
  803b78:	d8800915 	stw	r2,36(sp)
  803b7c:	d8c01715 	stw	r3,92(sp)
  803b80:	00800c44 	movi	r2,49
  803b84:	20800005 	stb	r2,0(r4)
  803b88:	e009883a 	mov	r4,fp
  803b8c:	b80b883a 	mov	r5,r23
  803b90:	080594c0 	call	80594c <_Bfree>
  803b94:	d9001617 	ldw	r4,88(sp)
  803b98:	20000926 	beq	r4,zero,803bc0 <_dtoa_r+0x680>
  803b9c:	d8801517 	ldw	r2,84(sp)
  803ba0:	10000426 	beq	r2,zero,803bb4 <_dtoa_r+0x674>
  803ba4:	11000326 	beq	r2,r4,803bb4 <_dtoa_r+0x674>
  803ba8:	100b883a 	mov	r5,r2
  803bac:	e009883a 	mov	r4,fp
  803bb0:	080594c0 	call	80594c <_Bfree>
  803bb4:	d9401617 	ldw	r5,88(sp)
  803bb8:	e009883a 	mov	r4,fp
  803bbc:	080594c0 	call	80594c <_Bfree>
  803bc0:	d9401417 	ldw	r5,80(sp)
  803bc4:	e009883a 	mov	r4,fp
  803bc8:	080594c0 	call	80594c <_Bfree>
  803bcc:	d8c01717 	ldw	r3,92(sp)
  803bd0:	18000005 	stb	zero,0(r3)
  803bd4:	d9000917 	ldw	r4,36(sp)
  803bd8:	d8c02417 	ldw	r3,144(sp)
  803bdc:	20800044 	addi	r2,r4,1
  803be0:	d9002617 	ldw	r4,152(sp)
  803be4:	18800015 	stw	r2,0(r3)
  803be8:	20000226 	beq	r4,zero,803bf4 <_dtoa_r+0x6b4>
  803bec:	d8801717 	ldw	r2,92(sp)
  803bf0:	20800015 	stw	r2,0(r4)
  803bf4:	d8801817 	ldw	r2,96(sp)
  803bf8:	003e7c06 	br	8035ec <_dtoa_r+0xac>
  803bfc:	d9001117 	ldw	r4,68(sp)
  803c00:	000d883a 	mov	r6,zero
  803c04:	01e00034 	movhi	r7,32768
  803c08:	39c00004 	addi	r7,r7,0
  803c0c:	2184f03a 	xor	r2,r4,r6
  803c10:	d9001217 	ldw	r4,72(sp)
  803c14:	800d883a 	mov	r6,r16
  803c18:	21c6f03a 	xor	r3,r4,r7
  803c1c:	180b883a 	mov	r5,r3
  803c20:	1009883a 	mov	r4,r2
  803c24:	880f883a 	mov	r7,r17
  803c28:	0808ad40 	call	808ad4 <__gtdf2>
  803c2c:	00808a16 	blt	zero,r2,803e58 <_dtoa_r+0x918>
  803c30:	d9000f17 	ldw	r4,60(sp)
  803c34:	d8801017 	ldw	r2,64(sp)
  803c38:	d8c00a17 	ldw	r3,40(sp)
  803c3c:	2025883a 	mov	r18,r4
  803c40:	1027883a 	mov	r19,r2
  803c44:	d9000717 	ldw	r4,28(sp)
  803c48:	d8801817 	ldw	r2,96(sp)
  803c4c:	d8c00915 	stw	r3,36(sp)
  803c50:	d9000615 	stw	r4,24(sp)
  803c54:	d8801715 	stw	r2,92(sp)
  803c58:	d8c00217 	ldw	r3,8(sp)
  803c5c:	1800a716 	blt	r3,zero,803efc <_dtoa_r+0x9bc>
  803c60:	d9000917 	ldw	r4,36(sp)
  803c64:	00800384 	movi	r2,14
  803c68:	1100a416 	blt	r2,r4,803efc <_dtoa_r+0x9bc>
  803c6c:	200490fa 	slli	r2,r4,3
  803c70:	00c02074 	movhi	r3,129
  803c74:	18c0f004 	addi	r3,r3,960
  803c78:	10c5883a 	add	r2,r2,r3
  803c7c:	15000017 	ldw	r20,0(r2)
  803c80:	15400117 	ldw	r21,4(r2)
  803c84:	d8802317 	ldw	r2,140(sp)
  803c88:	10006016 	blt	r2,zero,803e0c <_dtoa_r+0x8cc>
  803c8c:	05800044 	movi	r22,1
  803c90:	00001106 	br	803cd8 <_dtoa_r+0x798>
  803c94:	0005883a 	mov	r2,zero
  803c98:	00d00934 	movhi	r3,16420
  803c9c:	18c00004 	addi	r3,r3,0
  803ca0:	400d883a 	mov	r6,r8
  803ca4:	180b883a 	mov	r5,r3
  803ca8:	480f883a 	mov	r7,r9
  803cac:	1009883a 	mov	r4,r2
  803cb0:	080836c0 	call	80836c <__muldf3>
  803cb4:	180b883a 	mov	r5,r3
  803cb8:	000d883a 	mov	r6,zero
  803cbc:	000f883a 	mov	r7,zero
  803cc0:	1009883a 	mov	r4,r2
  803cc4:	1025883a 	mov	r18,r2
  803cc8:	1827883a 	mov	r19,r3
  803ccc:	08089bc0 	call	8089bc <__eqdf2>
  803cd0:	103fbb26 	beq	r2,zero,803bc0 <_dtoa_r+0x680>
  803cd4:	b5800044 	addi	r22,r22,1
  803cd8:	a00d883a 	mov	r6,r20
  803cdc:	a80f883a 	mov	r7,r21
  803ce0:	9009883a 	mov	r4,r18
  803ce4:	980b883a 	mov	r5,r19
  803ce8:	080876c0 	call	80876c <__divdf3>
  803cec:	180b883a 	mov	r5,r3
  803cf0:	1009883a 	mov	r4,r2
  803cf4:	0808d480 	call	808d48 <__fixdfsi>
  803cf8:	1009883a 	mov	r4,r2
  803cfc:	102f883a 	mov	r23,r2
  803d00:	0808c780 	call	808c78 <__floatsidf>
  803d04:	180b883a 	mov	r5,r3
  803d08:	1009883a 	mov	r4,r2
  803d0c:	a00d883a 	mov	r6,r20
  803d10:	a80f883a 	mov	r7,r21
  803d14:	080836c0 	call	80836c <__muldf3>
  803d18:	180f883a 	mov	r7,r3
  803d1c:	9009883a 	mov	r4,r18
  803d20:	980b883a 	mov	r5,r19
  803d24:	100d883a 	mov	r6,r2
  803d28:	08082f40 	call	8082f4 <__subdf3>
  803d2c:	d9001717 	ldw	r4,92(sp)
  803d30:	1011883a 	mov	r8,r2
  803d34:	b8800c04 	addi	r2,r23,48
  803d38:	20800005 	stb	r2,0(r4)
  803d3c:	d8800617 	ldw	r2,24(sp)
  803d40:	21000044 	addi	r4,r4,1
  803d44:	1813883a 	mov	r9,r3
  803d48:	d9001715 	stw	r4,92(sp)
  803d4c:	b0bfd11e 	bne	r22,r2,803c94 <_dtoa_r+0x754>
  803d50:	4009883a 	mov	r4,r8
  803d54:	180b883a 	mov	r5,r3
  803d58:	400d883a 	mov	r6,r8
  803d5c:	180f883a 	mov	r7,r3
  803d60:	08082880 	call	808288 <__adddf3>
  803d64:	100d883a 	mov	r6,r2
  803d68:	a009883a 	mov	r4,r20
  803d6c:	a80b883a 	mov	r5,r21
  803d70:	180f883a 	mov	r7,r3
  803d74:	1021883a 	mov	r16,r2
  803d78:	1823883a 	mov	r17,r3
  803d7c:	0808bec0 	call	808bec <__ltdf2>
  803d80:	10000816 	blt	r2,zero,803da4 <_dtoa_r+0x864>
  803d84:	a80b883a 	mov	r5,r21
  803d88:	800d883a 	mov	r6,r16
  803d8c:	880f883a 	mov	r7,r17
  803d90:	a009883a 	mov	r4,r20
  803d94:	08089bc0 	call	8089bc <__eqdf2>
  803d98:	103f891e 	bne	r2,zero,803bc0 <_dtoa_r+0x680>
  803d9c:	b880004c 	andi	r2,r23,1
  803da0:	103f8726 	beq	r2,zero,803bc0 <_dtoa_r+0x680>
  803da4:	d8c01717 	ldw	r3,92(sp)
  803da8:	00800e44 	movi	r2,57
  803dac:	18ffffc4 	addi	r3,r3,-1
  803db0:	d8c01715 	stw	r3,92(sp)
  803db4:	18c00007 	ldb	r3,0(r3)
  803db8:	1882341e 	bne	r3,r2,80468c <_dtoa_r+0x114c>
  803dbc:	d9001717 	ldw	r4,92(sp)
  803dc0:	d8801817 	ldw	r2,96(sp)
  803dc4:	20822b26 	beq	r4,r2,804674 <_dtoa_r+0x1134>
  803dc8:	213fffc4 	addi	r4,r4,-1
  803dcc:	d9001715 	stw	r4,92(sp)
  803dd0:	20800007 	ldb	r2,0(r4)
  803dd4:	003ff806 	br	803db8 <_dtoa_r+0x878>
  803dd8:	1d85c83a 	sub	r2,r3,r22
  803ddc:	90a0983a 	sll	r16,r18,r2
  803de0:	003e4906 	br	803708 <_dtoa_r+0x1c8>
  803de4:	d8000c15 	stw	zero,48(sp)
  803de8:	d9002317 	ldw	r4,140(sp)
  803dec:	0102a70e 	bge	zero,r4,80488c <_dtoa_r+0x134c>
  803df0:	dd802317 	ldw	r22,140(sp)
  803df4:	dd800815 	stw	r22,32(sp)
  803df8:	dd800615 	stw	r22,24(sp)
  803dfc:	003edb06 	br	80396c <_dtoa_r+0x42c>
  803e00:	05800484 	movi	r22,18
  803e04:	d8002315 	stw	zero,140(sp)
  803e08:	003ed806 	br	80396c <_dtoa_r+0x42c>
  803e0c:	d8c00617 	ldw	r3,24(sp)
  803e10:	00ff9e16 	blt	zero,r3,803c8c <_dtoa_r+0x74c>
  803e14:	d8001615 	stw	zero,88(sp)
  803e18:	002f883a 	mov	r23,zero
  803e1c:	18000e16 	blt	r3,zero,803e58 <_dtoa_r+0x918>
  803e20:	0005883a 	mov	r2,zero
  803e24:	00d00534 	movhi	r3,16404
  803e28:	18c00004 	addi	r3,r3,0
  803e2c:	a80b883a 	mov	r5,r21
  803e30:	180f883a 	mov	r7,r3
  803e34:	a009883a 	mov	r4,r20
  803e38:	100d883a 	mov	r6,r2
  803e3c:	080836c0 	call	80836c <__muldf3>
  803e40:	180b883a 	mov	r5,r3
  803e44:	980f883a 	mov	r7,r19
  803e48:	1009883a 	mov	r4,r2
  803e4c:	900d883a 	mov	r6,r18
  803e50:	0808b600 	call	808b60 <__gedf2>
  803e54:	103f4316 	blt	r2,zero,803b64 <_dtoa_r+0x624>
  803e58:	d9002317 	ldw	r4,140(sp)
  803e5c:	0108303a 	nor	r4,zero,r4
  803e60:	d9000915 	stw	r4,36(sp)
  803e64:	003f4806 	br	803b88 <_dtoa_r+0x648>
  803e68:	d8800917 	ldw	r2,36(sp)
  803e6c:	00a9c83a 	sub	r20,zero,r2
  803e70:	a03f0a26 	beq	r20,zero,803a9c <_dtoa_r+0x55c>
  803e74:	a14003cc 	andi	r5,r20,15
  803e78:	280a90fa 	slli	r5,r5,3
  803e7c:	01002074 	movhi	r4,129
  803e80:	2100f004 	addi	r4,r4,960
  803e84:	a023d13a 	srai	r17,r20,4
  803e88:	290b883a 	add	r5,r5,r4
  803e8c:	28800017 	ldw	r2,0(r5)
  803e90:	28c00117 	ldw	r3,4(r5)
  803e94:	980f883a 	mov	r7,r19
  803e98:	900d883a 	mov	r6,r18
  803e9c:	180b883a 	mov	r5,r3
  803ea0:	1009883a 	mov	r4,r2
  803ea4:	080836c0 	call	80836c <__muldf3>
  803ea8:	1025883a 	mov	r18,r2
  803eac:	1827883a 	mov	r19,r3
  803eb0:	883efa26 	beq	r17,zero,803a9c <_dtoa_r+0x55c>
  803eb4:	04002074 	movhi	r16,129
  803eb8:	8400e604 	addi	r16,r16,920
  803ebc:	8880004c 	andi	r2,r17,1
  803ec0:	10000a26 	beq	r2,zero,803eec <_dtoa_r+0x9ac>
  803ec4:	80800017 	ldw	r2,0(r16)
  803ec8:	80c00117 	ldw	r3,4(r16)
  803ecc:	980f883a 	mov	r7,r19
  803ed0:	900d883a 	mov	r6,r18
  803ed4:	180b883a 	mov	r5,r3
  803ed8:	1009883a 	mov	r4,r2
  803edc:	080836c0 	call	80836c <__muldf3>
  803ee0:	b5800044 	addi	r22,r22,1
  803ee4:	1025883a 	mov	r18,r2
  803ee8:	1827883a 	mov	r19,r3
  803eec:	8823d07a 	srai	r17,r17,1
  803ef0:	84000204 	addi	r16,r16,8
  803ef4:	883ff11e 	bne	r17,zero,803ebc <_dtoa_r+0x97c>
  803ef8:	003ee806 	br	803a9c <_dtoa_r+0x55c>
  803efc:	d9000c17 	ldw	r4,48(sp)
  803f00:	dd000417 	ldw	r20,16(sp)
  803f04:	dc000517 	ldw	r16,20(sp)
  803f08:	202b003a 	cmpeq	r21,r4,zero
  803f0c:	d8001515 	stw	zero,84(sp)
  803f10:	d8001615 	stw	zero,88(sp)
  803f14:	a800131e 	bne	r21,zero,803f64 <_dtoa_r+0xa24>
  803f18:	d9000317 	ldw	r4,12(sp)
  803f1c:	00800044 	movi	r2,1
  803f20:	1101a216 	blt	r2,r4,8045ac <_dtoa_r+0x106c>
  803f24:	d8801317 	ldw	r2,76(sp)
  803f28:	1d810cc4 	addi	r22,r3,1075
  803f2c:	1000031e 	bne	r2,zero,803f3c <_dtoa_r+0x9fc>
  803f30:	d8800117 	ldw	r2,4(sp)
  803f34:	00c00d84 	movi	r3,54
  803f38:	18adc83a 	sub	r22,r3,r2
  803f3c:	e009883a 	mov	r4,fp
  803f40:	01400044 	movi	r5,1
  803f44:	0805ca80 	call	805ca8 <_i2b>
  803f48:	d8801615 	stw	r2,88(sp)
  803f4c:	d9000d17 	ldw	r4,52(sp)
  803f50:	d8800417 	ldw	r2,16(sp)
  803f54:	2589883a 	add	r4,r4,r22
  803f58:	1585883a 	add	r2,r2,r22
  803f5c:	d9000d15 	stw	r4,52(sp)
  803f60:	d8800415 	stw	r2,16(sp)
  803f64:	05000c0e 	bge	zero,r20,803f98 <_dtoa_r+0xa58>
  803f68:	d8c00d17 	ldw	r3,52(sp)
  803f6c:	00c00a0e 	bge	zero,r3,803f98 <_dtoa_r+0xa58>
  803f70:	182d883a 	mov	r22,r3
  803f74:	a0c0010e 	bge	r20,r3,803f7c <_dtoa_r+0xa3c>
  803f78:	a02d883a 	mov	r22,r20
  803f7c:	d9000d17 	ldw	r4,52(sp)
  803f80:	d8800417 	ldw	r2,16(sp)
  803f84:	a5a9c83a 	sub	r20,r20,r22
  803f88:	2589c83a 	sub	r4,r4,r22
  803f8c:	1585c83a 	sub	r2,r2,r22
  803f90:	d9000d15 	stw	r4,52(sp)
  803f94:	d8800415 	stw	r2,16(sp)
  803f98:	d8c00517 	ldw	r3,20(sp)
  803f9c:	00c0130e 	bge	zero,r3,803fec <_dtoa_r+0xaac>
  803fa0:	a801941e 	bne	r21,zero,8045f4 <_dtoa_r+0x10b4>
  803fa4:	04000e0e 	bge	zero,r16,803fe0 <_dtoa_r+0xaa0>
  803fa8:	d9401617 	ldw	r5,88(sp)
  803fac:	e009883a 	mov	r4,fp
  803fb0:	800d883a 	mov	r6,r16
  803fb4:	0805f380 	call	805f38 <_pow5mult>
  803fb8:	d9801417 	ldw	r6,80(sp)
  803fbc:	e009883a 	mov	r4,fp
  803fc0:	100b883a 	mov	r5,r2
  803fc4:	d8801615 	stw	r2,88(sp)
  803fc8:	0805ce40 	call	805ce4 <_multiply>
  803fcc:	d9401417 	ldw	r5,80(sp)
  803fd0:	1023883a 	mov	r17,r2
  803fd4:	e009883a 	mov	r4,fp
  803fd8:	080594c0 	call	80594c <_Bfree>
  803fdc:	dc401415 	stw	r17,80(sp)
  803fe0:	d9000517 	ldw	r4,20(sp)
  803fe4:	2423c83a 	sub	r17,r4,r16
  803fe8:	8801af1e 	bne	r17,zero,8046a8 <_dtoa_r+0x1168>
  803fec:	04000044 	movi	r16,1
  803ff0:	e009883a 	mov	r4,fp
  803ff4:	800b883a 	mov	r5,r16
  803ff8:	0805ca80 	call	805ca8 <_i2b>
  803ffc:	102f883a 	mov	r23,r2
  804000:	d8800e17 	ldw	r2,56(sp)
  804004:	0080050e 	bge	zero,r2,80401c <_dtoa_r+0xadc>
  804008:	b80b883a 	mov	r5,r23
  80400c:	e009883a 	mov	r4,fp
  804010:	100d883a 	mov	r6,r2
  804014:	0805f380 	call	805f38 <_pow5mult>
  804018:	102f883a 	mov	r23,r2
  80401c:	d8c00317 	ldw	r3,12(sp)
  804020:	0023883a 	mov	r17,zero
  804024:	80c00e16 	blt	r16,r3,804060 <_dtoa_r+0xb20>
  804028:	90000d1e 	bne	r18,zero,804060 <_dtoa_r+0xb20>
  80402c:	00800434 	movhi	r2,16
  804030:	10bfffc4 	addi	r2,r2,-1
  804034:	9884703a 	and	r2,r19,r2
  804038:	1000091e 	bne	r2,zero,804060 <_dtoa_r+0xb20>
  80403c:	989ffc2c 	andhi	r2,r19,32752
  804040:	10000726 	beq	r2,zero,804060 <_dtoa_r+0xb20>
  804044:	d9000417 	ldw	r4,16(sp)
  804048:	d8800d17 	ldw	r2,52(sp)
  80404c:	8023883a 	mov	r17,r16
  804050:	21000044 	addi	r4,r4,1
  804054:	10800044 	addi	r2,r2,1
  804058:	d9000415 	stw	r4,16(sp)
  80405c:	d8800d15 	stw	r2,52(sp)
  804060:	d8c00e17 	ldw	r3,56(sp)
  804064:	1800f41e 	bne	r3,zero,804438 <_dtoa_r+0xef8>
  804068:	d8c00d17 	ldw	r3,52(sp)
  80406c:	18800044 	addi	r2,r3,1
  804070:	158007cc 	andi	r22,r2,31
  804074:	b0000226 	beq	r22,zero,804080 <_dtoa_r+0xb40>
  804078:	00800804 	movi	r2,32
  80407c:	15adc83a 	sub	r22,r2,r22
  804080:	00800104 	movi	r2,4
  804084:	1580b20e 	bge	r2,r22,804350 <_dtoa_r+0xe10>
  804088:	d9000d17 	ldw	r4,52(sp)
  80408c:	d8800417 	ldw	r2,16(sp)
  804090:	b5bfff04 	addi	r22,r22,-4
  804094:	2589883a 	add	r4,r4,r22
  804098:	1585883a 	add	r2,r2,r22
  80409c:	d9000d15 	stw	r4,52(sp)
  8040a0:	d8800415 	stw	r2,16(sp)
  8040a4:	a5a9883a 	add	r20,r20,r22
  8040a8:	d8800417 	ldw	r2,16(sp)
  8040ac:	0080050e 	bge	zero,r2,8040c4 <_dtoa_r+0xb84>
  8040b0:	d9401417 	ldw	r5,80(sp)
  8040b4:	100d883a 	mov	r6,r2
  8040b8:	e009883a 	mov	r4,fp
  8040bc:	08060640 	call	806064 <_lshift>
  8040c0:	d8801415 	stw	r2,80(sp)
  8040c4:	d8c00d17 	ldw	r3,52(sp)
  8040c8:	00c0050e 	bge	zero,r3,8040e0 <_dtoa_r+0xba0>
  8040cc:	b80b883a 	mov	r5,r23
  8040d0:	180d883a 	mov	r6,r3
  8040d4:	e009883a 	mov	r4,fp
  8040d8:	08060640 	call	806064 <_lshift>
  8040dc:	102f883a 	mov	r23,r2
  8040e0:	d9000b17 	ldw	r4,44(sp)
  8040e4:	2000c31e 	bne	r4,zero,8043f4 <_dtoa_r+0xeb4>
  8040e8:	d9000617 	ldw	r4,24(sp)
  8040ec:	0101520e 	bge	zero,r4,804638 <_dtoa_r+0x10f8>
  8040f0:	05800044 	movi	r22,1
  8040f4:	a8004d1e 	bne	r21,zero,80422c <_dtoa_r+0xcec>
  8040f8:	0500050e 	bge	zero,r20,804110 <_dtoa_r+0xbd0>
  8040fc:	d9401617 	ldw	r5,88(sp)
  804100:	a00d883a 	mov	r6,r20
  804104:	e009883a 	mov	r4,fp
  804108:	08060640 	call	806064 <_lshift>
  80410c:	d8801615 	stw	r2,88(sp)
  804110:	d8801617 	ldw	r2,88(sp)
  804114:	d8801515 	stw	r2,84(sp)
  804118:	8801661e 	bne	r17,zero,8046b4 <_dtoa_r+0x1174>
  80411c:	94c0004c 	andi	r19,r18,1
  804120:	05800044 	movi	r22,1
  804124:	05400e44 	movi	r21,57
  804128:	d9001417 	ldw	r4,80(sp)
  80412c:	b80b883a 	mov	r5,r23
  804130:	05000044 	movi	r20,1
  804134:	08033140 	call	803314 <quorem>
  804138:	d9001417 	ldw	r4,80(sp)
  80413c:	d9401517 	ldw	r5,84(sp)
  804140:	14800c04 	addi	r18,r2,48
  804144:	080619c0 	call	80619c <__mcmp>
  804148:	d9801617 	ldw	r6,88(sp)
  80414c:	e009883a 	mov	r4,fp
  804150:	b80b883a 	mov	r5,r23
  804154:	1023883a 	mov	r17,r2
  804158:	08062000 	call	806200 <__mdiff>
  80415c:	1021883a 	mov	r16,r2
  804160:	10800317 	ldw	r2,12(r2)
  804164:	10006c26 	beq	r2,zero,804318 <_dtoa_r+0xdd8>
  804168:	800b883a 	mov	r5,r16
  80416c:	e009883a 	mov	r4,fp
  804170:	080594c0 	call	80594c <_Bfree>
  804174:	a000031e 	bne	r20,zero,804184 <_dtoa_r+0xc44>
  804178:	d9000317 	ldw	r4,12(sp)
  80417c:	2000011e 	bne	r4,zero,804184 <_dtoa_r+0xc44>
  804180:	98005d26 	beq	r19,zero,8042f8 <_dtoa_r+0xdb8>
  804184:	88004a16 	blt	r17,zero,8042b0 <_dtoa_r+0xd70>
  804188:	8800031e 	bne	r17,zero,804198 <_dtoa_r+0xc58>
  80418c:	d8c00317 	ldw	r3,12(sp)
  804190:	1800011e 	bne	r3,zero,804198 <_dtoa_r+0xc58>
  804194:	98004626 	beq	r19,zero,8042b0 <_dtoa_r+0xd70>
  804198:	0501a916 	blt	zero,r20,804840 <_dtoa_r+0x1300>
  80419c:	d9001717 	ldw	r4,92(sp)
  8041a0:	24800005 	stb	r18,0(r4)
  8041a4:	d8800617 	ldw	r2,24(sp)
  8041a8:	21000044 	addi	r4,r4,1
  8041ac:	d9001715 	stw	r4,92(sp)
  8041b0:	b0802926 	beq	r22,r2,804258 <_dtoa_r+0xd18>
  8041b4:	d9401417 	ldw	r5,80(sp)
  8041b8:	e009883a 	mov	r4,fp
  8041bc:	01800284 	movi	r6,10
  8041c0:	000f883a 	mov	r7,zero
  8041c4:	08059700 	call	805970 <_multadd>
  8041c8:	d8c01517 	ldw	r3,84(sp)
  8041cc:	d9001617 	ldw	r4,88(sp)
  8041d0:	d8801415 	stw	r2,80(sp)
  8041d4:	19005526 	beq	r3,r4,80432c <_dtoa_r+0xdec>
  8041d8:	d9401517 	ldw	r5,84(sp)
  8041dc:	e009883a 	mov	r4,fp
  8041e0:	01800284 	movi	r6,10
  8041e4:	000f883a 	mov	r7,zero
  8041e8:	08059700 	call	805970 <_multadd>
  8041ec:	d9401617 	ldw	r5,88(sp)
  8041f0:	e009883a 	mov	r4,fp
  8041f4:	01800284 	movi	r6,10
  8041f8:	000f883a 	mov	r7,zero
  8041fc:	d8801515 	stw	r2,84(sp)
  804200:	b5800044 	addi	r22,r22,1
  804204:	08059700 	call	805970 <_multadd>
  804208:	d8801615 	stw	r2,88(sp)
  80420c:	003fc606 	br	804128 <_dtoa_r+0xbe8>
  804210:	d9401417 	ldw	r5,80(sp)
  804214:	e009883a 	mov	r4,fp
  804218:	01800284 	movi	r6,10
  80421c:	000f883a 	mov	r7,zero
  804220:	08059700 	call	805970 <_multadd>
  804224:	d8801415 	stw	r2,80(sp)
  804228:	b5800044 	addi	r22,r22,1
  80422c:	d9001417 	ldw	r4,80(sp)
  804230:	b80b883a 	mov	r5,r23
  804234:	08033140 	call	803314 <quorem>
  804238:	14800c04 	addi	r18,r2,48
  80423c:	d8801717 	ldw	r2,92(sp)
  804240:	14800005 	stb	r18,0(r2)
  804244:	d8801717 	ldw	r2,92(sp)
  804248:	d8c00617 	ldw	r3,24(sp)
  80424c:	10800044 	addi	r2,r2,1
  804250:	d8801715 	stw	r2,92(sp)
  804254:	b0ffee16 	blt	r22,r3,804210 <_dtoa_r+0xcd0>
  804258:	d9401417 	ldw	r5,80(sp)
  80425c:	e009883a 	mov	r4,fp
  804260:	01800044 	movi	r6,1
  804264:	08060640 	call	806064 <_lshift>
  804268:	1009883a 	mov	r4,r2
  80426c:	b80b883a 	mov	r5,r23
  804270:	d8801415 	stw	r2,80(sp)
  804274:	080619c0 	call	80619c <__mcmp>
  804278:	0081770e 	bge	zero,r2,804858 <_dtoa_r+0x1318>
  80427c:	d9001717 	ldw	r4,92(sp)
  804280:	00800e44 	movi	r2,57
  804284:	213fffc4 	addi	r4,r4,-1
  804288:	d9001715 	stw	r4,92(sp)
  80428c:	20c00007 	ldb	r3,0(r4)
  804290:	1880391e 	bne	r3,r2,804378 <_dtoa_r+0xe38>
  804294:	d8801717 	ldw	r2,92(sp)
  804298:	d9001817 	ldw	r4,96(sp)
  80429c:	113e3126 	beq	r2,r4,803b64 <_dtoa_r+0x624>
  8042a0:	10bfffc4 	addi	r2,r2,-1
  8042a4:	d8801715 	stw	r2,92(sp)
  8042a8:	10800007 	ldb	r2,0(r2)
  8042ac:	003ff806 	br	804290 <_dtoa_r+0xd50>
  8042b0:	05000c0e 	bge	zero,r20,8042e4 <_dtoa_r+0xda4>
  8042b4:	d9401417 	ldw	r5,80(sp)
  8042b8:	e009883a 	mov	r4,fp
  8042bc:	01800044 	movi	r6,1
  8042c0:	08060640 	call	806064 <_lshift>
  8042c4:	1009883a 	mov	r4,r2
  8042c8:	b80b883a 	mov	r5,r23
  8042cc:	d8801415 	stw	r2,80(sp)
  8042d0:	080619c0 	call	80619c <__mcmp>
  8042d4:	00818a0e 	bge	zero,r2,804900 <_dtoa_r+0x13c0>
  8042d8:	94800044 	addi	r18,r18,1
  8042dc:	00800e84 	movi	r2,58
  8042e0:	90815826 	beq	r18,r2,804844 <_dtoa_r+0x1304>
  8042e4:	d9001717 	ldw	r4,92(sp)
  8042e8:	24800005 	stb	r18,0(r4)
  8042ec:	21000044 	addi	r4,r4,1
  8042f0:	d9001715 	stw	r4,92(sp)
  8042f4:	003e2406 	br	803b88 <_dtoa_r+0x648>
  8042f8:	95415226 	beq	r18,r21,804844 <_dtoa_r+0x1304>
  8042fc:	0440010e 	bge	zero,r17,804304 <_dtoa_r+0xdc4>
  804300:	94800044 	addi	r18,r18,1
  804304:	d8801717 	ldw	r2,92(sp)
  804308:	14800005 	stb	r18,0(r2)
  80430c:	10800044 	addi	r2,r2,1
  804310:	d8801715 	stw	r2,92(sp)
  804314:	003e1c06 	br	803b88 <_dtoa_r+0x648>
  804318:	d9001417 	ldw	r4,80(sp)
  80431c:	800b883a 	mov	r5,r16
  804320:	080619c0 	call	80619c <__mcmp>
  804324:	1029883a 	mov	r20,r2
  804328:	003f8f06 	br	804168 <_dtoa_r+0xc28>
  80432c:	200b883a 	mov	r5,r4
  804330:	01800284 	movi	r6,10
  804334:	e009883a 	mov	r4,fp
  804338:	000f883a 	mov	r7,zero
  80433c:	08059700 	call	805970 <_multadd>
  804340:	b5800044 	addi	r22,r22,1
  804344:	d8801615 	stw	r2,88(sp)
  804348:	d8801515 	stw	r2,84(sp)
  80434c:	003f7606 	br	804128 <_dtoa_r+0xbe8>
  804350:	008000c4 	movi	r2,3
  804354:	15bf5416 	blt	r2,r22,8040a8 <_dtoa_r+0xb68>
  804358:	d8c00d17 	ldw	r3,52(sp)
  80435c:	d9000417 	ldw	r4,16(sp)
  804360:	b5800704 	addi	r22,r22,28
  804364:	1d87883a 	add	r3,r3,r22
  804368:	2589883a 	add	r4,r4,r22
  80436c:	d8c00d15 	stw	r3,52(sp)
  804370:	d9000415 	stw	r4,16(sp)
  804374:	003f4b06 	br	8040a4 <_dtoa_r+0xb64>
  804378:	d8c01717 	ldw	r3,92(sp)
  80437c:	18800003 	ldbu	r2,0(r3)
  804380:	19000044 	addi	r4,r3,1
  804384:	d9001715 	stw	r4,92(sp)
  804388:	10800044 	addi	r2,r2,1
  80438c:	18800005 	stb	r2,0(r3)
  804390:	003dfd06 	br	803b88 <_dtoa_r+0x648>
  804394:	d8800417 	ldw	r2,16(sp)
  804398:	d8c00917 	ldw	r3,36(sp)
  80439c:	d8000e15 	stw	zero,56(sp)
  8043a0:	10c5c83a 	sub	r2,r2,r3
  8043a4:	00c9c83a 	sub	r4,zero,r3
  8043a8:	d8800415 	stw	r2,16(sp)
  8043ac:	d9000515 	stw	r4,20(sp)
  8043b0:	003d3b06 	br	8038a0 <_dtoa_r+0x360>
  8043b4:	0463c83a 	sub	r17,zero,r17
  8043b8:	dc400415 	stw	r17,16(sp)
  8043bc:	d8000d15 	stw	zero,52(sp)
  8043c0:	003d3006 	br	803884 <_dtoa_r+0x344>
  8043c4:	d9000917 	ldw	r4,36(sp)
  8043c8:	0808c780 	call	808c78 <__floatsidf>
  8043cc:	180b883a 	mov	r5,r3
  8043d0:	800d883a 	mov	r6,r16
  8043d4:	880f883a 	mov	r7,r17
  8043d8:	1009883a 	mov	r4,r2
  8043dc:	0808a480 	call	808a48 <__nedf2>
  8043e0:	103d0e26 	beq	r2,zero,80381c <_dtoa_r+0x2dc>
  8043e4:	d8800917 	ldw	r2,36(sp)
  8043e8:	10bfffc4 	addi	r2,r2,-1
  8043ec:	d8800915 	stw	r2,36(sp)
  8043f0:	003d0a06 	br	80381c <_dtoa_r+0x2dc>
  8043f4:	d9001417 	ldw	r4,80(sp)
  8043f8:	b80b883a 	mov	r5,r23
  8043fc:	080619c0 	call	80619c <__mcmp>
  804400:	103f390e 	bge	r2,zero,8040e8 <_dtoa_r+0xba8>
  804404:	d9401417 	ldw	r5,80(sp)
  804408:	e009883a 	mov	r4,fp
  80440c:	01800284 	movi	r6,10
  804410:	000f883a 	mov	r7,zero
  804414:	08059700 	call	805970 <_multadd>
  804418:	d8801415 	stw	r2,80(sp)
  80441c:	d8800917 	ldw	r2,36(sp)
  804420:	10bfffc4 	addi	r2,r2,-1
  804424:	d8800915 	stw	r2,36(sp)
  804428:	a8013926 	beq	r21,zero,804910 <_dtoa_r+0x13d0>
  80442c:	d8c00817 	ldw	r3,32(sp)
  804430:	d8c00615 	stw	r3,24(sp)
  804434:	003f2c06 	br	8040e8 <_dtoa_r+0xba8>
  804438:	b8800417 	ldw	r2,16(r23)
  80443c:	100490ba 	slli	r2,r2,2
  804440:	15c5883a 	add	r2,r2,r23
  804444:	11000417 	ldw	r4,16(r2)
  804448:	0805b900 	call	805b90 <_hi0bits>
  80444c:	d9000d17 	ldw	r4,52(sp)
  804450:	2085c83a 	sub	r2,r4,r2
  804454:	003f0606 	br	804070 <_dtoa_r+0xb30>
  804458:	d8800c17 	ldw	r2,48(sp)
  80445c:	1000a626 	beq	r2,zero,8046f8 <_dtoa_r+0x11b8>
  804460:	d8c00617 	ldw	r3,24(sp)
  804464:	01002074 	movhi	r4,129
  804468:	2100ee04 	addi	r4,r4,952
  80446c:	0005883a 	mov	r2,zero
  804470:	180c90fa 	slli	r6,r3,3
  804474:	00cff834 	movhi	r3,16352
  804478:	18c00004 	addi	r3,r3,0
  80447c:	180b883a 	mov	r5,r3
  804480:	310d883a 	add	r6,r6,r4
  804484:	32400117 	ldw	r9,4(r6)
  804488:	32000017 	ldw	r8,0(r6)
  80448c:	1009883a 	mov	r4,r2
  804490:	480f883a 	mov	r7,r9
  804494:	400d883a 	mov	r6,r8
  804498:	080876c0 	call	80876c <__divdf3>
  80449c:	d9801117 	ldw	r6,68(sp)
  8044a0:	180b883a 	mov	r5,r3
  8044a4:	a00f883a 	mov	r7,r20
  8044a8:	1009883a 	mov	r4,r2
  8044ac:	08082f40 	call	8082f4 <__subdf3>
  8044b0:	002d883a 	mov	r22,zero
  8044b4:	d8801115 	stw	r2,68(sp)
  8044b8:	d8c01215 	stw	r3,72(sp)
  8044bc:	00001106 	br	804504 <_dtoa_r+0xfc4>
  8044c0:	d9c01217 	ldw	r7,72(sp)
  8044c4:	d9801117 	ldw	r6,68(sp)
  8044c8:	04500934 	movhi	r17,16420
  8044cc:	8c400004 	addi	r17,r17,0
  8044d0:	0021883a 	mov	r16,zero
  8044d4:	8009883a 	mov	r4,r16
  8044d8:	880b883a 	mov	r5,r17
  8044dc:	080836c0 	call	80836c <__muldf3>
  8044e0:	0009883a 	mov	r4,zero
  8044e4:	880b883a 	mov	r5,r17
  8044e8:	a00d883a 	mov	r6,r20
  8044ec:	a80f883a 	mov	r7,r21
  8044f0:	d8801115 	stw	r2,68(sp)
  8044f4:	d8c01215 	stw	r3,72(sp)
  8044f8:	080836c0 	call	80836c <__muldf3>
  8044fc:	1025883a 	mov	r18,r2
  804500:	1827883a 	mov	r19,r3
  804504:	980b883a 	mov	r5,r19
  804508:	9009883a 	mov	r4,r18
  80450c:	0808d480 	call	808d48 <__fixdfsi>
  804510:	1009883a 	mov	r4,r2
  804514:	102f883a 	mov	r23,r2
  804518:	0808c780 	call	808c78 <__floatsidf>
  80451c:	980b883a 	mov	r5,r19
  804520:	180f883a 	mov	r7,r3
  804524:	9009883a 	mov	r4,r18
  804528:	100d883a 	mov	r6,r2
  80452c:	08082f40 	call	8082f4 <__subdf3>
  804530:	182b883a 	mov	r21,r3
  804534:	d8c01717 	ldw	r3,92(sp)
  804538:	1029883a 	mov	r20,r2
  80453c:	b8800c04 	addi	r2,r23,48
  804540:	18800005 	stb	r2,0(r3)
  804544:	d9801117 	ldw	r6,68(sp)
  804548:	d9c01217 	ldw	r7,72(sp)
  80454c:	18c00044 	addi	r3,r3,1
  804550:	a009883a 	mov	r4,r20
  804554:	a80b883a 	mov	r5,r21
  804558:	d8c01715 	stw	r3,92(sp)
  80455c:	0808bec0 	call	808bec <__ltdf2>
  804560:	103d9716 	blt	r2,zero,803bc0 <_dtoa_r+0x680>
  804564:	0005883a 	mov	r2,zero
  804568:	00cffc34 	movhi	r3,16368
  80456c:	18c00004 	addi	r3,r3,0
  804570:	180b883a 	mov	r5,r3
  804574:	1009883a 	mov	r4,r2
  804578:	a00d883a 	mov	r6,r20
  80457c:	a80f883a 	mov	r7,r21
  804580:	08082f40 	call	8082f4 <__subdf3>
  804584:	d9801117 	ldw	r6,68(sp)
  804588:	d9c01217 	ldw	r7,72(sp)
  80458c:	180b883a 	mov	r5,r3
  804590:	1009883a 	mov	r4,r2
  804594:	0808bec0 	call	808bec <__ltdf2>
  804598:	103e0216 	blt	r2,zero,803da4 <_dtoa_r+0x864>
  80459c:	d9000617 	ldw	r4,24(sp)
  8045a0:	b5800044 	addi	r22,r22,1
  8045a4:	b13fc616 	blt	r22,r4,8044c0 <_dtoa_r+0xf80>
  8045a8:	003da106 	br	803c30 <_dtoa_r+0x6f0>
  8045ac:	d8c00617 	ldw	r3,24(sp)
  8045b0:	d9000517 	ldw	r4,20(sp)
  8045b4:	1c7fffc4 	addi	r17,r3,-1
  8045b8:	2461c83a 	sub	r16,r4,r17
  8045bc:	2440070e 	bge	r4,r17,8045dc <_dtoa_r+0x109c>
  8045c0:	d8800e17 	ldw	r2,56(sp)
  8045c4:	8923c83a 	sub	r17,r17,r4
  8045c8:	2449883a 	add	r4,r4,r17
  8045cc:	1445883a 	add	r2,r2,r17
  8045d0:	d9000515 	stw	r4,20(sp)
  8045d4:	d8800e15 	stw	r2,56(sp)
  8045d8:	0021883a 	mov	r16,zero
  8045dc:	dd800617 	ldw	r22,24(sp)
  8045e0:	b03e560e 	bge	r22,zero,803f3c <_dtoa_r+0x9fc>
  8045e4:	d8c00417 	ldw	r3,16(sp)
  8045e8:	1da9c83a 	sub	r20,r3,r22
  8045ec:	002d883a 	mov	r22,zero
  8045f0:	003e5206 	br	803f3c <_dtoa_r+0x9fc>
  8045f4:	d9401417 	ldw	r5,80(sp)
  8045f8:	d9800517 	ldw	r6,20(sp)
  8045fc:	e009883a 	mov	r4,fp
  804600:	0805f380 	call	805f38 <_pow5mult>
  804604:	d8801415 	stw	r2,80(sp)
  804608:	003e7806 	br	803fec <_dtoa_r+0xaac>
  80460c:	0005883a 	mov	r2,zero
  804610:	00d07c34 	movhi	r3,16880
  804614:	18c00004 	addi	r3,r3,0
  804618:	480b883a 	mov	r5,r9
  80461c:	4009883a 	mov	r4,r8
  804620:	180f883a 	mov	r7,r3
  804624:	100d883a 	mov	r6,r2
  804628:	08082880 	call	808288 <__adddf3>
  80462c:	1011883a 	mov	r8,r2
  804630:	1813883a 	mov	r9,r3
  804634:	003c3906 	br	80371c <_dtoa_r+0x1dc>
  804638:	d8c00317 	ldw	r3,12(sp)
  80463c:	00800084 	movi	r2,2
  804640:	10feab0e 	bge	r2,r3,8040f0 <_dtoa_r+0xbb0>
  804644:	203e0416 	blt	r4,zero,803e58 <_dtoa_r+0x918>
  804648:	b80b883a 	mov	r5,r23
  80464c:	e009883a 	mov	r4,fp
  804650:	01800144 	movi	r6,5
  804654:	000f883a 	mov	r7,zero
  804658:	08059700 	call	805970 <_multadd>
  80465c:	d9001417 	ldw	r4,80(sp)
  804660:	100b883a 	mov	r5,r2
  804664:	102f883a 	mov	r23,r2
  804668:	080619c0 	call	80619c <__mcmp>
  80466c:	00bd3d16 	blt	zero,r2,803b64 <_dtoa_r+0x624>
  804670:	003df906 	br	803e58 <_dtoa_r+0x918>
  804674:	d8800917 	ldw	r2,36(sp)
  804678:	d8c01817 	ldw	r3,96(sp)
  80467c:	10800044 	addi	r2,r2,1
  804680:	d8800915 	stw	r2,36(sp)
  804684:	00800c04 	movi	r2,48
  804688:	18800005 	stb	r2,0(r3)
  80468c:	d8c01717 	ldw	r3,92(sp)
  804690:	18800003 	ldbu	r2,0(r3)
  804694:	19000044 	addi	r4,r3,1
  804698:	d9001715 	stw	r4,92(sp)
  80469c:	10800044 	addi	r2,r2,1
  8046a0:	18800005 	stb	r2,0(r3)
  8046a4:	003d4606 	br	803bc0 <_dtoa_r+0x680>
  8046a8:	d9401417 	ldw	r5,80(sp)
  8046ac:	880d883a 	mov	r6,r17
  8046b0:	003fd206 	br	8045fc <_dtoa_r+0x10bc>
  8046b4:	11400117 	ldw	r5,4(r2)
  8046b8:	e009883a 	mov	r4,fp
  8046bc:	080589c0 	call	80589c <_Balloc>
  8046c0:	d8c01517 	ldw	r3,84(sp)
  8046c4:	11000304 	addi	r4,r2,12
  8046c8:	d8801615 	stw	r2,88(sp)
  8046cc:	19800417 	ldw	r6,16(r3)
  8046d0:	19400304 	addi	r5,r3,12
  8046d4:	300c90ba 	slli	r6,r6,2
  8046d8:	31800204 	addi	r6,r6,8
  8046dc:	080563c0 	call	80563c <memcpy>
  8046e0:	d9401617 	ldw	r5,88(sp)
  8046e4:	e009883a 	mov	r4,fp
  8046e8:	01800044 	movi	r6,1
  8046ec:	08060640 	call	806064 <_lshift>
  8046f0:	d8801615 	stw	r2,88(sp)
  8046f4:	003e8906 	br	80411c <_dtoa_r+0xbdc>
  8046f8:	d8c00617 	ldw	r3,24(sp)
  8046fc:	01002074 	movhi	r4,129
  804700:	2100ee04 	addi	r4,r4,952
  804704:	d9801117 	ldw	r6,68(sp)
  804708:	180a90fa 	slli	r5,r3,3
  80470c:	a00f883a 	mov	r7,r20
  804710:	05800044 	movi	r22,1
  804714:	290b883a 	add	r5,r5,r4
  804718:	28800017 	ldw	r2,0(r5)
  80471c:	28c00117 	ldw	r3,4(r5)
  804720:	1009883a 	mov	r4,r2
  804724:	180b883a 	mov	r5,r3
  804728:	080836c0 	call	80836c <__muldf3>
  80472c:	d8801115 	stw	r2,68(sp)
  804730:	d8c01215 	stw	r3,72(sp)
  804734:	00000b06 	br	804764 <_dtoa_r+0x1224>
  804738:	0005883a 	mov	r2,zero
  80473c:	00d00934 	movhi	r3,16420
  804740:	18c00004 	addi	r3,r3,0
  804744:	800d883a 	mov	r6,r16
  804748:	180b883a 	mov	r5,r3
  80474c:	880f883a 	mov	r7,r17
  804750:	1009883a 	mov	r4,r2
  804754:	080836c0 	call	80836c <__muldf3>
  804758:	1025883a 	mov	r18,r2
  80475c:	b5800044 	addi	r22,r22,1
  804760:	1827883a 	mov	r19,r3
  804764:	980b883a 	mov	r5,r19
  804768:	9009883a 	mov	r4,r18
  80476c:	0808d480 	call	808d48 <__fixdfsi>
  804770:	1009883a 	mov	r4,r2
  804774:	102f883a 	mov	r23,r2
  804778:	0808c780 	call	808c78 <__floatsidf>
  80477c:	980b883a 	mov	r5,r19
  804780:	9009883a 	mov	r4,r18
  804784:	180f883a 	mov	r7,r3
  804788:	100d883a 	mov	r6,r2
  80478c:	08082f40 	call	8082f4 <__subdf3>
  804790:	1823883a 	mov	r17,r3
  804794:	d8c01717 	ldw	r3,92(sp)
  804798:	1021883a 	mov	r16,r2
  80479c:	b8800c04 	addi	r2,r23,48
  8047a0:	18800005 	stb	r2,0(r3)
  8047a4:	d9000617 	ldw	r4,24(sp)
  8047a8:	18c00044 	addi	r3,r3,1
  8047ac:	d8c01715 	stw	r3,92(sp)
  8047b0:	b13fe11e 	bne	r22,r4,804738 <_dtoa_r+0x11f8>
  8047b4:	d9801117 	ldw	r6,68(sp)
  8047b8:	d9c01217 	ldw	r7,72(sp)
  8047bc:	0029883a 	mov	r20,zero
  8047c0:	054ff834 	movhi	r21,16352
  8047c4:	ad400004 	addi	r21,r21,0
  8047c8:	a009883a 	mov	r4,r20
  8047cc:	a80b883a 	mov	r5,r21
  8047d0:	08082880 	call	808288 <__adddf3>
  8047d4:	180b883a 	mov	r5,r3
  8047d8:	1009883a 	mov	r4,r2
  8047dc:	800d883a 	mov	r6,r16
  8047e0:	880f883a 	mov	r7,r17
  8047e4:	0808bec0 	call	808bec <__ltdf2>
  8047e8:	103d6e16 	blt	r2,zero,803da4 <_dtoa_r+0x864>
  8047ec:	d9c01217 	ldw	r7,72(sp)
  8047f0:	d9801117 	ldw	r6,68(sp)
  8047f4:	0009883a 	mov	r4,zero
  8047f8:	a80b883a 	mov	r5,r21
  8047fc:	08082f40 	call	8082f4 <__subdf3>
  804800:	180b883a 	mov	r5,r3
  804804:	800d883a 	mov	r6,r16
  804808:	880f883a 	mov	r7,r17
  80480c:	1009883a 	mov	r4,r2
  804810:	0808ad40 	call	808ad4 <__gtdf2>
  804814:	00bd060e 	bge	zero,r2,803c30 <_dtoa_r+0x6f0>
  804818:	00c00c04 	movi	r3,48
  80481c:	d8801717 	ldw	r2,92(sp)
  804820:	10bfffc4 	addi	r2,r2,-1
  804824:	d8801715 	stw	r2,92(sp)
  804828:	10800007 	ldb	r2,0(r2)
  80482c:	10fffb26 	beq	r2,r3,80481c <_dtoa_r+0x12dc>
  804830:	d8c01717 	ldw	r3,92(sp)
  804834:	18c00044 	addi	r3,r3,1
  804838:	d8c01715 	stw	r3,92(sp)
  80483c:	003ce006 	br	803bc0 <_dtoa_r+0x680>
  804840:	9540151e 	bne	r18,r21,804898 <_dtoa_r+0x1358>
  804844:	d8801717 	ldw	r2,92(sp)
  804848:	15400005 	stb	r21,0(r2)
  80484c:	10800044 	addi	r2,r2,1
  804850:	d8801715 	stw	r2,92(sp)
  804854:	003e8906 	br	80427c <_dtoa_r+0xd3c>
  804858:	1000021e 	bne	r2,zero,804864 <_dtoa_r+0x1324>
  80485c:	9080004c 	andi	r2,r18,1
  804860:	103e861e 	bne	r2,zero,80427c <_dtoa_r+0xd3c>
  804864:	00c00c04 	movi	r3,48
  804868:	d8801717 	ldw	r2,92(sp)
  80486c:	10bfffc4 	addi	r2,r2,-1
  804870:	d8801715 	stw	r2,92(sp)
  804874:	10800007 	ldb	r2,0(r2)
  804878:	10fffb26 	beq	r2,r3,804868 <_dtoa_r+0x1328>
  80487c:	d8c01717 	ldw	r3,92(sp)
  804880:	18c00044 	addi	r3,r3,1
  804884:	d8c01715 	stw	r3,92(sp)
  804888:	003cbf06 	br	803b88 <_dtoa_r+0x648>
  80488c:	00800044 	movi	r2,1
  804890:	d8802315 	stw	r2,140(sp)
  804894:	003d5606 	br	803df0 <_dtoa_r+0x8b0>
  804898:	d8c01717 	ldw	r3,92(sp)
  80489c:	90800044 	addi	r2,r18,1
  8048a0:	18800005 	stb	r2,0(r3)
  8048a4:	003ff606 	br	804880 <_dtoa_r+0x1340>
  8048a8:	d9000617 	ldw	r4,24(sp)
  8048ac:	013c860e 	bge	zero,r4,803ac8 <_dtoa_r+0x588>
  8048b0:	d8800817 	ldw	r2,32(sp)
  8048b4:	00bcde0e 	bge	zero,r2,803c30 <_dtoa_r+0x6f0>
  8048b8:	0005883a 	mov	r2,zero
  8048bc:	00d00934 	movhi	r3,16420
  8048c0:	18c00004 	addi	r3,r3,0
  8048c4:	980f883a 	mov	r7,r19
  8048c8:	180b883a 	mov	r5,r3
  8048cc:	900d883a 	mov	r6,r18
  8048d0:	1009883a 	mov	r4,r2
  8048d4:	080836c0 	call	80836c <__muldf3>
  8048d8:	180b883a 	mov	r5,r3
  8048dc:	d8c00917 	ldw	r3,36(sp)
  8048e0:	d9000817 	ldw	r4,32(sp)
  8048e4:	1025883a 	mov	r18,r2
  8048e8:	18ffffc4 	addi	r3,r3,-1
  8048ec:	2827883a 	mov	r19,r5
  8048f0:	b5800044 	addi	r22,r22,1
  8048f4:	d8c00915 	stw	r3,36(sp)
  8048f8:	d9000615 	stw	r4,24(sp)
  8048fc:	003c7206 	br	803ac8 <_dtoa_r+0x588>
  804900:	103e781e 	bne	r2,zero,8042e4 <_dtoa_r+0xda4>
  804904:	9080004c 	andi	r2,r18,1
  804908:	103e7626 	beq	r2,zero,8042e4 <_dtoa_r+0xda4>
  80490c:	003e7206 	br	8042d8 <_dtoa_r+0xd98>
  804910:	d9401617 	ldw	r5,88(sp)
  804914:	e009883a 	mov	r4,fp
  804918:	01800284 	movi	r6,10
  80491c:	000f883a 	mov	r7,zero
  804920:	08059700 	call	805970 <_multadd>
  804924:	d8801615 	stw	r2,88(sp)
  804928:	003ec006 	br	80442c <_dtoa_r+0xeec>

0080492c <fflush>:
  80492c:	defffc04 	addi	sp,sp,-16
  804930:	dc400115 	stw	r17,4(sp)
  804934:	dfc00315 	stw	ra,12(sp)
  804938:	dc000215 	stw	r16,8(sp)
  80493c:	dc800015 	stw	r18,0(sp)
  804940:	2023883a 	mov	r17,r4
  804944:	20002826 	beq	r4,zero,8049e8 <fflush+0xbc>
  804948:	d1200a17 	ldw	r4,-32728(gp)
  80494c:	20800e17 	ldw	r2,56(r4)
  804950:	10002326 	beq	r2,zero,8049e0 <fflush+0xb4>
  804954:	88c0030f 	ldh	r3,12(r17)
  804958:	1880020c 	andi	r2,r3,8
  80495c:	10001826 	beq	r2,zero,8049c0 <fflush+0x94>
  804960:	8c800417 	ldw	r18,16(r17)
  804964:	90001626 	beq	r18,zero,8049c0 <fflush+0x94>
  804968:	88800017 	ldw	r2,0(r17)
  80496c:	18c000cc 	andi	r3,r3,3
  804970:	8c800015 	stw	r18,0(r17)
  804974:	14a1c83a 	sub	r16,r2,r18
  804978:	0005883a 	mov	r2,zero
  80497c:	1800011e 	bne	r3,zero,804984 <fflush+0x58>
  804980:	88800517 	ldw	r2,20(r17)
  804984:	88800215 	stw	r2,8(r17)
  804988:	04000d0e 	bge	zero,r16,8049c0 <fflush+0x94>
  80498c:	88c00917 	ldw	r3,36(r17)
  804990:	89000717 	ldw	r4,28(r17)
  804994:	900b883a 	mov	r5,r18
  804998:	800d883a 	mov	r6,r16
  80499c:	183ee83a 	callr	r3
  8049a0:	80a1c83a 	sub	r16,r16,r2
  8049a4:	90a5883a 	add	r18,r18,r2
  8049a8:	00bff716 	blt	zero,r2,804988 <fflush+0x5c>
  8049ac:	8880030b 	ldhu	r2,12(r17)
  8049b0:	00ffffc4 	movi	r3,-1
  8049b4:	10801014 	ori	r2,r2,64
  8049b8:	8880030d 	sth	r2,12(r17)
  8049bc:	00000106 	br	8049c4 <fflush+0x98>
  8049c0:	0007883a 	mov	r3,zero
  8049c4:	1805883a 	mov	r2,r3
  8049c8:	dfc00317 	ldw	ra,12(sp)
  8049cc:	dc000217 	ldw	r16,8(sp)
  8049d0:	dc400117 	ldw	r17,4(sp)
  8049d4:	dc800017 	ldw	r18,0(sp)
  8049d8:	dec00404 	addi	sp,sp,16
  8049dc:	f800283a 	ret
  8049e0:	0804a900 	call	804a90 <__sinit>
  8049e4:	003fdb06 	br	804954 <fflush+0x28>
  8049e8:	d1200a17 	ldw	r4,-32728(gp)
  8049ec:	01402034 	movhi	r5,128
  8049f0:	29524b04 	addi	r5,r5,18732
  8049f4:	02002034 	movhi	r8,128
  8049f8:	4214a304 	addi	r8,r8,21132
  8049fc:	dfc00317 	ldw	ra,12(sp)
  804a00:	dc000217 	ldw	r16,8(sp)
  804a04:	dc400117 	ldw	r17,4(sp)
  804a08:	dc800017 	ldw	r18,0(sp)
  804a0c:	dec00404 	addi	sp,sp,16
  804a10:	4000683a 	jmp	r8

00804a14 <std>:
  804a14:	00802034 	movhi	r2,128
  804a18:	109bce04 	addi	r2,r2,28472
  804a1c:	20800b15 	stw	r2,44(r4)
  804a20:	00802034 	movhi	r2,128
  804a24:	109b9004 	addi	r2,r2,28224
  804a28:	20800915 	stw	r2,36(r4)
  804a2c:	00c02034 	movhi	r3,128
  804a30:	18db7404 	addi	r3,r3,28112
  804a34:	00802034 	movhi	r2,128
  804a38:	109bb004 	addi	r2,r2,28352
  804a3c:	2140030d 	sth	r5,12(r4)
  804a40:	2180038d 	sth	r6,14(r4)
  804a44:	20c00815 	stw	r3,32(r4)
  804a48:	20800a15 	stw	r2,40(r4)
  804a4c:	20000015 	stw	zero,0(r4)
  804a50:	20000115 	stw	zero,4(r4)
  804a54:	20000215 	stw	zero,8(r4)
  804a58:	20000415 	stw	zero,16(r4)
  804a5c:	20000515 	stw	zero,20(r4)
  804a60:	20000615 	stw	zero,24(r4)
  804a64:	21000715 	stw	r4,28(r4)
  804a68:	f800283a 	ret

00804a6c <_cleanup_r>:
  804a6c:	01402034 	movhi	r5,128
  804a70:	29524b04 	addi	r5,r5,18732
  804a74:	02002034 	movhi	r8,128
  804a78:	4214a304 	addi	r8,r8,21132
  804a7c:	4000683a 	jmp	r8

00804a80 <_cleanup>:
  804a80:	d1200a17 	ldw	r4,-32728(gp)
  804a84:	02002034 	movhi	r8,128
  804a88:	42129b04 	addi	r8,r8,19052
  804a8c:	4000683a 	jmp	r8

00804a90 <__sinit>:
  804a90:	defffc04 	addi	sp,sp,-16
  804a94:	dfc00315 	stw	ra,12(sp)
  804a98:	dc400215 	stw	r17,8(sp)
  804a9c:	dcc00115 	stw	r19,4(sp)
  804aa0:	dd400015 	stw	r21,0(sp)
  804aa4:	2023883a 	mov	r17,r4
  804aa8:	21000117 	ldw	r4,4(r4)
  804aac:	00802034 	movhi	r2,128
  804ab0:	10929b04 	addi	r2,r2,19052
  804ab4:	00c000c4 	movi	r3,3
  804ab8:	05400044 	movi	r21,1
  804abc:	89409a04 	addi	r5,r17,616
  804ac0:	88800f15 	stw	r2,60(r17)
  804ac4:	88c09815 	stw	r3,608(r17)
  804ac8:	89409915 	stw	r5,612(r17)
  804acc:	880f883a 	mov	r7,r17
  804ad0:	8d400e15 	stw	r21,56(r17)
  804ad4:	88009715 	stw	zero,604(r17)
  804ad8:	01400104 	movi	r5,4
  804adc:	000d883a 	mov	r6,zero
  804ae0:	0804a140 	call	804a14 <std>
  804ae4:	89000217 	ldw	r4,8(r17)
  804ae8:	04c00284 	movi	r19,10
  804aec:	a80d883a 	mov	r6,r21
  804af0:	980b883a 	mov	r5,r19
  804af4:	880f883a 	mov	r7,r17
  804af8:	0804a140 	call	804a14 <std>
  804afc:	89000317 	ldw	r4,12(r17)
  804b00:	980b883a 	mov	r5,r19
  804b04:	880f883a 	mov	r7,r17
  804b08:	01800084 	movi	r6,2
  804b0c:	02002034 	movhi	r8,128
  804b10:	42128504 	addi	r8,r8,18964
  804b14:	dfc00317 	ldw	ra,12(sp)
  804b18:	dc400217 	ldw	r17,8(sp)
  804b1c:	dcc00117 	ldw	r19,4(sp)
  804b20:	dd400017 	ldw	r21,0(sp)
  804b24:	dec00404 	addi	sp,sp,16
  804b28:	4000683a 	jmp	r8

00804b2c <_malloc_trim_r>:
  804b2c:	defffb04 	addi	sp,sp,-20
  804b30:	dcc00015 	stw	r19,0(sp)
  804b34:	04c02074 	movhi	r19,129
  804b38:	9cc19204 	addi	r19,r19,1608
  804b3c:	dc000315 	stw	r16,12(sp)
  804b40:	dc400215 	stw	r17,8(sp)
  804b44:	dc800115 	stw	r18,4(sp)
  804b48:	2823883a 	mov	r17,r5
  804b4c:	2021883a 	mov	r16,r4
  804b50:	dfc00415 	stw	ra,16(sp)
  804b54:	0809a8c0 	call	809a8c <__malloc_lock>
  804b58:	98800217 	ldw	r2,8(r19)
  804b5c:	8009883a 	mov	r4,r16
  804b60:	000b883a 	mov	r5,zero
  804b64:	10c00117 	ldw	r3,4(r2)
  804b68:	00bfff04 	movi	r2,-4
  804b6c:	18a4703a 	and	r18,r3,r2
  804b70:	9463c83a 	sub	r17,r18,r17
  804b74:	8c43fbc4 	addi	r17,r17,4079
  804b78:	8822d33a 	srli	r17,r17,12
  804b7c:	00840004 	movi	r2,4096
  804b80:	8c7fffc4 	addi	r17,r17,-1
  804b84:	8822933a 	slli	r17,r17,12
  804b88:	88800616 	blt	r17,r2,804ba4 <_malloc_trim_r+0x78>
  804b8c:	0800e280 	call	800e28 <_sbrk_r>
  804b90:	98c00217 	ldw	r3,8(r19)
  804b94:	8009883a 	mov	r4,r16
  804b98:	044bc83a 	sub	r5,zero,r17
  804b9c:	1c87883a 	add	r3,r3,r18
  804ba0:	18800926 	beq	r3,r2,804bc8 <_malloc_trim_r+0x9c>
  804ba4:	0809aa80 	call	809aa8 <__malloc_unlock>
  804ba8:	0005883a 	mov	r2,zero
  804bac:	dfc00417 	ldw	ra,16(sp)
  804bb0:	dc000317 	ldw	r16,12(sp)
  804bb4:	dc400217 	ldw	r17,8(sp)
  804bb8:	dc800117 	ldw	r18,4(sp)
  804bbc:	dcc00017 	ldw	r19,0(sp)
  804bc0:	dec00504 	addi	sp,sp,20
  804bc4:	f800283a 	ret
  804bc8:	8009883a 	mov	r4,r16
  804bcc:	0800e280 	call	800e28 <_sbrk_r>
  804bd0:	944dc83a 	sub	r6,r18,r17
  804bd4:	00ffffc4 	movi	r3,-1
  804bd8:	8009883a 	mov	r4,r16
  804bdc:	000b883a 	mov	r5,zero
  804be0:	01c02074 	movhi	r7,129
  804be4:	39c18804 	addi	r7,r7,1568
  804be8:	31800054 	ori	r6,r6,1
  804bec:	10c00926 	beq	r2,r3,804c14 <_malloc_trim_r+0xe8>
  804bf0:	38800017 	ldw	r2,0(r7)
  804bf4:	98c00217 	ldw	r3,8(r19)
  804bf8:	8009883a 	mov	r4,r16
  804bfc:	1445c83a 	sub	r2,r2,r17
  804c00:	38800015 	stw	r2,0(r7)
  804c04:	19800115 	stw	r6,4(r3)
  804c08:	0809aa80 	call	809aa8 <__malloc_unlock>
  804c0c:	00800044 	movi	r2,1
  804c10:	003fe606 	br	804bac <_malloc_trim_r+0x80>
  804c14:	0800e280 	call	800e28 <_sbrk_r>
  804c18:	99400217 	ldw	r5,8(r19)
  804c1c:	100d883a 	mov	r6,r2
  804c20:	8009883a 	mov	r4,r16
  804c24:	1165c83a 	sub	r18,r2,r5
  804c28:	008003c4 	movi	r2,15
  804c2c:	90c00054 	ori	r3,r18,1
  804c30:	14bfdc0e 	bge	r2,r18,804ba4 <_malloc_trim_r+0x78>
  804c34:	28c00115 	stw	r3,4(r5)
  804c38:	d0e00717 	ldw	r3,-32740(gp)
  804c3c:	00802074 	movhi	r2,129
  804c40:	10818804 	addi	r2,r2,1568
  804c44:	30c7c83a 	sub	r3,r6,r3
  804c48:	10c00015 	stw	r3,0(r2)
  804c4c:	003fd506 	br	804ba4 <_malloc_trim_r+0x78>

00804c50 <_free_r>:
  804c50:	defffd04 	addi	sp,sp,-12
  804c54:	dc000115 	stw	r16,4(sp)
  804c58:	dc400015 	stw	r17,0(sp)
  804c5c:	dfc00215 	stw	ra,8(sp)
  804c60:	2821883a 	mov	r16,r5
  804c64:	2023883a 	mov	r17,r4
  804c68:	28003226 	beq	r5,zero,804d34 <_free_r+0xe4>
  804c6c:	0809a8c0 	call	809a8c <__malloc_lock>
  804c70:	82bffe04 	addi	r10,r16,-8
  804c74:	51400117 	ldw	r5,4(r10)
  804c78:	00bfff84 	movi	r2,-2
  804c7c:	03002074 	movhi	r12,129
  804c80:	63019204 	addi	r12,r12,1608
  804c84:	2892703a 	and	r9,r5,r2
  804c88:	524d883a 	add	r6,r10,r9
  804c8c:	30c00117 	ldw	r3,4(r6)
  804c90:	61000217 	ldw	r4,8(r12)
  804c94:	00bfff04 	movi	r2,-4
  804c98:	1896703a 	and	r11,r3,r2
  804c9c:	21804e26 	beq	r4,r6,804dd8 <_free_r+0x188>
  804ca0:	2880004c 	andi	r2,r5,1
  804ca4:	32c00115 	stw	r11,4(r6)
  804ca8:	000b883a 	mov	r5,zero
  804cac:	1000091e 	bne	r2,zero,804cd4 <_free_r+0x84>
  804cb0:	50c00017 	ldw	r3,0(r10)
  804cb4:	60800204 	addi	r2,r12,8
  804cb8:	50d5c83a 	sub	r10,r10,r3
  804cbc:	51000217 	ldw	r4,8(r10)
  804cc0:	48d3883a 	add	r9,r9,r3
  804cc4:	20807426 	beq	r4,r2,804e98 <_free_r+0x248>
  804cc8:	52000317 	ldw	r8,12(r10)
  804ccc:	41000215 	stw	r4,8(r8)
  804cd0:	22000315 	stw	r8,12(r4)
  804cd4:	32c7883a 	add	r3,r6,r11
  804cd8:	18800117 	ldw	r2,4(r3)
  804cdc:	2808c03a 	cmpne	r4,r5,zero
  804ce0:	1080004c 	andi	r2,r2,1
  804ce4:	1000061e 	bne	r2,zero,804d00 <_free_r+0xb0>
  804ce8:	4ad3883a 	add	r9,r9,r11
  804cec:	20001626 	beq	r4,zero,804d48 <_free_r+0xf8>
  804cf0:	30c00217 	ldw	r3,8(r6)
  804cf4:	32000317 	ldw	r8,12(r6)
  804cf8:	40c00215 	stw	r3,8(r8)
  804cfc:	1a000315 	stw	r8,12(r3)
  804d00:	48800054 	ori	r2,r9,1
  804d04:	5247883a 	add	r3,r10,r9
  804d08:	50800115 	stw	r2,4(r10)
  804d0c:	1a400015 	stw	r9,0(r3)
  804d10:	20001726 	beq	r4,zero,804d70 <_free_r+0x120>
  804d14:	8809883a 	mov	r4,r17
  804d18:	02002074 	movhi	r8,129
  804d1c:	4226aa04 	addi	r8,r8,-25944
  804d20:	dfc00217 	ldw	ra,8(sp)
  804d24:	dc000117 	ldw	r16,4(sp)
  804d28:	dc400017 	ldw	r17,0(sp)
  804d2c:	dec00304 	addi	sp,sp,12
  804d30:	4000683a 	jmp	r8
  804d34:	dfc00217 	ldw	ra,8(sp)
  804d38:	dc000117 	ldw	r16,4(sp)
  804d3c:	dc400017 	ldw	r17,0(sp)
  804d40:	dec00304 	addi	sp,sp,12
  804d44:	f800283a 	ret
  804d48:	30c00217 	ldw	r3,8(r6)
  804d4c:	00802074 	movhi	r2,129
  804d50:	10819404 	addi	r2,r2,1616
  804d54:	18bfe71e 	bne	r3,r2,804cf4 <_free_r+0xa4>
  804d58:	1a800315 	stw	r10,12(r3)
  804d5c:	1a800215 	stw	r10,8(r3)
  804d60:	01000044 	movi	r4,1
  804d64:	50c00215 	stw	r3,8(r10)
  804d68:	50c00315 	stw	r3,12(r10)
  804d6c:	003fe406 	br	804d00 <_free_r+0xb0>
  804d70:	00807fc4 	movi	r2,511
  804d74:	12402b36 	bltu	r2,r9,804e24 <_free_r+0x1d4>
  804d78:	4806d0fa 	srli	r3,r9,3
  804d7c:	01802074 	movhi	r6,129
  804d80:	31819204 	addi	r6,r6,1608
  804d84:	00800044 	movi	r2,1
  804d88:	180890fa 	slli	r4,r3,3
  804d8c:	1807d0ba 	srai	r3,r3,2
  804d90:	31400117 	ldw	r5,4(r6)
  804d94:	2191883a 	add	r8,r4,r6
  804d98:	41c00217 	ldw	r7,8(r8)
  804d9c:	10c4983a 	sll	r2,r2,r3
  804da0:	52000315 	stw	r8,12(r10)
  804da4:	51c00215 	stw	r7,8(r10)
  804da8:	288ab03a 	or	r5,r5,r2
  804dac:	3a800315 	stw	r10,12(r7)
  804db0:	31400115 	stw	r5,4(r6)
  804db4:	42800215 	stw	r10,8(r8)
  804db8:	8809883a 	mov	r4,r17
  804dbc:	02002074 	movhi	r8,129
  804dc0:	4226aa04 	addi	r8,r8,-25944
  804dc4:	dfc00217 	ldw	ra,8(sp)
  804dc8:	dc000117 	ldw	r16,4(sp)
  804dcc:	dc400017 	ldw	r17,0(sp)
  804dd0:	dec00304 	addi	sp,sp,12
  804dd4:	4000683a 	jmp	r8
  804dd8:	2880004c 	andi	r2,r5,1
  804ddc:	4ad3883a 	add	r9,r9,r11
  804de0:	1000071e 	bne	r2,zero,804e00 <_free_r+0x1b0>
  804de4:	50c00017 	ldw	r3,0(r10)
  804de8:	50d5c83a 	sub	r10,r10,r3
  804dec:	52000317 	ldw	r8,12(r10)
  804df0:	51c00217 	ldw	r7,8(r10)
  804df4:	48d3883a 	add	r9,r9,r3
  804df8:	41c00215 	stw	r7,8(r8)
  804dfc:	3a000315 	stw	r8,12(r7)
  804e00:	d0a00917 	ldw	r2,-32732(gp)
  804e04:	48c00054 	ori	r3,r9,1
  804e08:	62800215 	stw	r10,8(r12)
  804e0c:	50c00115 	stw	r3,4(r10)
  804e10:	48bfc036 	bltu	r9,r2,804d14 <_free_r+0xc4>
  804e14:	d1600817 	ldw	r5,-32736(gp)
  804e18:	8809883a 	mov	r4,r17
  804e1c:	0804b2c0 	call	804b2c <_malloc_trim_r>
  804e20:	003fbc06 	br	804d14 <_free_r+0xc4>
  804e24:	4808d27a 	srli	r4,r9,9
  804e28:	4806d0fa 	srli	r3,r9,3
  804e2c:	2000151e 	bne	r4,zero,804e84 <_free_r+0x234>
  804e30:	180490fa 	slli	r2,r3,3
  804e34:	01402074 	movhi	r5,129
  804e38:	29419204 	addi	r5,r5,1608
  804e3c:	1311883a 	add	r8,r2,r12
  804e40:	41c00217 	ldw	r7,8(r8)
  804e44:	3a001e26 	beq	r7,r8,804ec0 <_free_r+0x270>
  804e48:	38800117 	ldw	r2,4(r7)
  804e4c:	00ffff04 	movi	r3,-4
  804e50:	10c4703a 	and	r2,r2,r3
  804e54:	4880052e 	bgeu	r9,r2,804e6c <_free_r+0x21c>
  804e58:	39c00217 	ldw	r7,8(r7)
  804e5c:	3a000326 	beq	r7,r8,804e6c <_free_r+0x21c>
  804e60:	38800117 	ldw	r2,4(r7)
  804e64:	10c4703a 	and	r2,r2,r3
  804e68:	48bffb36 	bltu	r9,r2,804e58 <_free_r+0x208>
  804e6c:	3a000317 	ldw	r8,12(r7)
  804e70:	52000315 	stw	r8,12(r10)
  804e74:	51c00215 	stw	r7,8(r10)
  804e78:	3a800315 	stw	r10,12(r7)
  804e7c:	42800215 	stw	r10,8(r8)
  804e80:	003fcd06 	br	804db8 <_free_r+0x168>
  804e84:	00800104 	movi	r2,4
  804e88:	11000536 	bltu	r2,r4,804ea0 <_free_r+0x250>
  804e8c:	4804d1ba 	srli	r2,r9,6
  804e90:	10c00e04 	addi	r3,r2,56
  804e94:	003fe606 	br	804e30 <_free_r+0x1e0>
  804e98:	01400044 	movi	r5,1
  804e9c:	003f8d06 	br	804cd4 <_free_r+0x84>
  804ea0:	00800504 	movi	r2,20
  804ea4:	20c016c4 	addi	r3,r4,91
  804ea8:	113fe12e 	bgeu	r2,r4,804e30 <_free_r+0x1e0>
  804eac:	00801504 	movi	r2,84
  804eb0:	11000a36 	bltu	r2,r4,804edc <_free_r+0x28c>
  804eb4:	4804d33a 	srli	r2,r9,12
  804eb8:	10c01b84 	addi	r3,r2,110
  804ebc:	003fdc06 	br	804e30 <_free_r+0x1e0>
  804ec0:	1805d0ba 	srai	r2,r3,2
  804ec4:	00c00044 	movi	r3,1
  804ec8:	29000117 	ldw	r4,4(r5)
  804ecc:	1886983a 	sll	r3,r3,r2
  804ed0:	20c8b03a 	or	r4,r4,r3
  804ed4:	29000115 	stw	r4,4(r5)
  804ed8:	003fe506 	br	804e70 <_free_r+0x220>
  804edc:	00805504 	movi	r2,340
  804ee0:	11000336 	bltu	r2,r4,804ef0 <_free_r+0x2a0>
  804ee4:	4804d3fa 	srli	r2,r9,15
  804ee8:	10c01dc4 	addi	r3,r2,119
  804eec:	003fd006 	br	804e30 <_free_r+0x1e0>
  804ef0:	00815504 	movi	r2,1364
  804ef4:	00c01f84 	movi	r3,126
  804ef8:	113fcd36 	bltu	r2,r4,804e30 <_free_r+0x1e0>
  804efc:	4804d4ba 	srli	r2,r9,18
  804f00:	10c01f04 	addi	r3,r2,124
  804f04:	003fca06 	br	804e30 <_free_r+0x1e0>

00804f08 <__sfvwrite>:
  804f08:	defff704 	addi	sp,sp,-36
  804f0c:	dd000315 	stw	r20,12(sp)
  804f10:	dd400215 	stw	r21,8(sp)
  804f14:	dfc00815 	stw	ra,32(sp)
  804f18:	dc000715 	stw	r16,28(sp)
  804f1c:	dc400615 	stw	r17,24(sp)
  804f20:	dc800515 	stw	r18,20(sp)
  804f24:	dcc00415 	stw	r19,16(sp)
  804f28:	dd800115 	stw	r22,4(sp)
  804f2c:	ddc00015 	stw	r23,0(sp)
  804f30:	2c000217 	ldw	r16,8(r5)
  804f34:	282b883a 	mov	r21,r5
  804f38:	2029883a 	mov	r20,r4
  804f3c:	0007883a 	mov	r3,zero
  804f40:	80002426 	beq	r16,zero,804fd4 <__sfvwrite+0xcc>
  804f44:	20c0030b 	ldhu	r3,12(r4)
  804f48:	1880020c 	andi	r2,r3,8
  804f4c:	10000226 	beq	r2,zero,804f58 <__sfvwrite+0x50>
  804f50:	20800417 	ldw	r2,16(r4)
  804f54:	1000041e 	bne	r2,zero,804f68 <__sfvwrite+0x60>
  804f58:	08032080 	call	803208 <__swsetup>
  804f5c:	00ffffc4 	movi	r3,-1
  804f60:	10001c1e 	bne	r2,zero,804fd4 <__sfvwrite+0xcc>
  804f64:	a0c0030b 	ldhu	r3,12(r20)
  804f68:	193fffcc 	andi	r4,r3,65535
  804f6c:	2080008c 	andi	r2,r4,2
  804f70:	ac800017 	ldw	r18,0(r21)
  804f74:	0021883a 	mov	r16,zero
  804f78:	10002226 	beq	r2,zero,805004 <__sfvwrite+0xfc>
  804f7c:	8000041e 	bne	r16,zero,804f90 <__sfvwrite+0x88>
  804f80:	94000117 	ldw	r16,4(r18)
  804f84:	94c00017 	ldw	r19,0(r18)
  804f88:	94800204 	addi	r18,r18,8
  804f8c:	803ffc26 	beq	r16,zero,804f80 <__sfvwrite+0x78>
  804f90:	00810004 	movi	r2,1024
  804f94:	a1000717 	ldw	r4,28(r20)
  804f98:	800d883a 	mov	r6,r16
  804f9c:	1400012e 	bgeu	r2,r16,804fa4 <__sfvwrite+0x9c>
  804fa0:	100d883a 	mov	r6,r2
  804fa4:	a0c00917 	ldw	r3,36(r20)
  804fa8:	980b883a 	mov	r5,r19
  804fac:	183ee83a 	callr	r3
  804fb0:	1023883a 	mov	r17,r2
  804fb4:	00806b0e 	bge	zero,r2,805164 <__sfvwrite+0x25c>
  804fb8:	a8800217 	ldw	r2,8(r21)
  804fbc:	9c67883a 	add	r19,r19,r17
  804fc0:	8461c83a 	sub	r16,r16,r17
  804fc4:	1445c83a 	sub	r2,r2,r17
  804fc8:	a8800215 	stw	r2,8(r21)
  804fcc:	103feb1e 	bne	r2,zero,804f7c <__sfvwrite+0x74>
  804fd0:	0007883a 	mov	r3,zero
  804fd4:	1805883a 	mov	r2,r3
  804fd8:	dfc00817 	ldw	ra,32(sp)
  804fdc:	dc000717 	ldw	r16,28(sp)
  804fe0:	dc400617 	ldw	r17,24(sp)
  804fe4:	dc800517 	ldw	r18,20(sp)
  804fe8:	dcc00417 	ldw	r19,16(sp)
  804fec:	dd000317 	ldw	r20,12(sp)
  804ff0:	dd400217 	ldw	r21,8(sp)
  804ff4:	dd800117 	ldw	r22,4(sp)
  804ff8:	ddc00017 	ldw	r23,0(sp)
  804ffc:	dec00904 	addi	sp,sp,36
  805000:	f800283a 	ret
  805004:	2080004c 	andi	r2,r4,1
  805008:	002f883a 	mov	r23,zero
  80500c:	1000461e 	bne	r2,zero,805128 <__sfvwrite+0x220>
  805010:	8000041e 	bne	r16,zero,805024 <__sfvwrite+0x11c>
  805014:	94000117 	ldw	r16,4(r18)
  805018:	94c00017 	ldw	r19,0(r18)
  80501c:	94800204 	addi	r18,r18,8
  805020:	803ffc26 	beq	r16,zero,805014 <__sfvwrite+0x10c>
  805024:	18ffffcc 	andi	r3,r3,65535
  805028:	1880800c 	andi	r2,r3,512
  80502c:	a4400217 	ldw	r17,8(r20)
  805030:	10006226 	beq	r2,zero,8051bc <__sfvwrite+0x2b4>
  805034:	8c00022e 	bgeu	r17,r16,805040 <__sfvwrite+0x138>
  805038:	1880200c 	andi	r2,r3,128
  80503c:	10004e1e 	bne	r2,zero,805178 <__sfvwrite+0x270>
  805040:	8440012e 	bgeu	r16,r17,805048 <__sfvwrite+0x140>
  805044:	8023883a 	mov	r17,r16
  805048:	a1000017 	ldw	r4,0(r20)
  80504c:	880d883a 	mov	r6,r17
  805050:	980b883a 	mov	r5,r19
  805054:	08056f80 	call	8056f8 <memmove>
  805058:	a0c00217 	ldw	r3,8(r20)
  80505c:	a0800017 	ldw	r2,0(r20)
  805060:	1c47c83a 	sub	r3,r3,r17
  805064:	1445883a 	add	r2,r2,r17
  805068:	8023883a 	mov	r17,r16
  80506c:	a0c00215 	stw	r3,8(r20)
  805070:	a0800015 	stw	r2,0(r20)
  805074:	a8800217 	ldw	r2,8(r21)
  805078:	9c67883a 	add	r19,r19,r17
  80507c:	8461c83a 	sub	r16,r16,r17
  805080:	1445c83a 	sub	r2,r2,r17
  805084:	a8800215 	stw	r2,8(r21)
  805088:	103fd126 	beq	r2,zero,804fd0 <__sfvwrite+0xc8>
  80508c:	a0c0030b 	ldhu	r3,12(r20)
  805090:	003fdf06 	br	805010 <__sfvwrite+0x108>
  805094:	b804c03a 	cmpne	r2,r23,zero
  805098:	1000091e 	bne	r2,zero,8050c0 <__sfvwrite+0x1b8>
  80509c:	9809883a 	mov	r4,r19
  8050a0:	01400284 	movi	r5,10
  8050a4:	800d883a 	mov	r6,r16
  8050a8:	08055700 	call	805570 <memchr>
  8050ac:	85800044 	addi	r22,r16,1
  8050b0:	10000226 	beq	r2,zero,8050bc <__sfvwrite+0x1b4>
  8050b4:	14c5c83a 	sub	r2,r2,r19
  8050b8:	15800044 	addi	r22,r2,1
  8050bc:	05c00044 	movi	r23,1
  8050c0:	b00b883a 	mov	r5,r22
  8050c4:	8580012e 	bgeu	r16,r22,8050cc <__sfvwrite+0x1c4>
  8050c8:	800b883a 	mov	r5,r16
  8050cc:	a0c00217 	ldw	r3,8(r20)
  8050d0:	a1c00517 	ldw	r7,20(r20)
  8050d4:	a1000017 	ldw	r4,0(r20)
  8050d8:	a0800417 	ldw	r2,16(r20)
  8050dc:	19e3883a 	add	r17,r3,r7
  8050e0:	1100012e 	bgeu	r2,r4,8050e8 <__sfvwrite+0x1e0>
  8050e4:	89401616 	blt	r17,r5,805140 <__sfvwrite+0x238>
  8050e8:	29c04c16 	blt	r5,r7,80521c <__sfvwrite+0x314>
  8050ec:	a0c00917 	ldw	r3,36(r20)
  8050f0:	a1000717 	ldw	r4,28(r20)
  8050f4:	380d883a 	mov	r6,r7
  8050f8:	980b883a 	mov	r5,r19
  8050fc:	183ee83a 	callr	r3
  805100:	1023883a 	mov	r17,r2
  805104:	0080170e 	bge	zero,r2,805164 <__sfvwrite+0x25c>
  805108:	b46dc83a 	sub	r22,r22,r17
  80510c:	b0005026 	beq	r22,zero,805250 <__sfvwrite+0x348>
  805110:	a8800217 	ldw	r2,8(r21)
  805114:	9c67883a 	add	r19,r19,r17
  805118:	8461c83a 	sub	r16,r16,r17
  80511c:	1445c83a 	sub	r2,r2,r17
  805120:	a8800215 	stw	r2,8(r21)
  805124:	103faa26 	beq	r2,zero,804fd0 <__sfvwrite+0xc8>
  805128:	803fda1e 	bne	r16,zero,805094 <__sfvwrite+0x18c>
  80512c:	94000117 	ldw	r16,4(r18)
  805130:	94c00017 	ldw	r19,0(r18)
  805134:	94800204 	addi	r18,r18,8
  805138:	803ffc26 	beq	r16,zero,80512c <__sfvwrite+0x224>
  80513c:	003fd706 	br	80509c <__sfvwrite+0x194>
  805140:	980b883a 	mov	r5,r19
  805144:	880d883a 	mov	r6,r17
  805148:	08056f80 	call	8056f8 <memmove>
  80514c:	a0c00017 	ldw	r3,0(r20)
  805150:	a009883a 	mov	r4,r20
  805154:	1c47883a 	add	r3,r3,r17
  805158:	a0c00015 	stw	r3,0(r20)
  80515c:	080492c0 	call	80492c <fflush>
  805160:	103fe926 	beq	r2,zero,805108 <__sfvwrite+0x200>
  805164:	a080030b 	ldhu	r2,12(r20)
  805168:	00ffffc4 	movi	r3,-1
  80516c:	10801014 	ori	r2,r2,64
  805170:	a080030d 	sth	r2,12(r20)
  805174:	003f9706 	br	804fd4 <__sfvwrite+0xcc>
  805178:	a0800417 	ldw	r2,16(r20)
  80517c:	a0c00017 	ldw	r3,0(r20)
  805180:	d1200a17 	ldw	r4,-32728(gp)
  805184:	100b883a 	mov	r5,r2
  805188:	18a3c83a 	sub	r17,r3,r2
  80518c:	8c2d883a 	add	r22,r17,r16
  805190:	b00d883a 	mov	r6,r22
  805194:	08068080 	call	806808 <_realloc_r>
  805198:	1009883a 	mov	r4,r2
  80519c:	103ff126 	beq	r2,zero,805164 <__sfvwrite+0x25c>
